(dp1
S'files'
p2
(dp3
S'src_rockstor_storageadmin_views_rockon_id'
p4
(dp5
S'index'
p6
(dp7
S'html_filename'
p8
S'src_rockstor_storageadmin_views_rockon_id.html'
p9
sS'name'
p10
S'src/rockstor/storageadmin/views/rockon_id'
p11
sS'nums'
p12
ccopy_reg
_reconstructor
p13
(ccoverage.results
Numbers
p14
c__builtin__
object
p15
NtRp16
(dp17
S'n_files'
p18
I1
sS'n_branches'
p19
I0
sS'n_statements'
p20
I130
sS'n_excluded'
p21
I0
sS'n_partial_branches'
p22
I0
sS'n_missing'
p23
I115
sS'n_missing_branches'
p24
I0
sbssS'hash'
p25
S'\xc7\x1a\xef\xd6\xd2\x07=\x89\xd5\xd5\xbb\xb7\x0f\xa4\xb6\x97'
p26
ssS'src_rockstor_storageadmin_views___init__'
p27
(dp28
g6
(dp29
g8
S'src_rockstor_storageadmin_views___init__.html'
p30
sg10
S'src/rockstor/storageadmin/views/__init__'
p31
sg12
g13
(g14
g15
NtRp32
(dp33
g18
I1
sg19
I0
sg20
I36
sg21
I0
sg22
I0
sg23
I0
sg24
I0
sbssg25
S'\xfc\x13\x81\xe6\xfb\xf7\x91/\x06Q\xcd\xd8\x02N,\xba'
p34
ssS'src_rockstor_storageadmin_views_ug_helpers'
p35
(dp36
g6
(dp37
g8
S'src_rockstor_storageadmin_views_ug_helpers.html'
p38
sg10
S'src/rockstor/storageadmin/views/ug_helpers'
p39
sg12
g13
(g14
g15
NtRp40
(dp41
g18
I1
sg19
I0
sg20
I61
sg21
I0
sg22
I0
sg23
I55
sg24
I0
sbssg25
S'l\xae~G\xc2\x15\xbc\xb7\xe5\xfa%\xa2A\xb5\xfc.'
p42
ssS'src_rockstor_storageadmin_views_plugin'
p43
(dp44
g6
(dp45
g8
S'src_rockstor_storageadmin_views_plugin.html'
p46
sg10
S'src/rockstor/storageadmin/views/plugin'
p47
sg12
g13
(g14
g15
NtRp48
(dp49
g18
I1
sg19
I0
sg20
I13
sg21
I0
sg22
I0
sg23
I1
sg24
I0
sbssg25
S'\xa8\x12\xe6\xde@G<\xff\xe96\xc1av/l*'
p50
ssS'src_rockstor_storageadmin_views_adv_nfs_exports'
p51
(dp52
g6
(dp53
g8
S'src_rockstor_storageadmin_views_adv_nfs_exports.html'
p54
sg10
S'src/rockstor/storageadmin/views/adv_nfs_exports'
p55
sg12
g13
(g14
g15
NtRp56
(dp57
g18
I1
sg19
I0
sg20
I45
sg21
I0
sg22
I0
sg23
I32
sg24
I0
sbssg25
S'7\xe6\xbc\xce\xb4\xe1\xc6\xeb\r\xfe\x9f`\xfc\xbbe\x7f'
p58
ssS'src_rockstor_storageadmin_views_tls_certificate'
p59
(dp60
g6
(dp61
g8
S'src_rockstor_storageadmin_views_tls_certificate.html'
p62
sg10
S'src/rockstor/storageadmin/views/tls_certificate'
p63
sg12
g13
(g14
g15
NtRp64
(dp65
g18
I1
sg19
I0
sg20
I53
sg21
I0
sg22
I0
sg23
I35
sg24
I0
sbssg25
S'\xa8\x16s \x96\xe9\x9b\xb5\xbd\xa9_9X\xbc\xd3C'
p66
ssS'src_rockstor_storageadmin_views_oauth_app'
p67
(dp68
g6
(dp69
g8
S'src_rockstor_storageadmin_views_oauth_app.html'
p70
sg10
S'src/rockstor/storageadmin/views/oauth_app'
p71
sg12
g13
(g14
g15
NtRp72
(dp73
g18
I1
sg19
I0
sg20
I47
sg21
I0
sg22
I0
sg23
I34
sg24
I0
sbssg25
S'\te\xa1#\x04\xe9;\xf7\x05\xaf\xea\xcc\x13*7S'
p74
ssS'src_rockstor_storageadmin_views_netatalk'
p75
(dp76
g6
(dp77
g8
S'src_rockstor_storageadmin_views_netatalk.html'
p78
sg10
S'src/rockstor/storageadmin/views/netatalk'
p79
sg12
g13
(g14
g15
NtRp80
(dp81
g18
I1
sg19
I0
sg20
I95
sg21
I0
sg22
I0
sg23
I70
sg24
I0
sbssg25
S'e\xd6\t\xa02J\xc2\xe6d\xd8\t%\xf1\xc5}\xe2'
p82
ssS'src_rockstor_storageadmin_views_clone_helpers'
p83
(dp84
g6
(dp85
g8
S'src_rockstor_storageadmin_views_clone_helpers.html'
p86
sg10
S'src/rockstor/storageadmin/views/clone_helpers'
p87
sg12
g13
(g14
g15
NtRp88
(dp89
g18
I1
sg19
I0
sg20
I32
sg21
I0
sg22
I0
sg23
I24
sg24
I0
sbssg25
S'\x80\x18|U\xe2\xa5\x999\xef\xb8G\xc2\xbf\xe2\x0c\x88'
p90
ssS'src_rockstor_storageadmin_views_share_command'
p91
(dp92
g6
(dp93
S'html_filename'
p94
S'src_rockstor_storageadmin_views_share_command.html'
p95
sS'name'
p96
S'src/rockstor/storageadmin/views/share_command'
p97
sS'nums'
p98
g13
(g14
g15
NtRp99
(dp100
g18
I1
sg19
I0
sg20
I63
sg21
I0
sg22
I0
sg23
I45
sg24
I0
sbssg25
S'x\x80\xea\xf6\x94iQmo5dn\xfb\x02\xe4\x8f'
p101
ssS'src_rockstor_storageadmin_views_snapshot'
p102
(dp103
g6
(dp104
g8
S'src_rockstor_storageadmin_views_snapshot.html'
p105
sg10
S'src/rockstor/storageadmin/views/snapshot'
p106
sg12
g13
(g14
g15
NtRp107
(dp108
g18
I1
sg19
I0
sg20
I152
sg21
I0
sg22
I0
sg23
I127
sg24
I0
sbssg25
S'\xa2t\xc4\xe7t\xce)\xeb{n\xe9\x88>\xb8G\x80'
p109
ssS'src_rockstor_storageadmin_views_pool_import'
p110
(dp111
g6
(dp112
g8
S'src_rockstor_storageadmin_views_pool_import.html'
p113
sg10
S'src/rockstor/storageadmin/views/pool_import'
p114
sg12
g13
(g14
g15
NtRp115
(dp116
g18
I1
sg19
I0
sg20
I70
sg21
I0
sg22
I0
sg23
I70
sg24
I0
sbssg25
S'\x91\xaa\x7f2\xef\xcb\xf3M\xec\xacoM%C\x12\xda'
p117
ssS'src_rockstor_storageadmin_views_user'
p118
(dp119
g6
(dp120
g8
S'src_rockstor_storageadmin_views_user.html'
p121
sg10
S'src/rockstor/storageadmin/views/user'
p122
sg12
g13
(g14
g15
NtRp123
(dp124
g18
I1
sg19
I0
sg20
I208
sg21
I0
sg22
I0
sg23
I180
sg24
I0
sbssg25
S'\xc7\xdc_\x85\n\xe4\xec\xa9D3\x1e\x90\xef)y\xa1'
p125
ssS'src_rockstor_storageadmin_views_views'
p126
(dp127
g6
(dp128
g8
S'src_rockstor_storageadmin_views_views.html'
p129
sg10
S'src/rockstor/storageadmin/views/views'
p130
sg12
g13
(g14
g15
NtRp131
(dp132
g18
I1
sg19
I0
sg20
I0
sg21
I0
sg22
I0
sg23
I0
sg24
I0
sbssg25
S'{\xd99q\x98)\xfekT\xb8H7M\x1c\x94\xba'
p133
ssS'src_rockstor_storageadmin_views_rockon_helpers'
p134
(dp135
g6
(dp136
g8
S'src_rockstor_storageadmin_views_rockon_helpers.html'
p137
sg10
S'src/rockstor/storageadmin/views/rockon_helpers'
p138
sg12
g13
(g14
g15
NtRp139
(dp140
g18
I1
sg19
I0
sg20
I121
sg21
I0
sg22
I0
sg23
I103
sg24
I0
sbssg25
S'\xd4\x04Vr\rG\xf9\x1e\xf3I\x01E4k\xda_'
p141
ssS'src_rockstor_storageadmin_views_share_iscsi'
p142
(dp143
g6
(dp144
g8
S'src_rockstor_storageadmin_views_share_iscsi.html'
p145
sg10
S'src/rockstor/storageadmin/views/share_iscsi'
p146
sg12
g13
(g14
g15
NtRp147
(dp148
g18
I1
sg19
I0
sg20
I59
sg21
I0
sg22
I0
sg23
I43
sg24
I0
sbssg25
S'0\x04\xd3SN\x0c\xa6\x96\xadx^\xa1\xaa\xd8 \x0b'
p149
ssS'src_rockstor_storageadmin_views_setup_user'
p150
(dp151
g6
(dp152
g8
S'src_rockstor_storageadmin_views_setup_user.html'
p153
sg10
S'src/rockstor/storageadmin/views/setup_user'
p154
sg12
g13
(g14
g15
NtRp155
(dp156
g18
I1
sg19
I0
sg20
I32
sg21
I0
sg22
I0
sg23
I20
sg24
I0
sbssg25
S'\xec\x94\x84\x1a\x9aM2\xb5p\xca\xa2\x96\x95\x1cq\n'
p157
ssS'src_rockstor_storageadmin_views_pool_balance'
p158
(dp159
g6
(dp160
g8
S'src_rockstor_storageadmin_views_pool_balance.html'
p161
sg10
S'src/rockstor/storageadmin/views/pool_balance'
p162
sg12
g13
(g14
g15
NtRp163
(dp164
g18
I1
sg19
I0
sg20
I56
sg21
I0
sg22
I0
sg23
I39
sg24
I0
sbssg25
S'\x07\x17\x19.?\x9aP=[\xe8\xad\x88\x8a\xc7\xfeB'
p165
ssS'src_rockstor_storageadmin_views_pool'
p166
(dp167
g6
(dp168
g94
S'src_rockstor_storageadmin_views_pool.html'
p169
sg96
S'src/rockstor/storageadmin/views/pool'
p170
sg98
g13
(g14
g15
NtRp171
(dp172
g18
I1
sg19
I0
sg20
I279
sg21
I0
sg22
I0
sg23
I252
sg24
I0
sbssg25
S'b\x8d\xd3\xae\xac\x13X\x0eV\xd1,2\xd6Iq-'
p173
ssS'src_rockstor_storageadmin_views_pool_scrub'
p174
(dp175
g6
(dp176
g8
S'src_rockstor_storageadmin_views_pool_scrub.html'
p177
sg10
S'src/rockstor/storageadmin/views/pool_scrub'
p178
sg12
g13
(g14
g15
NtRp179
(dp180
g18
I1
sg19
I0
sg20
I60
sg21
I0
sg22
I0
sg23
I43
sg24
I0
sbssg25
S'\xfe\xf2\x8c\xe6Q\x0f\x9b\xdd\x00dX|\x003\x87w'
p181
ssS'src_rockstor_storageadmin_views_rockon'
p182
(dp183
g6
(dp184
g8
S'src_rockstor_storageadmin_views_rockon.html'
p185
sg10
S'src/rockstor/storageadmin/views/rockon'
p186
sg12
g13
(g14
g15
NtRp187
(dp188
g18
I1
sg19
I0
sg20
I107
sg21
I0
sg22
I0
sg23
I89
sg24
I0
sbssg25
S'\x161@{\\oB\xc2\xf6\xb7\xa80\xe6\xe4\xcf+'
p189
ssS'src_rockstor_storageadmin_views_sftp'
p190
(dp191
g6
(dp192
g8
S'src_rockstor_storageadmin_views_sftp.html'
p193
sg10
S'src/rockstor/storageadmin/views/sftp'
p194
sg12
g13
(g14
g15
NtRp195
(dp196
g18
I1
sg19
I0
sg20
I79
sg21
I0
sg22
I0
sg23
I58
sg24
I0
sbssg25
S'\xb9\xf7gA\x0f\x0b\xa9\xe0\xf5\x89\xa2\xf0V\xde\x82\xf6'
p197
ssS'src_rockstor_storageadmin_views_rockon_volume'
p198
(dp199
g6
(dp200
g8
S'src_rockstor_storageadmin_views_rockon_volume.html'
p201
sg10
S'src/rockstor/storageadmin/views/rockon_volume'
p202
sg12
g13
(g14
g15
NtRp203
(dp204
g18
I1
sg19
I0
sg20
I14
sg21
I0
sg22
I0
sg23
I7
sg24
I0
sbssg25
S"b\x81\xfc:\xc84|\xeb1\x9bHb'R\xe8K"
p205
ssS'src_rockstor_storageadmin_views_network'
p206
(dp207
g6
(dp208
g8
S'src_rockstor_storageadmin_views_network.html'
p209
sg10
S'src/rockstor/storageadmin/views/network'
p210
sg12
g13
(g14
g15
NtRp211
(dp212
g18
I1
sg19
I0
sg20
I122
sg21
I0
sg22
I0
sg23
I99
sg24
I0
sbssg25
S'\xb3\x14\xc1y\xe6C\xab\xdc6\x11\x81V>\xb5m\x87'
p213
ssS'src_rockstor_storageadmin_views_command'
p214
(dp215
g6
(dp216
g8
S'src_rockstor_storageadmin_views_command.html'
p217
sg10
S'src/rockstor/storageadmin/views/command'
p218
sg12
g13
(g14
g15
NtRp219
(dp220
g18
I1
sg19
I0
sg20
I185
sg21
I0
sg22
I0
sg23
I160
sg24
I0
sbssg25
S'\xd7\x82J\x92\xec\x81\xe8;\xf7\xda\xf9\x987\xffZh'
p221
ssS'src_rockstor_storageadmin_views_support'
p222
(dp223
g6
(dp224
g8
S'src_rockstor_storageadmin_views_support.html'
p225
sg10
S'src/rockstor/storageadmin/views/support'
p226
sg12
g13
(g14
g15
NtRp227
(dp228
g18
I1
sg19
I0
sg20
I74
sg21
I0
sg22
I0
sg23
I49
sg24
I0
sbssg25
S'\xbdKJ\xfd\x10d\xf2\xd6&%\x7f!\x19w\x14\xe2'
p229
ssS'src_rockstor_storageadmin_views_disk'
p230
(dp231
g6
(dp232
g8
S'src_rockstor_storageadmin_views_disk.html'
p233
sg10
S'src/rockstor/storageadmin/views/disk'
p234
sg12
g13
(g14
g15
NtRp235
(dp236
g18
I1
sg19
I0
sg20
I147
sg21
I0
sg22
I0
sg23
I116
sg24
I0
sbssg25
S'(\x7f\xa1\xb3\xa1\x98\xbbWrv\xcc\xbb\n\xcc\xbf\xf5'
p237
ssS'src_rockstor_storageadmin_views_share_helpers'
p238
(dp239
g6
(dp240
g8
S'src_rockstor_storageadmin_views_share_helpers.html'
p241
sg10
S'src/rockstor/storageadmin/views/share_helpers'
p242
sg12
g13
(g14
g15
NtRp243
(dp244
g18
I1
sg19
I0
sg20
I35
sg21
I0
sg22
I0
sg23
I25
sg24
I0
sbssg25
S'I\x81\xcfL\xfa\x9a\xf3\x03\xd4/\x0e\xa0/J\xa1{'
p245
ssS'src_rockstor_storageadmin_views_rockon_custom_config'
p246
(dp247
g6
(dp248
g8
S'src_rockstor_storageadmin_views_rockon_custom_config.html'
p249
sg10
S'src/rockstor/storageadmin/views/rockon_custom_config'
p250
sg12
g13
(g14
g15
NtRp251
(dp252
g18
I1
sg19
I0
sg20
I13
sg21
I0
sg22
I0
sg23
I6
sg24
I0
sbssg25
S'r\xd7n\x99\x11GR\xa3\x19v\xd9\x16\xcf\xb1V\xe6'
p253
ssS'src_rockstor_storageadmin_views_installed_plugin'
p254
(dp255
g6
(dp256
g8
S'src_rockstor_storageadmin_views_installed_plugin.html'
p257
sg10
S'src/rockstor/storageadmin/views/installed_plugin'
p258
sg12
g13
(g14
g15
NtRp259
(dp260
g18
I1
sg19
I0
sg20
I26
sg21
I0
sg22
I0
sg23
I12
sg24
I0
sbssg25
S'\x1f\xbe\xf7\xf2Bv\x8e\x0b}\x1b\xde\x1d\xb1\xa0P\x94'
p261
ssS'src_rockstor_storageadmin_views_appliances'
p262
(dp263
g6
(dp264
g8
S'src_rockstor_storageadmin_views_appliances.html'
p265
sg10
S'src/rockstor/storageadmin/views/appliances'
p266
sg12
g13
(g14
g15
NtRp267
(dp268
g18
I1
sg19
I0
sg20
I114
sg21
I0
sg22
I0
sg23
I90
sg24
I0
sbssg25
S'\t\xf6\x94\xad\x1dZ`v\x9a\x01m\x1e6\xacV\xbb'
p269
ssS'src_rockstor_storageadmin_views_share_nfs'
p270
(dp271
g6
(dp272
g8
S'src_rockstor_storageadmin_views_share_nfs.html'
p273
sg10
S'src/rockstor/storageadmin/views/share_nfs'
p274
sg12
g13
(g14
g15
NtRp275
(dp276
g18
I1
sg19
I0
sg20
I81
sg21
I0
sg22
I0
sg23
I61
sg24
I0
sbssg25
S'\x00|\x02fu\x1a\xcbr\xf3\xaco}\xfa\xe5\xc0\xb5'
p277
ssS'src_rockstor_storageadmin_views_rockon_port'
p278
(dp279
g6
(dp280
g8
S'src_rockstor_storageadmin_views_rockon_port.html'
p281
sg10
S'src/rockstor/storageadmin/views/rockon_port'
p282
sg12
g13
(g14
g15
NtRp283
(dp284
g18
I1
sg19
I0
sg20
I14
sg21
I0
sg22
I0
sg23
I7
sg24
I0
sbssg25
S'\xda\xe3\x0f@\xd0sN\x8au\xb5\x9a\x15=\xee(R'
p285
ssS'src_rockstor_storageadmin_views_login'
p286
(dp287
g6
(dp288
g8
S'src_rockstor_storageadmin_views_login.html'
p289
sg10
S'src/rockstor/storageadmin/views/login'
p290
sg12
g13
(g14
g15
NtRp291
(dp292
g18
I1
sg19
I0
sg20
I19
sg21
I0
sg22
I0
sg23
I10
sg24
I0
sbssg25
S'\xaa\x82\x89\x0f\x9c\xecAJX\x02\x7f\xd4H \xa7r'
p293
ssS'src_rockstor_storageadmin_views_disk_smart'
p294
(dp295
g6
(dp296
g8
S'src_rockstor_storageadmin_views_disk_smart.html'
p297
sg10
S'src/rockstor/storageadmin/views/disk_smart'
p298
sg12
g13
(g14
g15
NtRp299
(dp300
g18
I1
sg19
I0
sg20
I78
sg21
I0
sg22
I0
sg23
I56
sg24
I0
sbssg25
S'j\xf6]\xd4\xd3\x1d\xd6\xf4f\xd2\x047\x02Oq\x82'
p301
ssS'src_rockstor_storageadmin_views_dashboardconfig'
p302
(dp303
g6
(dp304
g8
S'src_rockstor_storageadmin_views_dashboardconfig.html'
p305
sg10
S'src/rockstor/storageadmin/views/dashboardconfig'
p306
sg12
g13
(g14
g15
NtRp307
(dp308
g18
I1
sg19
I0
sg20
I54
sg21
I0
sg22
I0
sg23
I35
sg24
I0
sbssg25
S'*\x0c\xc7l\x84t\xd59R\xb1\x0b\xe7Fsk\xd7'
p309
ssS'src_rockstor_storageadmin_views_nfs_helpers'
p310
(dp311
g6
(dp312
g8
S'src_rockstor_storageadmin_views_nfs_helpers.html'
p313
sg10
S'src/rockstor/storageadmin/views/nfs_helpers'
p314
sg12
g13
(g14
g15
NtRp315
(dp316
g18
I1
sg19
I0
sg20
I87
sg21
I0
sg22
I0
sg23
I73
sg24
I0
sbssg25
S'\x9c\xa3\x89Z\x91R\xb8u\xeb\x17\\\xce[\xbamR'
p317
ssS'src_rockstor_storageadmin_views_share'
p318
(dp319
g6
(dp320
S'html_filename'
p321
S'src_rockstor_storageadmin_views_share.html'
p322
sS'name'
p323
S'src/rockstor/storageadmin/views/share'
p324
sS'nums'
p325
g13
(g14
g15
NtRp326
(dp327
g18
I1
sg19
I0
sg20
I150
sg21
I0
sg22
I0
sg23
I17
sg24
I0
sbssg25
S'\xe2`Q\xa4\x7f\xd9=\x9d2#\xd7\\\xe1\x99=\x91'
p328
ssS'src_rockstor_storageadmin_views_samba'
p329
(dp330
g6
(dp331
g8
S'src_rockstor_storageadmin_views_samba.html'
p332
sg10
S'src/rockstor/storageadmin/views/samba'
p333
sg12
g13
(g14
g15
NtRp334
(dp335
g18
I1
sg19
I0
sg20
I154
sg21
I0
sg22
I0
sg23
I128
sg24
I0
sbssg25
S'\xaf.\xb0\xd9\xcc\xef\xbaD\xf7a\xa5Y\xe7\xde\x03\x18'
p336
ssS'src_rockstor_storageadmin_views_group'
p337
(dp338
g6
(dp339
g8
S'src_rockstor_storageadmin_views_group.html'
p340
sg10
S'src/rockstor/storageadmin/views/group'
p341
sg12
g13
(g14
g15
NtRp342
(dp343
g18
I1
sg19
I0
sg20
I71
sg21
I0
sg22
I0
sg23
I49
sg24
I0
sbssg25
S'&\xef)A\x8c>q\x13\xf86\xea\xe9\xc8V~\x85'
p344
ssS'src_rockstor_storageadmin_views_share_acl'
p345
(dp346
g6
(dp347
g8
S'src_rockstor_storageadmin_views_share_acl.html'
p348
sg10
S'src/rockstor/storageadmin/views/share_acl'
p349
sg12
g13
(g14
g15
NtRp350
(dp351
g18
I1
sg19
I0
sg20
I35
sg21
I0
sg22
I0
sg23
I23
sg24
I0
sbssg25
S'\xaa\xa4I\xa2\xfd!W\xc4\xc9\xdfc\x9cRX4\x89'
p352
ssS'src_rockstor_storageadmin_views_nfs_exports'
p353
(dp354
g6
(dp355
g8
S'src_rockstor_storageadmin_views_nfs_exports.html'
p356
sg10
S'src/rockstor/storageadmin/views/nfs_exports'
p357
sg12
g13
(g14
g15
NtRp358
(dp359
g18
I1
sg19
I0
sg20
I108
sg21
I0
sg22
I0
sg23
I87
sg24
I0
sbssg25
S'\xa5\x04\x8e\x19\xc1\xd7\xfc\x18\x85\xcf\xae\xea\x15\xcc8}'
p360
ssS'src_rockstor_storageadmin_views_serializers'
p361
(dp362
g6
(dp363
g8
S'src_rockstor_storageadmin_views_serializers.html'
p364
sg10
S'src/rockstor/storageadmin/views/serializers'
p365
sg12
g13
(g14
g15
NtRp366
(dp367
g18
I1
sg19
I0
sg20
I8
sg21
I0
sg22
I0
sg23
I8
sg24
I0
sbssg25
S'B\x91_\xf9\x1d\x8bsBs\xff\xce\xc0\x83[cn'
p368
ssS'src_rockstor_storageadmin_views_home'
p369
(dp370
g6
(dp371
g8
S'src_rockstor_storageadmin_views_home.html'
p372
sg10
S'src/rockstor/storageadmin/views/home'
p373
sg12
g13
(g14
g15
NtRp374
(dp375
g18
I1
sg19
I0
sg20
I37
sg21
I0
sg22
I0
sg23
I24
sg24
I0
sbssg25
S'oy\x89\x93\xae\xdd\xefTuZM\x7f\xcc\x11y\xe4'
p376
sssS'version'
p377
S'3.7.1'
p378
sS'settings'
p379
S'7J`\x1e\x88\xff\x15\xc7h\x066\x98{#f\xef'
p380
sS'format'
p381
I1
s.