(dp1
S'files'
p2
(dp3
S'src_rockstor_storageadmin_views_rockon_id'
p4
(dp5
S'index'
p6
(dp7
S'html_filename'
p8
S'src_rockstor_storageadmin_views_rockon_id.html'
p9
sS'name'
p10
S'src/rockstor/storageadmin/views/rockon_id'
p11
sS'nums'
p12
ccopy_reg
_reconstructor
p13
(ccoverage.results
Numbers
p14
c__builtin__
object
p15
NtRp16
(dp17
S'n_files'
p18
I1
sS'n_branches'
p19
I0
sS'n_statements'
p20
I142
sS'n_excluded'
p21
I0
sS'n_partial_branches'
p22
I0
sS'n_missing'
p23
I142
sS'n_missing_branches'
p24
I0
sbssS'hash'
p25
S'GS\x14\x06\xcf`[\x94\xa1s\xdc\xea\x963\xe4\xd4'
p26
ssS'src_rockstor_storageadmin_views___init__'
p27
(dp28
g6
(dp29
g8
S'src_rockstor_storageadmin_views___init__.html'
p30
sg10
S'src/rockstor/storageadmin/views/__init__'
p31
sg12
g13
(g14
g15
NtRp32
(dp33
g18
I1
sg19
I0
sg20
I33
sg21
I0
sg22
I0
sg23
I33
sg24
I0
sbssg25
S'\x14\xf7\xa9\xac\x8bc\xc6\x1b\x9a9\xd1\xdd\x9cPx\xac'
p34
ssS'src_rockstor_storageadmin_views_ug_helpers'
p35
(dp36
g6
(dp37
g8
S'src_rockstor_storageadmin_views_ug_helpers.html'
p38
sg10
S'src/rockstor/storageadmin/views/ug_helpers'
p39
sg12
g13
(g14
g15
NtRp40
(dp41
g18
I1
sg19
I0
sg20
I63
sg21
I0
sg22
I0
sg23
I63
sg24
I0
sbssg25
S'\xb4\xa2C\xad-\x11\xbb\xc6k@t>\xefm, '
p42
ssS'src_rockstor_storageadmin_views_email_client'
p43
(dp44
g6
(dp45
g8
S'src_rockstor_storageadmin_views_email_client.html'
p46
sg10
S'src/rockstor/storageadmin/views/email_client'
p47
sg12
g13
(g14
g15
NtRp48
(dp49
g18
I1
sg19
I0
sg20
I109
sg21
I0
sg22
I0
sg23
I109
sg24
I0
sbssg25
S"\x8f\x05`\x18fASf\x07\x82\xcb\xfd\xc8\x83T'"
p50
ssS'src_rockstor_storageadmin_views_tls_certificate'
p51
(dp52
g6
(dp53
g8
S'src_rockstor_storageadmin_views_tls_certificate.html'
p54
sg10
S'src/rockstor/storageadmin/views/tls_certificate'
p55
sg12
g13
(g14
g15
NtRp56
(dp57
g18
I1
sg19
I0
sg20
I53
sg21
I0
sg22
I0
sg23
I53
sg24
I0
sbssg25
S'\x8c\xab\x01p*\xf6}0\x91\xd5\x0ez\xef6\xee\x10'
p58
ssS'src_rockstor_storageadmin_views_oauth_app'
p59
(dp60
g6
(dp61
g8
S'src_rockstor_storageadmin_views_oauth_app.html'
p62
sg10
S'src/rockstor/storageadmin/views/oauth_app'
p63
sg12
g13
(g14
g15
NtRp64
(dp65
g18
I1
sg19
I0
sg20
I51
sg21
I0
sg22
I0
sg23
I51
sg24
I0
sbssg25
S'\x13U\x82\x8dy\x13\xaf`\x867v^v\x10\xd0\x1f'
p66
ssS'src_rockstor_storageadmin_views_rockon_helpers'
p67
(dp68
g6
(dp69
g8
S'src_rockstor_storageadmin_views_rockon_helpers.html'
p70
sg10
S'src/rockstor/storageadmin/views/rockon_helpers'
p71
sg12
g13
(g14
g15
NtRp72
(dp73
g18
I1
sg19
I0
sg20
I195
sg21
I0
sg22
I0
sg23
I195
sg24
I0
sbssg25
S'1\xcbb\xb8\x87\x1b\xeak\xbap\\\x0f.\x0e\x91\x12'
p74
ssS'src_rockstor_storageadmin_views_clone_helpers'
p75
(dp76
g6
(dp77
g8
S'src_rockstor_storageadmin_views_clone_helpers.html'
p78
sg10
S'src/rockstor/storageadmin/views/clone_helpers'
p79
sg12
g13
(g14
g15
NtRp80
(dp81
g18
I1
sg19
I0
sg20
I31
sg21
I0
sg22
I0
sg23
I31
sg24
I0
sbssg25
S'H\xf6\x04\xa3\x1e4\xbd\xb7\xd5\xcb+U\xefj\xe4\x08'
p82
ssS'src_rockstor_storageadmin_views_netatalk'
p83
(dp84
g6
(dp85
g8
S'src_rockstor_storageadmin_views_netatalk.html'
p86
sg10
S'src/rockstor/storageadmin/views/netatalk'
p87
sg12
g13
(g14
g15
NtRp88
(dp89
g18
I1
sg19
I0
sg20
I93
sg21
I0
sg22
I0
sg23
I93
sg24
I0
sbssg25
S'\xf0\x9f(6\xdc\xf0\xee\xc9\xb1\xff\xe6$b\xd10|'
p90
ssS'src_rockstor_storageadmin_views_rockon_json'
p91
(dp92
g6
(dp93
g8
S'src_rockstor_storageadmin_views_rockon_json.html'
p94
sg10
S'src/rockstor/storageadmin/views/rockon_json'
p95
sg12
g13
(g14
g15
NtRp96
(dp97
g18
I1
sg19
I0
sg20
I10
sg21
I0
sg22
I0
sg23
I10
sg24
I0
sbssg25
S'\xdb&\x14\xd7\x1cP\x82\xa2\x10\xd3TM\r\xa9TP'
p98
ssS'src_rockstor_storageadmin_views_user'
p99
(dp100
g6
(dp101
g8
S'src_rockstor_storageadmin_views_user.html'
p102
sg10
S'src/rockstor/storageadmin/views/user'
p103
sg12
g13
(g14
g15
NtRp104
(dp105
g18
I1
sg19
I0
sg20
I214
sg21
I0
sg22
I0
sg23
I214
sg24
I0
sbssg25
S'\x16Cw\x1b\xad\xc6\xe3J\x19\xbb\xbfA\xd4\x8f\x92\xc7'
p106
ssS'src_rockstor_storageadmin_views_views'
p107
(dp108
g6
(dp109
g8
S'src_rockstor_storageadmin_views_views.html'
p110
sg10
S'src/rockstor/storageadmin/views/views'
p111
sg12
g13
(g14
g15
NtRp112
(dp113
g18
I1
sg19
I0
sg20
I0
sg21
I0
sg22
I0
sg23
I0
sg24
I0
sbssg25
S'{\xd99q\x98)\xfekT\xb8H7M\x1c\x94\xba'
p114
ssS'src_rockstor_storageadmin_views_nfs_exports'
p115
(dp116
g6
(dp117
g8
S'src_rockstor_storageadmin_views_nfs_exports.html'
p118
sg10
S'src/rockstor/storageadmin/views/nfs_exports'
p119
sg12
g13
(g14
g15
NtRp120
(dp121
g18
I1
sg19
I0
sg20
I214
sg21
I0
sg22
I0
sg23
I214
sg24
I0
sbssg25
S'x\x9a\x18*<*\x0c3\xe2\x9bm\\<\xb1\x19\x05'
p122
ssS'src_rockstor_storageadmin_views_disk_smart'
p123
(dp124
g6
(dp125
g8
S'src_rockstor_storageadmin_views_disk_smart.html'
p126
sg10
S'src/rockstor/storageadmin/views/disk_smart'
p127
sg12
g13
(g14
g15
NtRp128
(dp129
g18
I1
sg19
I0
sg20
I86
sg21
I0
sg22
I0
sg23
I86
sg24
I0
sbssg25
S'\x11\xc8\x92F\xbf\xc5\xf4\xd3e\xb2\x8a\x9ch\xed\xdb\xf7'
p130
ssS'src_rockstor_storageadmin_views_setup_user'
p131
(dp132
g6
(dp133
g8
S'src_rockstor_storageadmin_views_setup_user.html'
p134
sg10
S'src/rockstor/storageadmin/views/setup_user'
p135
sg12
g13
(g14
g15
NtRp136
(dp137
g18
I1
sg19
I0
sg20
I32
sg21
I0
sg22
I0
sg23
I32
sg24
I0
sbssg25
S'P[/\x9dk2\x85o\xfe\xf1\xe5^Z\x89\xfe!'
p138
ssS'src_rockstor_storageadmin_views_update_subscription'
p139
(dp140
g6
(dp141
g8
S'src_rockstor_storageadmin_views_update_subscription.html'
p142
sg10
S'src/rockstor/storageadmin/views/update_subscription'
p143
sg12
g13
(g14
g15
NtRp144
(dp145
g18
I1
sg19
I0
sg20
I67
sg21
I0
sg22
I0
sg23
I67
sg24
I0
sbssg25
S'T\xa6\xe6h\x91\xd0Q\x1d\x9f\x97\xa2\xb2\xc9\xbb\xd8\xbd'
p146
ssS'src_rockstor_storageadmin_views_pool_balance'
p147
(dp148
g6
(dp149
g8
S'src_rockstor_storageadmin_views_pool_balance.html'
p150
sg10
S'src/rockstor/storageadmin/views/pool_balance'
p151
sg12
g13
(g14
g15
NtRp152
(dp153
g18
I1
sg19
I0
sg20
I67
sg21
I0
sg22
I0
sg23
I67
sg24
I0
sbssg25
S"s`)\xad\xb4\xe6\x1a\x93\x1f\xdf\xce\r\xc0'PC"
p154
ssS'src_rockstor_storageadmin_views_pool'
p155
(dp156
g6
(dp157
g8
S'src_rockstor_storageadmin_views_pool.html'
p158
sg10
S'src/rockstor/storageadmin/views/pool'
p159
sg12
g13
(g14
g15
NtRp160
(dp161
g18
I1
sg19
I0
sg20
I294
sg21
I0
sg22
I0
sg23
I294
sg24
I0
sbssg25
S'\xa7\x9d\x06\xe4\x8a\xed*K\x96\xb9\x98-@J\xe4~'
p162
ssS'src_rockstor_storageadmin_views_pool_scrub'
p163
(dp164
g6
(dp165
g8
S'src_rockstor_storageadmin_views_pool_scrub.html'
p166
sg10
S'src/rockstor/storageadmin/views/pool_scrub'
p167
sg12
g13
(g14
g15
NtRp168
(dp169
g18
I1
sg19
I0
sg20
I58
sg21
I0
sg22
I0
sg23
I58
sg24
I0
sbssg25
S'@\xd0\xbc\xec\x9d\x9a\x9ev\xbe\xc0\xc7\xe3.\xbc\x94\xb5'
p170
ssS'src_rockstor_storageadmin_views_rockon'
p171
(dp172
g6
(dp173
g8
S'src_rockstor_storageadmin_views_rockon.html'
p174
sg10
S'src/rockstor/storageadmin/views/rockon'
p175
sg12
g13
(g14
g15
NtRp176
(dp177
g18
I1
sg19
I0
sg20
I166
sg21
I0
sg22
I0
sg23
I166
sg24
I0
sbssg25
S'\x0b\xa1\xc94\x1e@xG\x90\xfd\x15{d\x19\xe34'
p178
ssS'src_rockstor_storageadmin_views_sftp'
p179
(dp180
g6
(dp181
g8
S'src_rockstor_storageadmin_views_sftp.html'
p182
sg10
S'src/rockstor/storageadmin/views/sftp'
p183
sg12
g13
(g14
g15
NtRp184
(dp185
g18
I1
sg19
I0
sg20
I79
sg21
I0
sg22
I0
sg23
I79
sg24
I0
sbssg25
S'\xc4\xb3\x1f\x15K\xb6k\xe8; \xa7\xb9\xdeC\xda\xc1'
p186
ssS'src_rockstor_storageadmin_views_rockon_volume'
p187
(dp188
g6
(dp189
g8
S'src_rockstor_storageadmin_views_rockon_volume.html'
p190
sg10
S'src/rockstor/storageadmin/views/rockon_volume'
p191
sg12
g13
(g14
g15
NtRp192
(dp193
g18
I1
sg19
I0
sg20
I14
sg21
I0
sg22
I0
sg23
I14
sg24
I0
sbssg25
S'\xe1+l\xe8\xce\xe2\xf2\xd8]\xc5\x9d6\x86C\x86Z'
p194
ssS'src_rockstor_storageadmin_views_network'
p195
(dp196
g6
(dp197
g8
S'src_rockstor_storageadmin_views_network.html'
p198
sg10
S'src/rockstor/storageadmin/views/network'
p199
sg12
g13
(g14
g15
NtRp200
(dp201
g18
I1
sg19
I0
sg20
I156
sg21
I0
sg22
I0
sg23
I156
sg24
I0
sbssg25
S'_\xc8\xfa\xc0\x11\xfb\xc6[\x17\xcfi\xce\x94S\x10\xf5'
p202
ssS'src_rockstor_storageadmin_views_command'
p203
(dp204
g6
(dp205
g8
S'src_rockstor_storageadmin_views_command.html'
p206
sg10
S'src/rockstor/storageadmin/views/command'
p207
sg12
g13
(g14
g15
NtRp208
(dp209
g18
I1
sg19
I0
sg20
I178
sg21
I0
sg22
I0
sg23
I178
sg24
I0
sbssg25
S'\x8b\x973\x7f\xd3-\x94\x12\xdd\xa9BB\xa7Da\xab'
p210
ssS'src_rockstor_storageadmin_views_disk'
p211
(dp212
g6
(dp213
g8
S'src_rockstor_storageadmin_views_disk.html'
p214
sg10
S'src/rockstor/storageadmin/views/disk'
p215
sg12
g13
(g14
g15
NtRp216
(dp217
g18
I1
sg19
I0
sg20
I170
sg21
I0
sg22
I0
sg23
I170
sg24
I0
sbssg25
S'\xdb\xee4\x9d\xbbo\xa4\r\xe8+\xf5\xde\xf9\xf7@\xa2'
p218
ssS'src_rockstor_storageadmin_views_share_helpers'
p219
(dp220
g6
(dp221
g8
S'src_rockstor_storageadmin_views_share_helpers.html'
p222
sg10
S'src/rockstor/storageadmin/views/share_helpers'
p223
sg12
g13
(g14
g15
NtRp224
(dp225
g18
I1
sg19
I0
sg20
I106
sg21
I0
sg22
I0
sg23
I106
sg24
I0
sbssg25
S'\xc0>:\xb4w!\xfa\xf3>y_\xf1e\xe6\x8eP'
p226
ssS'src_rockstor_storageadmin_views_rockon_custom_config'
p227
(dp228
g6
(dp229
g8
S'src_rockstor_storageadmin_views_rockon_custom_config.html'
p230
sg10
S'src/rockstor/storageadmin/views/rockon_custom_config'
p231
sg12
g13
(g14
g15
NtRp232
(dp233
g18
I1
sg19
I0
sg20
I13
sg21
I0
sg22
I0
sg23
I13
sg24
I0
sbssg25
S"\x1f5m\x11\xca O\x06'>\x80\n\xe8\xc1\x15B"
p234
ssS'src_rockstor_storageadmin_views_rockon_port'
p235
(dp236
g6
(dp237
g8
S'src_rockstor_storageadmin_views_rockon_port.html'
p238
sg10
S'src/rockstor/storageadmin/views/rockon_port'
p239
sg12
g13
(g14
g15
NtRp240
(dp241
g18
I1
sg19
I0
sg20
I14
sg21
I0
sg22
I0
sg23
I14
sg24
I0
sbssg25
S'\xce\x1a\x1b\xe2\x8b\x08\xc8W~\x92\xbcD\xe8\x13\xd7h'
p242
ssS'src_rockstor_storageadmin_views_login'
p243
(dp244
g6
(dp245
g8
S'src_rockstor_storageadmin_views_login.html'
p246
sg10
S'src/rockstor/storageadmin/views/login'
p247
sg12
g13
(g14
g15
NtRp248
(dp249
g18
I1
sg19
I0
sg20
I19
sg21
I0
sg22
I0
sg23
I19
sg24
I0
sbssg25
S'\x98\x1d=q\xb7\x1cuMJ0\xfa\xb7P\xfa\x8c;'
p250
ssS'src_rockstor_storageadmin_views_appliances'
p251
(dp252
g6
(dp253
g8
S'src_rockstor_storageadmin_views_appliances.html'
p254
sg10
S'src/rockstor/storageadmin/views/appliances'
p255
sg12
g13
(g14
g15
NtRp256
(dp257
g18
I1
sg19
I0
sg20
I105
sg21
I0
sg22
I0
sg23
I105
sg24
I0
sbssg25
S'\xae; \xfd}N\x13\xcb\x8d\x07*R\x7f\x08\x1dx'
p258
ssS'src_rockstor_storageadmin_views_snapshot'
p259
(dp260
g6
(dp261
g8
S'src_rockstor_storageadmin_views_snapshot.html'
p262
sg10
S'src/rockstor/storageadmin/views/snapshot'
p263
sg12
g13
(g14
g15
NtRp264
(dp265
g18
I1
sg19
I0
sg20
I155
sg21
I0
sg22
I0
sg23
I155
sg24
I0
sbssg25
S'6p\xd8\x84rG^ds"\xa2NS\xe1\x89H'
p266
ssS'src_rockstor_storageadmin_views_share'
p267
(dp268
g6
(dp269
g8
S'src_rockstor_storageadmin_views_share.html'
p270
sg10
S'src/rockstor/storageadmin/views/share'
p271
sg12
g13
(g14
g15
NtRp272
(dp273
g18
I1
sg19
I0
sg20
I172
sg21
I0
sg22
I0
sg23
I172
sg24
I0
sbssg25
S'e;\xa3.\x84\xb5W\x92\xc7\x04\x12\x1d\x9a\x87\xc6\xd7'
p274
ssS'src_rockstor_storageadmin_views_samba'
p275
(dp276
g6
(dp277
g8
S'src_rockstor_storageadmin_views_samba.html'
p278
sg10
S'src/rockstor/storageadmin/views/samba'
p279
sg12
g13
(g14
g15
NtRp280
(dp281
g18
I1
sg19
I0
sg20
I153
sg21
I0
sg22
I0
sg23
I153
sg24
I0
sbssg25
S'\xa8\x86\xbem\x1b\xed\xb0\x95h\x17da\xbd\xa1\xee\xef'
p282
ssS'src_rockstor_storageadmin_views_config_backup'
p283
(dp284
g6
(dp285
g8
S'src_rockstor_storageadmin_views_config_backup.html'
p286
sg10
S'src/rockstor/storageadmin/views/config_backup'
p287
sg12
g13
(g14
g15
NtRp288
(dp289
g18
I1
sg19
I0
sg20
I206
sg21
I0
sg22
I0
sg23
I206
sg24
I0
sbssg25
S'\x98\xae\x1d\x13\x98\x03.!("*\xd2u\xccCm'
p290
ssS'src_rockstor_storageadmin_views_group'
p291
(dp292
g6
(dp293
g8
S'src_rockstor_storageadmin_views_group.html'
p294
sg10
S'src/rockstor/storageadmin/views/group'
p295
sg12
g13
(g14
g15
NtRp296
(dp297
g18
I1
sg19
I0
sg20
I72
sg21
I0
sg22
I0
sg23
I72
sg24
I0
sbssg25
S'1*\xff\xf8[\x1b]\x8a8\x04\xf5\xb7\\SD\x11'
p298
ssS'src_rockstor_storageadmin_views_share_command'
p299
(dp300
g6
(dp301
g8
S'src_rockstor_storageadmin_views_share_command.html'
p302
sg10
S'src/rockstor/storageadmin/views/share_command'
p303
sg12
g13
(g14
g15
NtRp304
(dp305
g18
I1
sg19
I0
sg20
I49
sg21
I0
sg22
I0
sg23
I49
sg24
I0
sbssg25
S'\x1dq?\xe6\xd1.AC\xb1\xa9\x0e\x0f\xfa\xc3\xedn'
p306
ssS'src_rockstor_storageadmin_views_share_acl'
p307
(dp308
g6
(dp309
g8
S'src_rockstor_storageadmin_views_share_acl.html'
p310
sg10
S'src/rockstor/storageadmin/views/share_acl'
p311
sg12
g13
(g14
g15
NtRp312
(dp313
g18
I1
sg19
I0
sg20
I34
sg21
I0
sg22
I0
sg23
I34
sg24
I0
sbssg25
S'\xae\xba(\x9b\x80jF\xf8dn\xb6 \xafl\x04\xcc'
p314
ssS'src_rockstor_storageadmin_views_dashboardconfig'
p315
(dp316
g6
(dp317
g8
S'src_rockstor_storageadmin_views_dashboardconfig.html'
p318
sg10
S'src/rockstor/storageadmin/views/dashboardconfig'
p319
sg12
g13
(g14
g15
NtRp320
(dp321
g18
I1
sg19
I0
sg20
I54
sg21
I0
sg22
I0
sg23
I54
sg24
I0
sbssg25
S'\x9fu\t\xf5\x92\x7f9X\x06\xb6c\xc5;2:\xf0'
p322
ssS'src_rockstor_storageadmin_views_home'
p323
(dp324
g6
(dp325
g8
S'src_rockstor_storageadmin_views_home.html'
p326
sg10
S'src/rockstor/storageadmin/views/home'
p327
sg12
g13
(g14
g15
NtRp328
(dp329
g18
I1
sg19
I0
sg20
I36
sg21
I0
sg22
I0
sg23
I36
sg24
I0
sbssg25
S'\x9fr\xdc`\xc8Cr\xc5\xb1R{\xad\x08\x1c\xec)'
p330
sssS'version'
p331
S'3.7.1'
p332
sS'settings'
p333
S'\x9d\x8a"\x95|\xc8\x9a\x95F\xae\xa6\x93\xab}~N'
p334
sS'format'
p335
I1
s.