(dp1
S'files'
p2
(dp3
S'src_rockstor_storageadmin_views_rockon_id'
p4
(dp5
S'index'
p6
(dp7
S'html_filename'
p8
S'src_rockstor_storageadmin_views_rockon_id.html'
p9
sS'name'
p10
S'src/rockstor/storageadmin/views/rockon_id'
p11
sS'nums'
p12
ccopy_reg
_reconstructor
p13
(ccoverage.results
Numbers
p14
c__builtin__
object
p15
NtRp16
(dp17
S'n_files'
p18
I1
sS'n_branches'
p19
I0
sS'n_statements'
p20
I160
sS'n_excluded'
p21
I0
sS'n_partial_branches'
p22
I0
sS'n_missing'
p23
I160
sS'n_missing_branches'
p24
I0
sbssS'hash'
p25
S'~\x12\xfc\xc9\x99\x80+\x08C\x8d\x94H\x80>\xe1B'
p26
ssS'src_rockstor_storageadmin_views___init__'
p27
(dp28
g6
(dp29
S'html_filename'
p30
S'src_rockstor_storageadmin_views___init__.html'
p31
sS'name'
p32
S'src/rockstor/storageadmin/views/__init__'
p33
sS'nums'
p34
g13
(g14
g15
NtRp35
(dp36
g18
I1
sg19
I0
sg20
I34
sg21
I0
sg22
I0
sg23
I34
sg24
I0
sbssg25
S'1\x19\xb8"\xf4\xc0\xe0\x96y\xbe\xc0\xf9\xe3\x8d\xd3\xdf'
p37
ssS'src_rockstor_storageadmin_views_ug_helpers'
p38
(dp39
g6
(dp40
g8
S'src_rockstor_storageadmin_views_ug_helpers.html'
p41
sg10
S'src/rockstor/storageadmin/views/ug_helpers'
p42
sg12
g13
(g14
g15
NtRp43
(dp44
g18
I1
sg19
I0
sg20
I67
sg21
I0
sg22
I0
sg23
I67
sg24
I0
sbssg25
S'1\xc3\xda\x86\xfap`a\xceK\x9c\xd8\x10K\xa3\xd8'
p45
ssS'src_rockstor_storageadmin_views_command'
p46
(dp47
g6
(dp48
g8
S'src_rockstor_storageadmin_views_command.html'
p49
sg10
S'src/rockstor/storageadmin/views/command'
p50
sg12
g13
(g14
g15
NtRp51
(dp52
g18
I1
sg19
I0
sg20
I190
sg21
I0
sg22
I0
sg23
I190
sg24
I0
sbssg25
S'\xe0D\x10\xa9\xcb\x8c\x02y\xd0A\xda\xd8\xef\xfc\xa3\xbd'
p53
ssS'src_rockstor_storageadmin_views_rockon_utils'
p54
(dp55
g6
(dp56
g8
S'src_rockstor_storageadmin_views_rockon_utils.html'
p57
sg10
S'src/rockstor/storageadmin/views/rockon_utils'
p58
sg12
g13
(g14
g15
NtRp59
(dp60
g18
I1
sg19
I0
sg20
I25
sg21
I0
sg22
I0
sg23
I25
sg24
I0
sbssg25
S'kHd\x96o\xb8\xe2#\xd9{\x9ft\xda\x80\xc5w'
p61
ssS'src_rockstor_storageadmin_views_tls_certificate'
p62
(dp63
g6
(dp64
g8
S'src_rockstor_storageadmin_views_tls_certificate.html'
p65
sg10
S'src/rockstor/storageadmin/views/tls_certificate'
p66
sg12
g13
(g14
g15
NtRp67
(dp68
g18
I1
sg19
I0
sg20
I53
sg21
I0
sg22
I0
sg23
I53
sg24
I0
sbssg25
S'\x8c\xab\x01p*\xf6}0\x91\xd5\x0ez\xef6\xee\x10'
p69
ssS'src_rockstor_storageadmin_views_oauth_app'
p70
(dp71
g6
(dp72
g8
S'src_rockstor_storageadmin_views_oauth_app.html'
p73
sg10
S'src/rockstor/storageadmin/views/oauth_app'
p74
sg12
g13
(g14
g15
NtRp75
(dp76
g18
I1
sg19
I0
sg20
I51
sg21
I0
sg22
I0
sg23
I51
sg24
I0
sbssg25
S'zI-\x8c\x9a\x07F\x9cA\x8b\xed\xc6\x87\x81\xae\x10'
p77
ssS'src_rockstor_storageadmin_views_netatalk'
p78
(dp79
g6
(dp80
g8
S'src_rockstor_storageadmin_views_netatalk.html'
p81
sg10
S'src/rockstor/storageadmin/views/netatalk'
p82
sg12
g13
(g14
g15
NtRp83
(dp84
g18
I1
sg19
I0
sg20
I93
sg21
I0
sg22
I0
sg23
I93
sg24
I0
sbssg25
S'\xa7A\x0b(\x9d\x14\xef\x12e\xa5)P\xd1\x80\xbf '
p85
ssS'src_rockstor_storageadmin_views_clone_helpers'
p86
(dp87
g6
(dp88
g8
S'src_rockstor_storageadmin_views_clone_helpers.html'
p89
sg10
S'src/rockstor/storageadmin/views/clone_helpers'
p90
sg12
g13
(g14
g15
NtRp91
(dp92
g18
I1
sg19
I0
sg20
I31
sg21
I0
sg22
I0
sg23
I31
sg24
I0
sbssg25
S'H\xf6\x04\xa3\x1e4\xbd\xb7\xd5\xcb+U\xefj\xe4\x08'
p93
ssS'src_rockstor_storageadmin_views_rockon_json'
p94
(dp95
g6
(dp96
g8
S'src_rockstor_storageadmin_views_rockon_json.html'
p97
sg10
S'src/rockstor/storageadmin/views/rockon_json'
p98
sg12
g13
(g14
g15
NtRp99
(dp100
g18
I1
sg19
I0
sg20
I10
sg21
I0
sg22
I0
sg23
I10
sg24
I0
sbssg25
S'\xdb&\x14\xd7\x1cP\x82\xa2\x10\xd3TM\r\xa9TP'
p101
ssS'src_rockstor_storageadmin_views_snapshot'
p102
(dp103
g6
(dp104
g8
S'src_rockstor_storageadmin_views_snapshot.html'
p105
sg10
S'src/rockstor/storageadmin/views/snapshot'
p106
sg12
g13
(g14
g15
NtRp107
(dp108
g18
I1
sg19
I0
sg20
I157
sg21
I0
sg22
I0
sg23
I157
sg24
I0
sbssg25
S"}\x1dA\xb5\x14\xba\x92S'\x1d\xccf\xbb\xe4\x0b\xcc"
p109
ssS'src_rockstor_storageadmin_views_user'
p110
(dp111
g6
(dp112
g8
S'src_rockstor_storageadmin_views_user.html'
p113
sg10
S'src/rockstor/storageadmin/views/user'
p114
sg12
g13
(g14
g15
NtRp115
(dp116
g18
I1
sg19
I0
sg20
I216
sg21
I0
sg22
I0
sg23
I216
sg24
I0
sbssg25
S'\x98\xa27"N\xfc\\s\x14\xafR\xec\xab\xc7bF'
p117
ssS'src_rockstor_storageadmin_views_views'
p118
(dp119
g6
(dp120
g8
S'src_rockstor_storageadmin_views_views.html'
p121
sg10
S'src/rockstor/storageadmin/views/views'
p122
sg12
g13
(g14
g15
NtRp123
(dp124
g18
I1
sg19
I0
sg20
I0
sg21
I0
sg22
I0
sg23
I0
sg24
I0
sbssg25
S'{\xd99q\x98)\xfekT\xb8H7M\x1c\x94\xba'
p125
ssS'src_rockstor_storageadmin_views_rockon_helpers'
p126
(dp127
g6
(dp128
g8
S'src_rockstor_storageadmin_views_rockon_helpers.html'
p129
sg10
S'src/rockstor/storageadmin/views/rockon_helpers'
p130
sg12
g13
(g14
g15
NtRp131
(dp132
g18
I1
sg19
I0
sg20
I195
sg21
I0
sg22
I0
sg23
I195
sg24
I0
sbssg25
S"t7\xfb'\xf9B\xeekn\xf25\x91*\x9b\xa5o"
p133
ssS'src_rockstor_storageadmin_views_disk'
p134
(dp135
g6
(dp136
g8
S'src_rockstor_storageadmin_views_disk.html'
p137
sg10
S'src/rockstor/storageadmin/views/disk'
p138
sg12
g13
(g14
g15
NtRp139
(dp140
g18
I1
sg19
I0
sg20
I227
sg21
I0
sg22
I0
sg23
I227
sg24
I0
sbssg25
S'W\x19w\xac\x1b\x1d\r\x8fWs\xeb;$@\xc5\xf2'
p141
ssS'src_rockstor_storageadmin_views_setup_user'
p142
(dp143
g6
(dp144
g8
S'src_rockstor_storageadmin_views_setup_user.html'
p145
sg10
S'src/rockstor/storageadmin/views/setup_user'
p146
sg12
g13
(g14
g15
NtRp147
(dp148
g18
I1
sg19
I0
sg20
I32
sg21
I0
sg22
I0
sg23
I32
sg24
I0
sbssg25
S'P[/\x9dk2\x85o\xfe\xf1\xe5^Z\x89\xfe!'
p149
ssS'src_rockstor_storageadmin_views_update_subscription'
p150
(dp151
g6
(dp152
g8
S'src_rockstor_storageadmin_views_update_subscription.html'
p153
sg10
S'src/rockstor/storageadmin/views/update_subscription'
p154
sg12
g13
(g14
g15
NtRp155
(dp156
g18
I1
sg19
I0
sg20
I68
sg21
I0
sg22
I0
sg23
I68
sg24
I0
sbssg25
S'\xa5u\xf2\x9a\x83\xe6\xac\x9cB}\xeeL1\x9aV\xd1'
p157
ssS'src_rockstor_storageadmin_views_pool_balance'
p158
(dp159
g6
(dp160
g8
S'src_rockstor_storageadmin_views_pool_balance.html'
p161
sg10
S'src/rockstor/storageadmin/views/pool_balance'
p162
sg12
g13
(g14
g15
NtRp163
(dp164
g18
I1
sg19
I0
sg20
I72
sg21
I0
sg22
I0
sg23
I72
sg24
I0
sbssg25
S'\xf3\xef\xfdu\x9f]J\xbf\xfb\xa9(\x8fb\xdeu='
p165
ssS'src_rockstor_storageadmin_views_pool'
p166
(dp167
g6
(dp168
g8
S'src_rockstor_storageadmin_views_pool.html'
p169
sg10
S'src/rockstor/storageadmin/views/pool'
p170
sg12
g13
(g14
g15
NtRp171
(dp172
g18
I1
sg19
I0
sg20
I303
sg21
I0
sg22
I0
sg23
I303
sg24
I0
sbssg25
S'@\xcf4]\xbd\xb3Wt\xcc}6\xe9)\xdc\xc0\xbe'
p173
ssS'src_rockstor_storageadmin_views_pool_scrub'
p174
(dp175
g6
(dp176
g8
S'src_rockstor_storageadmin_views_pool_scrub.html'
p177
sg10
S'src/rockstor/storageadmin/views/pool_scrub'
p178
sg12
g13
(g14
g15
NtRp179
(dp180
g18
I1
sg19
I0
sg20
I58
sg21
I0
sg22
I0
sg23
I58
sg24
I0
sbssg25
S'\xb6\xaa/\xc6H>\x0bD\xfc?Q\x18\xec\xeerr'
p181
ssS'src_rockstor_storageadmin_views_rockon'
p182
(dp183
g6
(dp184
g8
S'src_rockstor_storageadmin_views_rockon.html'
p185
sg10
S'src/rockstor/storageadmin/views/rockon'
p186
sg12
g13
(g14
g15
NtRp187
(dp188
g18
I1
sg19
I0
sg20
I268
sg21
I0
sg22
I0
sg23
I268
sg24
I0
sbssg25
S'\x01\xa1\xd5%C\x8e\xf8kV2\x89\xc9=e*\xed'
p189
ssS'src_rockstor_storageadmin_views_sftp'
p190
(dp191
g6
(dp192
g8
S'src_rockstor_storageadmin_views_sftp.html'
p193
sg10
S'src/rockstor/storageadmin/views/sftp'
p194
sg12
g13
(g14
g15
NtRp195
(dp196
g18
I1
sg19
I0
sg20
I79
sg21
I0
sg22
I0
sg23
I79
sg24
I0
sbssg25
S'\xc4\xb3\x1f\x15K\xb6k\xe8; \xa7\xb9\xdeC\xda\xc1'
p197
ssS'src_rockstor_storageadmin_views_rockon_volume'
p198
(dp199
g6
(dp200
g8
S'src_rockstor_storageadmin_views_rockon_volume.html'
p201
sg10
S'src/rockstor/storageadmin/views/rockon_volume'
p202
sg12
g13
(g14
g15
NtRp203
(dp204
g18
I1
sg19
I0
sg20
I14
sg21
I0
sg22
I0
sg23
I14
sg24
I0
sbssg25
S'\xcfL\xb9\xf0]\x8e\x86\xb5\xd5o\xdaNs\xeb\xf2f'
p205
ssS'src_rockstor_storageadmin_views_network'
p206
(dp207
g6
(dp208
g8
S'src_rockstor_storageadmin_views_network.html'
p209
sg10
S'src/rockstor/storageadmin/views/network'
p210
sg12
g13
(g14
g15
NtRp211
(dp212
g18
I1
sg19
I0
sg20
I268
sg21
I0
sg22
I0
sg23
I268
sg24
I0
sbssg25
S'\xf9\x8eP\xce\x93\xe7`\x00\xe5|\x94\xc3\xbb8w\xab'
p213
ssS'src_rockstor_storageadmin_views_email_client'
p214
(dp215
g6
(dp216
g8
S'src_rockstor_storageadmin_views_email_client.html'
p217
sg10
S'src/rockstor/storageadmin/views/email_client'
p218
sg12
g13
(g14
g15
NtRp219
(dp220
g18
I1
sg19
I0
sg20
I123
sg21
I0
sg22
I0
sg23
I123
sg24
I0
sbssg25
S'\xd9G\xee\x81\xdb[h\xb0\xb3\xaf\xfe\x08\xc5\x01\x12X'
p221
ssS'src_rockstor_storageadmin_views_disk_smart'
p222
(dp223
g6
(dp224
g8
S'src_rockstor_storageadmin_views_disk_smart.html'
p225
sg10
S'src/rockstor/storageadmin/views/disk_smart'
p226
sg12
g13
(g14
g15
NtRp227
(dp228
g18
I1
sg19
I0
sg20
I83
sg21
I0
sg22
I0
sg23
I83
sg24
I0
sbssg25
S'\xb0\xacF\xa2o\x10\x82n9\x07\xec\x04\xed\xe0\xca\xc1'
p229
ssS'src_rockstor_storageadmin_views_pincard'
p230
(dp231
S'index'
p232
(dp233
g30
S'src_rockstor_storageadmin_views_pincard.html'
p234
sg32
S'src/rockstor/storageadmin/views/pincard'
p235
sg34
g13
(g14
g15
NtRp236
(dp237
g18
I1
sg19
I0
sg20
I22
sg21
I0
sg22
I0
sg23
I22
sg24
I0
sbssS'hash'
p238
S'>[\x14\x1e\x1be\x8c\xa6\xe0\xe0\x99\xce\xbf\xb35\xad'
p239
ssS'src_rockstor_storageadmin_views_share_helpers'
p240
(dp241
g6
(dp242
g8
S'src_rockstor_storageadmin_views_share_helpers.html'
p243
sg10
S'src/rockstor/storageadmin/views/share_helpers'
p244
sg12
g13
(g14
g15
NtRp245
(dp246
g18
I1
sg19
I0
sg20
I106
sg21
I0
sg22
I0
sg23
I106
sg24
I0
sbssg25
S'_\x18\xb9\xac\xe4\xe7e\xb3CR\x92=\x00\xfd\x18G'
p247
ssS'src_rockstor_storageadmin_views_rockon_custom_config'
p248
(dp249
g6
(dp250
g8
S'src_rockstor_storageadmin_views_rockon_custom_config.html'
p251
sg10
S'src/rockstor/storageadmin/views/rockon_custom_config'
p252
sg12
g13
(g14
g15
NtRp253
(dp254
g18
I1
sg19
I0
sg20
I13
sg21
I0
sg22
I0
sg23
I13
sg24
I0
sbssg25
S'e\x11\xad\x0cp\x9du\xf64\x8f\x8a\xc0\xfe\x82\x19\x82'
p255
ssS'src_rockstor_storageadmin_views_rockon_port'
p256
(dp257
g6
(dp258
g8
S'src_rockstor_storageadmin_views_rockon_port.html'
p259
sg10
S'src/rockstor/storageadmin/views/rockon_port'
p260
sg12
g13
(g14
g15
NtRp261
(dp262
g18
I1
sg19
I0
sg20
I14
sg21
I0
sg22
I0
sg23
I14
sg24
I0
sbssg25
S"\xd9\x80\xab6\xc5\xf6\x840\xebBi\xff\x0f~\xe3'"
p263
ssS'src_rockstor_storageadmin_views_login'
p264
(dp265
g6
(dp266
g8
S'src_rockstor_storageadmin_views_login.html'
p267
sg10
S'src/rockstor/storageadmin/views/login'
p268
sg12
g13
(g14
g15
NtRp269
(dp270
g18
I1
sg19
I0
sg20
I19
sg21
I0
sg22
I0
sg23
I19
sg24
I0
sbssg25
S'\x98\x1d=q\xb7\x1cuMJ0\xfa\xb7P\xfa\x8c;'
p271
ssS'src_rockstor_storageadmin_views_appliances'
p272
(dp273
g6
(dp274
g8
S'src_rockstor_storageadmin_views_appliances.html'
p275
sg10
S'src/rockstor/storageadmin/views/appliances'
p276
sg12
g13
(g14
g15
NtRp277
(dp278
g18
I1
sg19
I0
sg20
I119
sg21
I0
sg22
I0
sg23
I119
sg24
I0
sbssg25
S'O\x00\x07\x96\xe1\xef\x1b\rjH:r\xc6\x12S\xe5'
p279
ssS'src_rockstor_storageadmin_views_share'
p280
(dp281
g6
(dp282
g8
S'src_rockstor_storageadmin_views_share.html'
p283
sg10
S'src/rockstor/storageadmin/views/share'
p284
sg12
g13
(g14
g15
NtRp285
(dp286
g18
I1
sg19
I0
sg20
I188
sg21
I0
sg22
I0
sg23
I188
sg24
I0
sbssg25
S'\x13\xcbq\xba\x81\xa3B^\x01Y\x81/\x8a\xf0\xdb\xe2'
p287
ssS'src_rockstor_storageadmin_views_samba'
p288
(dp289
g6
(dp290
g8
S'src_rockstor_storageadmin_views_samba.html'
p291
sg10
S'src/rockstor/storageadmin/views/samba'
p292
sg12
g13
(g14
g15
NtRp293
(dp294
g18
I1
sg19
I0
sg20
I159
sg21
I0
sg22
I0
sg23
I159
sg24
I0
sbssg25
S'2*;$&%Q\xc1\x05\x91\xaa\xd9\xdf\xbb1N'
p295
ssS'src_rockstor_storageadmin_views_config_backup'
p296
(dp297
g6
(dp298
g8
S'src_rockstor_storageadmin_views_config_backup.html'
p299
sg10
S'src/rockstor/storageadmin/views/config_backup'
p300
sg12
g13
(g14
g15
NtRp301
(dp302
g18
I1
sg19
I0
sg20
I206
sg21
I0
sg22
I0
sg23
I206
sg24
I0
sbssg25
S'\x98\xae\x1d\x13\x98\x03.!("*\xd2u\xccCm'
p303
ssS'src_rockstor_storageadmin_views_group'
p304
(dp305
g6
(dp306
g8
S'src_rockstor_storageadmin_views_group.html'
p307
sg10
S'src/rockstor/storageadmin/views/group'
p308
sg12
g13
(g14
g15
NtRp309
(dp310
g18
I1
sg19
I0
sg20
I77
sg21
I0
sg22
I0
sg23
I77
sg24
I0
sbssg25
S'\xe5a\xad\xeb \xfa\xc6\x92\x12\x0c>\x17O\xbd\x90\x98'
p311
ssS'src_rockstor_storageadmin_views_rockon_environment'
p312
(dp313
g6
(dp314
g8
S'src_rockstor_storageadmin_views_rockon_environment.html'
p315
sg10
S'src/rockstor/storageadmin/views/rockon_environment'
p316
sg12
g13
(g14
g15
NtRp317
(dp318
g18
I1
sg19
I0
sg20
I14
sg21
I0
sg22
I0
sg23
I14
sg24
I0
sbssg25
S'\xd1R\xff\x9a\xf4\x00\x93\x1b\x91\xe4K}\x03+\xe2\xc6'
p319
ssS'src_rockstor_storageadmin_views_share_command'
p320
(dp321
g6
(dp322
g8
S'src_rockstor_storageadmin_views_share_command.html'
p323
sg10
S'src/rockstor/storageadmin/views/share_command'
p324
sg12
g13
(g14
g15
NtRp325
(dp326
g18
I1
sg19
I0
sg20
I49
sg21
I0
sg22
I0
sg23
I49
sg24
I0
sbssg25
S'\x8b\xd3]J\xcaG\xeb\x8cA\xed\xac$\xa2\x89\xd9o'
p327
ssS'src_rockstor_storageadmin_views_rockon_discourse'
p328
(dp329
g6
(dp330
g8
S'src_rockstor_storageadmin_views_rockon_discourse.html'
p331
sg10
S'src/rockstor/storageadmin/views/rockon_discourse'
p332
sg12
g13
(g14
g15
NtRp333
(dp334
g18
I1
sg19
I0
sg20
I74
sg21
I0
sg22
I0
sg23
I74
sg24
I0
sbssg25
S'\xa4\\nc\xdeB\xc3U}V\x8a@\xff-H\x19'
p335
ssS'src_rockstor_storageadmin_views_share_acl'
p336
(dp337
g6
(dp338
g8
S'src_rockstor_storageadmin_views_share_acl.html'
p339
sg10
S'src/rockstor/storageadmin/views/share_acl'
p340
sg12
g13
(g14
g15
NtRp341
(dp342
g18
I1
sg19
I0
sg20
I34
sg21
I0
sg22
I0
sg23
I34
sg24
I0
sbssg25
S'\xae\xba(\x9b\x80jF\xf8dn\xb6 \xafl\x04\xcc'
p343
ssS'src_rockstor_storageadmin_views_dashboardconfig'
p344
(dp345
g6
(dp346
g8
S'src_rockstor_storageadmin_views_dashboardconfig.html'
p347
sg10
S'src/rockstor/storageadmin/views/dashboardconfig'
p348
sg12
g13
(g14
g15
NtRp349
(dp350
g18
I1
sg19
I0
sg20
I54
sg21
I0
sg22
I0
sg23
I54
sg24
I0
sbssg25
S'\x9fu\t\xf5\x92\x7f9X\x06\xb6c\xc5;2:\xf0'
p351
ssS'src_rockstor_storageadmin_views_nfs_exports'
p352
(dp353
g6
(dp354
g8
S'src_rockstor_storageadmin_views_nfs_exports.html'
p355
sg10
S'src/rockstor/storageadmin/views/nfs_exports'
p356
sg12
g13
(g14
g15
NtRp357
(dp358
g18
I1
sg19
I0
sg20
I216
sg21
I0
sg22
I0
sg23
I216
sg24
I0
sbssg25
S'\x94\x99I\x9f\xf1A^ \xb1\xdbF<\x88\xfd\xb3\x1e'
p359
ssS'src_rockstor_storageadmin_views_home'
p360
(dp361
g6
(dp362
g8
S'src_rockstor_storageadmin_views_home.html'
p363
sg10
S'src/rockstor/storageadmin/views/home'
p364
sg12
g13
(g14
g15
NtRp365
(dp366
g18
I1
sg19
I0
sg20
I40
sg21
I0
sg22
I0
sg23
I40
sg24
I0
sbssg25
S'\x9c\xe4\x7fLNlM\x8d\xf7\xd9\r\xcd\xfb-\xaa]'
p367
sssS'version'
p368
S'3.7.1'
p369
sS'settings'
p370
S'\xed\xd3\x1a\xd3\xf9\x1f\xcc\xe4\xa5\x84\xb9C\t\x0b\x93\x8f'
p371
sS'format'
p372
I1
s.