(dp1
S'files'
p2
(dp3
S'src_rockstor_storageadmin_views_rockon_id'
p4
(dp5
S'index'
p6
(dp7
S'html_filename'
p8
S'src_rockstor_storageadmin_views_rockon_id.html'
p9
sS'name'
p10
S'src/rockstor/storageadmin/views/rockon_id'
p11
sS'nums'
p12
ccopy_reg
_reconstructor
p13
(ccoverage.results
Numbers
p14
c__builtin__
object
p15
NtRp16
(dp17
S'n_files'
p18
I1
sS'n_branches'
p19
I0
sS'n_statements'
p20
I142
sS'n_excluded'
p21
I0
sS'n_partial_branches'
p22
I0
sS'n_missing'
p23
I142
sS'n_missing_branches'
p24
I0
sbssS'hash'
p25
S'GS\x14\x06\xcf`[\x94\xa1s\xdc\xea\x963\xe4\xd4'
p26
ssS'src_rockstor_storageadmin_views___init__'
p27
(dp28
g6
(dp29
g8
S'src_rockstor_storageadmin_views___init__.html'
p30
sg10
S'src/rockstor/storageadmin/views/__init__'
p31
sg12
g13
(g14
g15
NtRp32
(dp33
g18
I1
sg19
I0
sg20
I36
sg21
I0
sg22
I0
sg23
I36
sg24
I0
sbssg25
S'\xbbEQ\xc8!\xe7\xd9\x1c\x13\x88\xe3\x8a\xc0\xa7\xc4\x03'
p34
ssS'src_rockstor_storageadmin_views_ug_helpers'
p35
(dp36
g6
(dp37
S'html_filename'
p38
S'src_rockstor_storageadmin_views_ug_helpers.html'
p39
sS'name'
p40
S'src/rockstor/storageadmin/views/ug_helpers'
p41
sS'nums'
p42
g13
(g14
g15
NtRp43
(dp44
g18
I1
sg19
I0
sg20
I63
sg21
I0
sg22
I0
sg23
I63
sg24
I0
sbssg25
S'\xb4\xa2C\xad-\x11\xbb\xc6k@t>\xefm, '
p45
ssS'src_rockstor_storageadmin_views_adv_nfs_exports'
p46
(dp47
g6
(dp48
g8
S'src_rockstor_storageadmin_views_adv_nfs_exports.html'
p49
sg10
S'src/rockstor/storageadmin/views/adv_nfs_exports'
p50
sg12
g13
(g14
g15
NtRp51
(dp52
g18
I1
sg19
I0
sg20
I44
sg21
I0
sg22
I0
sg23
I44
sg24
I0
sbssg25
S'3\xa64.\xe8S!3k.1\x04<\xf9\xb0\\'
p53
ssS'src_rockstor_storageadmin_views_tls_certificate'
p54
(dp55
g6
(dp56
g8
S'src_rockstor_storageadmin_views_tls_certificate.html'
p57
sg10
S'src/rockstor/storageadmin/views/tls_certificate'
p58
sg12
g13
(g14
g15
NtRp59
(dp60
g18
I1
sg19
I0
sg20
I53
sg21
I0
sg22
I0
sg23
I53
sg24
I0
sbssg25
S"?'TIc\x177\x1c\x98X0\xde\xb9\x0e\x83\xac"
p61
ssS'src_rockstor_storageadmin_views_oauth_app'
p62
(dp63
g6
(dp64
g8
S'src_rockstor_storageadmin_views_oauth_app.html'
p65
sg10
S'src/rockstor/storageadmin/views/oauth_app'
p66
sg12
g13
(g14
g15
NtRp67
(dp68
g18
I1
sg19
I0
sg20
I47
sg21
I0
sg22
I0
sg23
I47
sg24
I0
sbssg25
S'\xab\xd5\xdfi!y{>&\xe40\x16\xd6\xc4>\xb2'
p69
ssS'src_rockstor_storageadmin_views_netatalk'
p70
(dp71
g6
(dp72
S'html_filename'
p73
S'src_rockstor_storageadmin_views_netatalk.html'
p74
sS'name'
p75
S'src/rockstor/storageadmin/views/netatalk'
p76
sS'nums'
p77
g13
(g14
g15
NtRp78
(dp79
g18
I1
sg19
I0
sg20
I94
sg21
I0
sg22
I0
sg23
I94
sg24
I0
sbssg25
S'\x93\xc5|"\x97H\xfbt\xf5\x0c\x14\xa2;\xd2\x90\x10'
p80
ssS'src_rockstor_storageadmin_views_clone_helpers'
p81
(dp82
g6
(dp83
g73
S'src_rockstor_storageadmin_views_clone_helpers.html'
p84
sg75
S'src/rockstor/storageadmin/views/clone_helpers'
p85
sg77
g13
(g14
g15
NtRp86
(dp87
g18
I1
sg19
I0
sg20
I31
sg21
I0
sg22
I0
sg23
I31
sg24
I0
sbssg25
S'H\xf6\x04\xa3\x1e4\xbd\xb7\xd5\xcb+U\xefj\xe4\x08'
p88
ssS'src_rockstor_storageadmin_views_rockon_json'
p89
(dp90
g6
(dp91
g8
S'src_rockstor_storageadmin_views_rockon_json.html'
p92
sg10
S'src/rockstor/storageadmin/views/rockon_json'
p93
sg12
g13
(g14
g15
NtRp94
(dp95
g18
I1
sg19
I0
sg20
I10
sg21
I0
sg22
I0
sg23
I10
sg24
I0
sbssg25
S'\xdb&\x14\xd7\x1cP\x82\xa2\x10\xd3TM\r\xa9TP'
p96
ssS'src_rockstor_storageadmin_views_snapshot'
p97
(dp98
g6
(dp99
g73
S'src_rockstor_storageadmin_views_snapshot.html'
p100
sg75
S'src/rockstor/storageadmin/views/snapshot'
p101
sg77
g13
(g14
g15
NtRp102
(dp103
g18
I1
sg19
I0
sg20
I186
sg21
I0
sg22
I0
sg23
I186
sg24
I0
sbssg25
S'}F,\xe30\xba\xce\x7f\x15\x01\xb7\xd8\xd0r\x9a\x83'
p104
ssS'src_rockstor_storageadmin_views_pool_import'
p105
(dp106
g6
(dp107
g8
S'src_rockstor_storageadmin_views_pool_import.html'
p108
sg10
S'src/rockstor/storageadmin/views/pool_import'
p109
sg12
g13
(g14
g15
NtRp110
(dp111
g18
I1
sg19
I0
sg20
I70
sg21
I0
sg22
I0
sg23
I70
sg24
I0
sbssg25
S'\x91\xaa\x7f2\xef\xcb\xf3M\xec\xacoM%C\x12\xda'
p112
ssS'src_rockstor_storageadmin_views_user'
p113
(dp114
g6
(dp115
g8
S'src_rockstor_storageadmin_views_user.html'
p116
sg10
S'src/rockstor/storageadmin/views/user'
p117
sg12
g13
(g14
g15
NtRp118
(dp119
g18
I1
sg19
I0
sg20
I206
sg21
I0
sg22
I0
sg23
I206
sg24
I0
sbssg25
S"7toH_\xac\xa5\xf0w\x10\xd7.\xa0'\x1a1"
p120
ssS'src_rockstor_storageadmin_views_views'
p121
(dp122
g6
(dp123
g8
S'src_rockstor_storageadmin_views_views.html'
p124
sg10
S'src/rockstor/storageadmin/views/views'
p125
sg12
g13
(g14
g15
NtRp126
(dp127
g18
I1
sg19
I0
sg20
I0
sg21
I0
sg22
I0
sg23
I0
sg24
I0
sbssg25
S'{\xd99q\x98)\xfekT\xb8H7M\x1c\x94\xba'
p128
ssS'src_rockstor_storageadmin_views_rockon_helpers'
p129
(dp130
g6
(dp131
g73
S'src_rockstor_storageadmin_views_rockon_helpers.html'
p132
sg75
S'src/rockstor/storageadmin/views/rockon_helpers'
p133
sg77
g13
(g14
g15
NtRp134
(dp135
g18
I1
sg19
I0
sg20
I195
sg21
I0
sg22
I0
sg23
I195
sg24
I0
sbssg25
S'1\xcbb\xb8\x87\x1b\xeak\xbap\\\x0f.\x0e\x91\x12'
p136
ssS'src_rockstor_storageadmin_views_share_iscsi'
p137
(dp138
g6
(dp139
g73
S'src_rockstor_storageadmin_views_share_iscsi.html'
p140
sg75
S'src/rockstor/storageadmin/views/share_iscsi'
p141
sg77
g13
(g14
g15
NtRp142
(dp143
g18
I1
sg19
I0
sg20
I58
sg21
I0
sg22
I0
sg23
I58
sg24
I0
sbssg25
S'\x80\x1e;\xe3\x06\x87\xad\x99\xb9\x86\xbd\x00\xbc#=R'
p144
ssS'src_rockstor_storageadmin_views_setup_user'
p145
(dp146
g6
(dp147
g8
S'src_rockstor_storageadmin_views_setup_user.html'
p148
sg10
S'src/rockstor/storageadmin/views/setup_user'
p149
sg12
g13
(g14
g15
NtRp150
(dp151
g18
I1
sg19
I0
sg20
I32
sg21
I0
sg22
I0
sg23
I32
sg24
I0
sbssg25
S'P[/\x9dk2\x85o\xfe\xf1\xe5^Z\x89\xfe!'
p152
ssS'src_rockstor_storageadmin_views_pool_balance'
p153
(dp154
g6
(dp155
g73
S'src_rockstor_storageadmin_views_pool_balance.html'
p156
sg75
S'src/rockstor/storageadmin/views/pool_balance'
p157
sg77
g13
(g14
g15
NtRp158
(dp159
g18
I1
sg19
I0
sg20
I67
sg21
I0
sg22
I0
sg23
I67
sg24
I0
sbssg25
S'\xbe\x84\x88\xad\xf3\xc3\xa6\xd5\xac\x8b<\x12\x0f\x86\xeah'
p160
ssS'src_rockstor_storageadmin_views_pool'
p161
(dp162
g6
(dp163
g73
S'src_rockstor_storageadmin_views_pool.html'
p164
sg75
S'src/rockstor/storageadmin/views/pool'
p165
sg77
g13
(g14
g15
NtRp166
(dp167
g18
I1
sg19
I0
sg20
I281
sg21
I0
sg22
I0
sg23
I281
sg24
I0
sbssg25
S'4\x00YC)\xbf=\x89\xb4\xfeT\x99d0t\xc7'
p168
ssS'src_rockstor_storageadmin_views_pool_scrub'
p169
(dp170
g6
(dp171
g73
S'src_rockstor_storageadmin_views_pool_scrub.html'
p172
sg75
S'src/rockstor/storageadmin/views/pool_scrub'
p173
sg77
g13
(g14
g15
NtRp174
(dp175
g18
I1
sg19
I0
sg20
I58
sg21
I0
sg22
I0
sg23
I58
sg24
I0
sbssg25
S'@\xd0\xbc\xec\x9d\x9a\x9ev\xbe\xc0\xc7\xe3.\xbc\x94\xb5'
p176
ssS'src_rockstor_storageadmin_views_email'
p177
(dp178
g6
(dp179
g8
S'src_rockstor_storageadmin_views_email.html'
p180
sg10
S'src/rockstor/storageadmin/views/email'
p181
sg12
g13
(g14
g15
NtRp182
(dp183
g18
I1
sg19
I0
sg20
I79
sg21
I0
sg22
I0
sg23
I79
sg24
I0
sbssg25
S"\x95\x86R\x93\x8b>\x17\x16\x02b\xb2'h\xeb\xa3\t"
p184
ssS'src_rockstor_storageadmin_views_rockon'
p185
(dp186
g6
(dp187
g8
S'src_rockstor_storageadmin_views_rockon.html'
p188
sg10
S'src/rockstor/storageadmin/views/rockon'
p189
sg12
g13
(g14
g15
NtRp190
(dp191
g18
I1
sg19
I0
sg20
I166
sg21
I0
sg22
I0
sg23
I166
sg24
I0
sbssg25
S'\x0b\xa1\xc94\x1e@xG\x90\xfd\x15{d\x19\xe34'
p192
ssS'src_rockstor_storageadmin_views_sftp'
p193
(dp194
g6
(dp195
g8
S'src_rockstor_storageadmin_views_sftp.html'
p196
sg10
S'src/rockstor/storageadmin/views/sftp'
p197
sg12
g13
(g14
g15
NtRp198
(dp199
g18
I1
sg19
I0
sg20
I79
sg21
I0
sg22
I0
sg23
I79
sg24
I0
sbssg25
S'\xc4\xb3\x1f\x15K\xb6k\xe8; \xa7\xb9\xdeC\xda\xc1'
p200
ssS'src_rockstor_storageadmin_views_rockon_volume'
p201
(dp202
g6
(dp203
g8
S'src_rockstor_storageadmin_views_rockon_volume.html'
p204
sg10
S'src/rockstor/storageadmin/views/rockon_volume'
p205
sg12
g13
(g14
g15
NtRp206
(dp207
g18
I1
sg19
I0
sg20
I14
sg21
I0
sg22
I0
sg23
I14
sg24
I0
sbssg25
S'\xe1+l\xe8\xce\xe2\xf2\xd8]\xc5\x9d6\x86C\x86Z'
p208
ssS'src_rockstor_storageadmin_views_network'
p209
(dp210
g6
(dp211
g8
S'src_rockstor_storageadmin_views_network.html'
p212
sg10
S'src/rockstor/storageadmin/views/network'
p213
sg12
g13
(g14
g15
NtRp214
(dp215
g18
I1
sg19
I0
sg20
I122
sg21
I0
sg22
I0
sg23
I122
sg24
I0
sbssg25
S'\xe2\xd0\xf7t\x1e\xa6\xf9L\x99\x1a^\x97\xe3&\xd4$'
p216
ssS'src_rockstor_storageadmin_views_command'
p217
(dp218
g6
(dp219
g73
S'src_rockstor_storageadmin_views_command.html'
p220
sg75
S'src/rockstor/storageadmin/views/command'
p221
sg77
g13
(g14
g15
NtRp222
(dp223
g18
I1
sg19
I0
sg20
I182
sg21
I0
sg22
I0
sg23
I182
sg24
I0
sbssg25
S'P\x96{\xfb\xa5>N\x06\xaf5\xa8l\xae\xad\xb4\xb8'
p224
ssS'src_rockstor_storageadmin_views_support'
p225
(dp226
g6
(dp227
g8
S'src_rockstor_storageadmin_views_support.html'
p228
sg10
S'src/rockstor/storageadmin/views/support'
p229
sg12
g13
(g14
g15
NtRp230
(dp231
g18
I1
sg19
I0
sg20
I74
sg21
I0
sg22
I0
sg23
I74
sg24
I0
sbssg25
S'P\xea\xcdP\x0c\xf5\x9e\xda^\x92\xf4\xbd\xff\x03=\xef'
p232
ssS'src_rockstor_storageadmin_views_disk'
p233
(dp234
g6
(dp235
g73
S'src_rockstor_storageadmin_views_disk.html'
p236
sg75
S'src/rockstor/storageadmin/views/disk'
p237
sg77
g13
(g14
g15
NtRp238
(dp239
g18
I1
sg19
I0
sg20
I162
sg21
I0
sg22
I0
sg23
I162
sg24
I0
sbssg25
S'\x10\xc8v\xbemIu~\xd5 \xe6"\x03\x0cG\x84'
p240
ssS'src_rockstor_storageadmin_views_share_helpers'
p241
(dp242
g6
(dp243
g73
S'src_rockstor_storageadmin_views_share_helpers.html'
p244
sg75
S'src/rockstor/storageadmin/views/share_helpers'
p245
sg77
g13
(g14
g15
NtRp246
(dp247
g18
I1
sg19
I0
sg20
I34
sg21
I0
sg22
I0
sg23
I34
sg24
I0
sbssg25
S'\x0c\x96\x89G{z\xe2\xa8\xd3\x95\xc3m\x04R\xd3\xb0'
p248
ssS'src_rockstor_storageadmin_views_rockon_custom_config'
p249
(dp250
g6
(dp251
g8
S'src_rockstor_storageadmin_views_rockon_custom_config.html'
p252
sg10
S'src/rockstor/storageadmin/views/rockon_custom_config'
p253
sg12
g13
(g14
g15
NtRp254
(dp255
g18
I1
sg19
I0
sg20
I13
sg21
I0
sg22
I0
sg23
I13
sg24
I0
sbssg25
S"\x1f5m\x11\xca O\x06'>\x80\n\xe8\xc1\x15B"
p256
ssS'src_rockstor_storageadmin_views_appliances'
p257
(dp258
g6
(dp259
g8
S'src_rockstor_storageadmin_views_appliances.html'
p260
sg10
S'src/rockstor/storageadmin/views/appliances'
p261
sg12
g13
(g14
g15
NtRp262
(dp263
g18
I1
sg19
I0
sg20
I114
sg21
I0
sg22
I0
sg23
I114
sg24
I0
sbssg25
S'\x95\x93\xab(\x11\xdf\xf8X\xc4\x8e\xee:\x1f\xfd\x08e'
p264
ssS'src_rockstor_storageadmin_views_share_nfs'
p265
(dp266
g6
(dp267
g73
S'src_rockstor_storageadmin_views_share_nfs.html'
p268
sg75
S'src/rockstor/storageadmin/views/share_nfs'
p269
sg77
g13
(g14
g15
NtRp270
(dp271
g18
I1
sg19
I0
sg20
I81
sg21
I0
sg22
I0
sg23
I81
sg24
I0
sbssg25
S'\xde\xb2\t2\xa4S6;\\\xcal\x00\x08PT\xc1'
p272
ssS'src_rockstor_storageadmin_views_rockon_port'
p273
(dp274
g6
(dp275
g8
S'src_rockstor_storageadmin_views_rockon_port.html'
p276
sg10
S'src/rockstor/storageadmin/views/rockon_port'
p277
sg12
g13
(g14
g15
NtRp278
(dp279
g18
I1
sg19
I0
sg20
I14
sg21
I0
sg22
I0
sg23
I14
sg24
I0
sbssg25
S'\xce\x1a\x1b\xe2\x8b\x08\xc8W~\x92\xbcD\xe8\x13\xd7h'
p280
ssS'src_rockstor_storageadmin_views_login'
p281
(dp282
g6
(dp283
g8
S'src_rockstor_storageadmin_views_login.html'
p284
sg10
S'src/rockstor/storageadmin/views/login'
p285
sg12
g13
(g14
g15
NtRp286
(dp287
g18
I1
sg19
I0
sg20
I19
sg21
I0
sg22
I0
sg23
I19
sg24
I0
sbssg25
S'\x98\x1d=q\xb7\x1cuMJ0\xfa\xb7P\xfa\x8c;'
p288
ssS'src_rockstor_storageadmin_views_disk_smart'
p289
(dp290
g6
(dp291
g73
S'src_rockstor_storageadmin_views_disk_smart.html'
p292
sg75
S'src/rockstor/storageadmin/views/disk_smart'
p293
sg77
g13
(g14
g15
NtRp294
(dp295
g18
I1
sg19
I0
sg20
I86
sg21
I0
sg22
I0
sg23
I86
sg24
I0
sbssg25
S"(k#\x9flz'\x81\xde(D\xf1\xd9\x00H\xf0"
p296
ssS'src_rockstor_storageadmin_views_dashboardconfig'
p297
(dp298
g6
(dp299
g8
S'src_rockstor_storageadmin_views_dashboardconfig.html'
p300
sg10
S'src/rockstor/storageadmin/views/dashboardconfig'
p301
sg12
g13
(g14
g15
NtRp302
(dp303
g18
I1
sg19
I0
sg20
I54
sg21
I0
sg22
I0
sg23
I54
sg24
I0
sbssg25
S'\x9fu\t\xf5\x92\x7f9X\x06\xb6c\xc5;2:\xf0'
p304
ssS'src_rockstor_storageadmin_views_nfs_helpers'
p305
(dp306
g6
(dp307
g73
S'src_rockstor_storageadmin_views_nfs_helpers.html'
p308
sg75
S'src/rockstor/storageadmin/views/nfs_helpers'
p309
sg77
g13
(g14
g15
NtRp310
(dp311
g18
I1
sg19
I0
sg20
I75
sg21
I0
sg22
I0
sg23
I75
sg24
I0
sbssg25
S'\xcf\xed\xd6\x0bzYY\xe8EW\x11\xc4\x99\xbb\x94\xae'
p312
ssS'src_rockstor_storageadmin_views_share'
p313
(dp314
g6
(dp315
g73
S'src_rockstor_storageadmin_views_share.html'
p316
sg75
S'src/rockstor/storageadmin/views/share'
p317
sg77
g13
(g14
g15
NtRp318
(dp319
g18
I1
sg19
I0
sg20
I214
sg21
I0
sg22
I0
sg23
I214
sg24
I0
sbssg25
S'\x94\x04\xe4\x98\x93\x9ft\x95\xd8/;-\xd3\x16\\\xf3'
p320
ssS'src_rockstor_storageadmin_views_samba'
p321
(dp322
g6
(dp323
g73
S'src_rockstor_storageadmin_views_samba.html'
p324
sg75
S'src/rockstor/storageadmin/views/samba'
p325
sg77
g13
(g14
g15
NtRp326
(dp327
g18
I1
sg19
I0
sg20
I146
sg21
I0
sg22
I0
sg23
I146
sg24
I0
sbssg25
S'\xd6\xde\x9e\x0e)\xff\x94\xe3\x04I\\\\(\xd6%V'
p328
ssS'src_rockstor_storageadmin_views_config_backup'
p329
(dp330
g6
(dp331
g8
S'src_rockstor_storageadmin_views_config_backup.html'
p332
sg10
S'src/rockstor/storageadmin/views/config_backup'
p333
sg12
g13
(g14
g15
NtRp334
(dp335
g18
I1
sg19
I0
sg20
I206
sg21
I0
sg22
I0
sg23
I206
sg24
I0
sbssg25
S'\x86\x02Nq\x9c\x9a\t\x14\xc8\x95\xe4N\xb8bgq'
p336
ssS'src_rockstor_storageadmin_views_group'
p337
(dp338
g6
(dp339
g8
S'src_rockstor_storageadmin_views_group.html'
p340
sg10
S'src/rockstor/storageadmin/views/group'
p341
sg12
g13
(g14
g15
NtRp342
(dp343
g18
I1
sg19
I0
sg20
I72
sg21
I0
sg22
I0
sg23
I72
sg24
I0
sbssg25
S'1*\xff\xf8[\x1b]\x8a8\x04\xf5\xb7\\SD\x11'
p344
ssS'src_rockstor_storageadmin_views_share_command'
p345
(dp346
g6
(dp347
g73
S'src_rockstor_storageadmin_views_share_command.html'
p348
sg75
S'src/rockstor/storageadmin/views/share_command'
p349
sg77
g13
(g14
g15
NtRp350
(dp351
g18
I1
sg19
I0
sg20
I49
sg21
I0
sg22
I0
sg23
I49
sg24
I0
sbssg25
S'\x1dq?\xe6\xd1.AC\xb1\xa9\x0e\x0f\xfa\xc3\xedn'
p352
ssS'src_rockstor_storageadmin_views_share_acl'
p353
(dp354
g6
(dp355
g73
S'src_rockstor_storageadmin_views_share_acl.html'
p356
sg75
S'src/rockstor/storageadmin/views/share_acl'
p357
sg77
g13
(g14
g15
NtRp358
(dp359
g18
I1
sg19
I0
sg20
I34
sg21
I0
sg22
I0
sg23
I34
sg24
I0
sbssg25
S'\xae\xba(\x9b\x80jF\xf8dn\xb6 \xafl\x04\xcc'
p360
ssS'src_rockstor_storageadmin_views_nfs_exports'
p361
(dp362
g6
(dp363
g73
S'src_rockstor_storageadmin_views_nfs_exports.html'
p364
sg75
S'src/rockstor/storageadmin/views/nfs_exports'
p365
sg77
g13
(g14
g15
NtRp366
(dp367
g18
I1
sg19
I0
sg20
I107
sg21
I0
sg22
I0
sg23
I107
sg24
I0
sbssg25
S'\x9aZ\x97}\xcc~\x13\xf1\n\xf9\xc9\xaf\x11\xe6\xb8?'
p368
ssS'src_rockstor_storageadmin_views_home'
p369
(dp370
g6
(dp371
g8
S'src_rockstor_storageadmin_views_home.html'
p372
sg10
S'src/rockstor/storageadmin/views/home'
p373
sg12
g13
(g14
g15
NtRp374
(dp375
g18
I1
sg19
I0
sg20
I36
sg21
I0
sg22
I0
sg23
I36
sg24
I0
sbssg25
S'8\xc1q.\x93\xe3Y\xcf\x15Z\xc3\xcfa\x91\xb4\x11'
p376
sssS'version'
p377
S'3.7.1'
p378
sS'settings'
p379
S'\xb2\xb5\xd8\xd5\xbfA\xafw\xe7-\xf7k\xa4\xb0\x1b.'
p380
sS'format'
p381
I1
s.