(dp1
S'files'
p2
(dp3
S'src_rockstor_storageadmin_views_rockon_id'
p4
(dp5
S'index'
p6
(dp7
S'html_filename'
p8
S'src_rockstor_storageadmin_views_rockon_id.html'
p9
sS'name'
p10
S'src/rockstor/storageadmin/views/rockon_id'
p11
sS'nums'
p12
ccopy_reg
_reconstructor
p13
(ccoverage.results
Numbers
p14
c__builtin__
object
p15
NtRp16
(dp17
S'n_files'
p18
I1
sS'n_branches'
p19
I0
sS'n_statements'
p20
I142
sS'n_excluded'
p21
I0
sS'n_partial_branches'
p22
I0
sS'n_missing'
p23
I142
sS'n_missing_branches'
p24
I0
sbssS'hash'
p25
S'GS\x14\x06\xcf`[\x94\xa1s\xdc\xea\x963\xe4\xd4'
p26
ssS'src_rockstor_storageadmin_views___init__'
p27
(dp28
g6
(dp29
g8
S'src_rockstor_storageadmin_views___init__.html'
p30
sg10
S'src/rockstor/storageadmin/views/__init__'
p31
sg12
g13
(g14
g15
NtRp32
(dp33
g18
I1
sg19
I0
sg20
I33
sg21
I0
sg22
I0
sg23
I8
sg24
I0
sbssg25
S'\xea\xe3\x1e3up\xb7\x95\x00\xf49\xf4\x04s\x18P'
p34
ssS'src_rockstor_storageadmin_views_ug_helpers'
p35
(dp36
g6
(dp37
g8
S'src_rockstor_storageadmin_views_ug_helpers.html'
p38
sg10
S'src/rockstor/storageadmin/views/ug_helpers'
p39
sg12
g13
(g14
g15
NtRp40
(dp41
g18
I1
sg19
I0
sg20
I63
sg21
I0
sg22
I0
sg23
I57
sg24
I0
sbssg25
S'\xeb\x07m\x0c~i\xa82\x999U\x84\xa9\xb7\xab\xcb'
p42
ssS'src_rockstor_storageadmin_views_command'
p43
(dp44
g6
(dp45
g8
S'src_rockstor_storageadmin_views_command.html'
p46
sg10
S'src/rockstor/storageadmin/views/command'
p47
sg12
g13
(g14
g15
NtRp48
(dp49
g18
I1
sg19
I0
sg20
I178
sg21
I0
sg22
I0
sg23
I152
sg24
I0
sbssg25
S'\x93\xd9\x96#d\x86,\xe6\xc9^\xdb\xcf\xff\xe8\xdfX'
p50
ssS'src_rockstor_storageadmin_views_tls_certificate'
p51
(dp52
g6
(dp53
g8
S'src_rockstor_storageadmin_views_tls_certificate.html'
p54
sg10
S'src/rockstor/storageadmin/views/tls_certificate'
p55
sg12
g13
(g14
g15
NtRp56
(dp57
g18
I1
sg19
I0
sg20
I53
sg21
I0
sg22
I0
sg23
I35
sg24
I0
sbssg25
S'#\xeb[\x90\x1f\xb65\xd6\x0b\xeb}\x97\x8e\x85S\x82'
p58
ssS'src_rockstor_storageadmin_views_oauth_app'
p59
(dp60
g6
(dp61
g8
S'src_rockstor_storageadmin_views_oauth_app.html'
p62
sg10
S'src/rockstor/storageadmin/views/oauth_app'
p63
sg12
g13
(g14
g15
NtRp64
(dp65
g18
I1
sg19
I0
sg20
I51
sg21
I0
sg22
I0
sg23
I37
sg24
I0
sbssg25
S'\x8c\xa7Ff\xe9us5b\xed,2\xc7\x88{\xf7'
p66
ssS'src_rockstor_storageadmin_views_netatalk'
p67
(dp68
g6
(dp69
g8
S'src_rockstor_storageadmin_views_netatalk.html'
p70
sg10
S'src/rockstor/storageadmin/views/netatalk'
p71
sg12
g13
(g14
g15
NtRp72
(dp73
g18
I1
sg19
I0
sg20
I93
sg21
I0
sg22
I0
sg23
I68
sg24
I0
sbssg25
S'\xe0)\x1fM,\xc5\xe7\x8bvAEl\xb1\xf3\xe5b'
p74
ssS'src_rockstor_storageadmin_views_clone_helpers'
p75
(dp76
g6
(dp77
g8
S'src_rockstor_storageadmin_views_clone_helpers.html'
p78
sg10
S'src/rockstor/storageadmin/views/clone_helpers'
p79
sg12
g13
(g14
g15
NtRp80
(dp81
g18
I1
sg19
I0
sg20
I31
sg21
I0
sg22
I0
sg23
I23
sg24
I0
sbssg25
S'\x07\x18\x1d\x01\x19s\xd9\x9f/\xe5\xe9\xb4P\x80\xd2m'
p82
ssS'src_rockstor_storageadmin_views_rockon_json'
p83
(dp84
g6
(dp85
g8
S'src_rockstor_storageadmin_views_rockon_json.html'
p86
sg10
S'src/rockstor/storageadmin/views/rockon_json'
p87
sg12
g13
(g14
g15
NtRp88
(dp89
g18
I1
sg19
I0
sg20
I10
sg21
I0
sg22
I0
sg23
I10
sg24
I0
sbssg25
S'\xdb&\x14\xd7\x1cP\x82\xa2\x10\xd3TM\r\xa9TP'
p90
ssS'src_rockstor_storageadmin_views_snapshot'
p91
(dp92
g6
(dp93
g8
S'src_rockstor_storageadmin_views_snapshot.html'
p94
sg10
S'src/rockstor/storageadmin/views/snapshot'
p95
sg12
g13
(g14
g15
NtRp96
(dp97
g18
I1
sg19
I0
sg20
I155
sg21
I0
sg22
I0
sg23
I127
sg24
I0
sbssg25
S'n\xb1K\x94\xf2\xa6\xd3@Q\x86\x1a\xb92\x8b\x92<'
p98
ssS'src_rockstor_storageadmin_views_user'
p99
(dp100
g6
(dp101
g8
S'src_rockstor_storageadmin_views_user.html'
p102
sg10
S'src/rockstor/storageadmin/views/user'
p103
sg12
g13
(g14
g15
NtRp104
(dp105
g18
I1
sg19
I0
sg20
I214
sg21
I0
sg22
I0
sg23
I186
sg24
I0
sbssg25
S'\xb9\rid\xc2%$M\xe3\x05>w\xe12\xc6\xa0'
p106
ssS'src_rockstor_storageadmin_views_views'
p107
(dp108
g6
(dp109
g8
S'src_rockstor_storageadmin_views_views.html'
p110
sg10
S'src/rockstor/storageadmin/views/views'
p111
sg12
g13
(g14
g15
NtRp112
(dp113
g18
I1
sg19
I0
sg20
I0
sg21
I0
sg22
I0
sg23
I0
sg24
I0
sbssg25
S'{\xd99q\x98)\xfekT\xb8H7M\x1c\x94\xba'
p114
ssS'src_rockstor_storageadmin_views_rockon_helpers'
p115
(dp116
g6
(dp117
g8
S'src_rockstor_storageadmin_views_rockon_helpers.html'
p118
sg10
S'src/rockstor/storageadmin/views/rockon_helpers'
p119
sg12
g13
(g14
g15
NtRp120
(dp121
g18
I1
sg19
I0
sg20
I196
sg21
I0
sg22
I0
sg23
I181
sg24
I0
sbssg25
S'\xc2l\xba.bP\x99\xdaG[3\\\x9f\\9?'
p122
ssS'src_rockstor_storageadmin_views_disk'
p123
(dp124
g6
(dp125
g8
S'src_rockstor_storageadmin_views_disk.html'
p126
sg10
S'src/rockstor/storageadmin/views/disk'
p127
sg12
g13
(g14
g15
NtRp128
(dp129
g18
I1
sg19
I0
sg20
I185
sg21
I0
sg22
I0
sg23
I148
sg24
I0
sbssg25
S'\x8f.\x91\xbf\x97H\xdee\xacD\xb8\x8e\xb0n\xb0\xa8'
p130
ssS'src_rockstor_storageadmin_views_setup_user'
p131
(dp132
g6
(dp133
g8
S'src_rockstor_storageadmin_views_setup_user.html'
p134
sg10
S'src/rockstor/storageadmin/views/setup_user'
p135
sg12
g13
(g14
g15
NtRp136
(dp137
g18
I1
sg19
I0
sg20
I32
sg21
I0
sg22
I0
sg23
I20
sg24
I0
sbssg25
S'\xec\x94\x84\x1a\x9aM2\xb5p\xca\xa2\x96\x95\x1cq\n'
p138
ssS'src_rockstor_storageadmin_views_update_subscription'
p139
(dp140
g6
(dp141
g8
S'src_rockstor_storageadmin_views_update_subscription.html'
p142
sg10
S'src/rockstor/storageadmin/views/update_subscription'
p143
sg12
g13
(g14
g15
NtRp144
(dp145
g18
I1
sg19
I0
sg20
I67
sg21
I0
sg22
I0
sg23
I67
sg24
I0
sbssg25
S'T\xa6\xe6h\x91\xd0Q\x1d\x9f\x97\xa2\xb2\xc9\xbb\xd8\xbd'
p146
ssS'src_rockstor_storageadmin_views_pool_balance'
p147
(dp148
g6
(dp149
g8
S'src_rockstor_storageadmin_views_pool_balance.html'
p150
sg10
S'src/rockstor/storageadmin/views/pool_balance'
p151
sg12
g13
(g14
g15
NtRp152
(dp153
g18
I1
sg19
I0
sg20
I67
sg21
I0
sg22
I0
sg23
I47
sg24
I0
sbssg25
S'9x\xa8\xcf\x0f\xaa\xf9\xbf\x81\xed\xc1TJ\xf8\xff='
p154
ssS'src_rockstor_storageadmin_views_pool'
p155
(dp156
g6
(dp157
g8
S'src_rockstor_storageadmin_views_pool.html'
p158
sg10
S'src/rockstor/storageadmin/views/pool'
p159
sg12
g13
(g14
g15
NtRp160
(dp161
g18
I1
sg19
I0
sg20
I294
sg21
I0
sg22
I0
sg23
I263
sg24
I0
sbssg25
S'K\xb8J0\x11Gb\xfb)\xc4\xb9\xde(\xfb\xb5\xa9'
p162
ssS'src_rockstor_storageadmin_views_pool_scrub'
p163
(dp164
g6
(dp165
g8
S'src_rockstor_storageadmin_views_pool_scrub.html'
p166
sg10
S'src/rockstor/storageadmin/views/pool_scrub'
p167
sg12
g13
(g14
g15
NtRp168
(dp169
g18
I1
sg19
I0
sg20
I58
sg21
I0
sg22
I0
sg23
I41
sg24
I0
sbssg25
S'\x9a\xef\xa4\x9f\x7f\xb4\xf4\xbeo\xca\x8e\xbeG\xd1N\xae'
p170
ssS'src_rockstor_storageadmin_views_rockon'
p171
(dp172
g6
(dp173
S'html_filename'
p174
S'src_rockstor_storageadmin_views_rockon.html'
p175
sS'name'
p176
S'src/rockstor/storageadmin/views/rockon'
p177
sS'nums'
p178
g13
(g14
g15
NtRp179
(dp180
g18
I1
sg19
I0
sg20
I210
sg21
I0
sg22
I0
sg23
I201
sg24
I0
sbssg25
S"\xa7#\x11\xdf\xad\x03\xfd<\xb38\x94\xa6\x99'\x9a\xd2"
p181
ssS'src_rockstor_storageadmin_views_sftp'
p182
(dp183
g6
(dp184
g8
S'src_rockstor_storageadmin_views_sftp.html'
p185
sg10
S'src/rockstor/storageadmin/views/sftp'
p186
sg12
g13
(g14
g15
NtRp187
(dp188
g18
I1
sg19
I0
sg20
I79
sg21
I0
sg22
I0
sg23
I58
sg24
I0
sbssg25
S'\xb9\xf7gA\x0f\x0b\xa9\xe0\xf5\x89\xa2\xf0V\xde\x82\xf6'
p189
ssS'src_rockstor_storageadmin_views_rockon_volume'
p190
(dp191
g6
(dp192
g8
S'src_rockstor_storageadmin_views_rockon_volume.html'
p193
sg10
S'src/rockstor/storageadmin/views/rockon_volume'
p194
sg12
g13
(g14
g15
NtRp195
(dp196
g18
I1
sg19
I0
sg20
I14
sg21
I0
sg22
I0
sg23
I14
sg24
I0
sbssg25
S'\xe1+l\xe8\xce\xe2\xf2\xd8]\xc5\x9d6\x86C\x86Z'
p197
ssS'src_rockstor_storageadmin_views_network'
p198
(dp199
g6
(dp200
g8
S'src_rockstor_storageadmin_views_network.html'
p201
sg10
S'src/rockstor/storageadmin/views/network'
p202
sg12
g13
(g14
g15
NtRp203
(dp204
g18
I1
sg19
I0
sg20
I156
sg21
I0
sg22
I0
sg23
I125
sg24
I0
sbssg25
S'\x9f\x94\x8e\x02\xa0B\x9e\xd3\xce\r\xb4\xf3L\xbe\x8f\x00'
p205
ssS'src_rockstor_storageadmin_views_email_client'
p206
(dp207
g6
(dp208
g8
S'src_rockstor_storageadmin_views_email_client.html'
p209
sg10
S'src/rockstor/storageadmin/views/email_client'
p210
sg12
g13
(g14
g15
NtRp211
(dp212
g18
I1
sg19
I0
sg20
I109
sg21
I0
sg22
I0
sg23
I109
sg24
I0
sbssg25
S"\x8f\x05`\x18fASf\x07\x82\xcb\xfd\xc8\x83T'"
p213
ssS'src_rockstor_storageadmin_views_disk_smart'
p214
(dp215
g6
(dp216
g8
S'src_rockstor_storageadmin_views_disk_smart.html'
p217
sg10
S'src/rockstor/storageadmin/views/disk_smart'
p218
sg12
g13
(g14
g15
NtRp219
(dp220
g18
I1
sg19
I0
sg20
I86
sg21
I0
sg22
I0
sg23
I86
sg24
I0
sbssg25
S'E\x8aT\x86\xa7R\xdc\xe2=z/\xb5\xd6v\xba\x9e'
p221
ssS'src_rockstor_storageadmin_views_share_helpers'
p222
(dp223
g6
(dp224
g8
S'src_rockstor_storageadmin_views_share_helpers.html'
p225
sg10
S'src/rockstor/storageadmin/views/share_helpers'
p226
sg12
g13
(g14
g15
NtRp227
(dp228
g18
I1
sg19
I0
sg20
I106
sg21
I0
sg22
I0
sg23
I91
sg24
I0
sbssg25
S'\x86?\xa1\x8c\xaf\xf5\x7f\xdb[\xee\xba\xc9\xe3\xc8\xd4q'
p229
ssS'src_rockstor_storageadmin_views_rockon_custom_config'
p230
(dp231
g6
(dp232
g8
S'src_rockstor_storageadmin_views_rockon_custom_config.html'
p233
sg10
S'src/rockstor/storageadmin/views/rockon_custom_config'
p234
sg12
g13
(g14
g15
NtRp235
(dp236
g18
I1
sg19
I0
sg20
I13
sg21
I0
sg22
I0
sg23
I13
sg24
I0
sbssg25
S"\x1f5m\x11\xca O\x06'>\x80\n\xe8\xc1\x15B"
p237
ssS'src_rockstor_storageadmin_views_rockon_port'
p238
(dp239
g6
(dp240
g8
S'src_rockstor_storageadmin_views_rockon_port.html'
p241
sg10
S'src/rockstor/storageadmin/views/rockon_port'
p242
sg12
g13
(g14
g15
NtRp243
(dp244
g18
I1
sg19
I0
sg20
I14
sg21
I0
sg22
I0
sg23
I14
sg24
I0
sbssg25
S'\xce\x1a\x1b\xe2\x8b\x08\xc8W~\x92\xbcD\xe8\x13\xd7h'
p245
ssS'src_rockstor_storageadmin_views_login'
p246
(dp247
g6
(dp248
g8
S'src_rockstor_storageadmin_views_login.html'
p249
sg10
S'src/rockstor/storageadmin/views/login'
p250
sg12
g13
(g14
g15
NtRp251
(dp252
g18
I1
sg19
I0
sg20
I19
sg21
I0
sg22
I0
sg23
I10
sg24
I0
sbssg25
S'\xaa\x82\x89\x0f\x9c\xecAJX\x02\x7f\xd4H \xa7r'
p253
ssS'src_rockstor_storageadmin_views_appliances'
p254
(dp255
g6
(dp256
g8
S'src_rockstor_storageadmin_views_appliances.html'
p257
sg10
S'src/rockstor/storageadmin/views/appliances'
p258
sg12
g13
(g14
g15
NtRp259
(dp260
g18
I1
sg19
I0
sg20
I105
sg21
I0
sg22
I0
sg23
I80
sg24
I0
sbssg25
S'\x98\xdc\xd2\x1dd%\x8d\x94\xba\x98\x8f\xe8\x87XyQ'
p261
ssS'src_rockstor_storageadmin_views_share'
p262
(dp263
g6
(dp264
g8
S'src_rockstor_storageadmin_views_share.html'
p265
sg10
S'src/rockstor/storageadmin/views/share'
p266
sg12
g13
(g14
g15
NtRp267
(dp268
g18
I1
sg19
I0
sg20
I175
sg21
I0
sg22
I0
sg23
I143
sg24
I0
sbssg25
S'y\x86bJ\t\xe7G\xd8\xf7\x89S\xeb\xb9\xbd\xf4\x9f'
p269
ssS'src_rockstor_storageadmin_views_samba'
p270
(dp271
g6
(dp272
g8
S'src_rockstor_storageadmin_views_samba.html'
p273
sg10
S'src/rockstor/storageadmin/views/samba'
p274
sg12
g13
(g14
g15
NtRp275
(dp276
g18
I1
sg19
I0
sg20
I153
sg21
I0
sg22
I0
sg23
I126
sg24
I0
sbssg25
S'\t\xe06@\xa2\xc3,\xe1s\xbfTL\x95q\xc4\x0f'
p277
ssS'src_rockstor_storageadmin_views_config_backup'
p278
(dp279
g6
(dp280
g8
S'src_rockstor_storageadmin_views_config_backup.html'
p281
sg10
S'src/rockstor/storageadmin/views/config_backup'
p282
sg12
g13
(g14
g15
NtRp283
(dp284
g18
I1
sg19
I0
sg20
I206
sg21
I0
sg22
I0
sg23
I206
sg24
I0
sbssg25
S'\x98\xae\x1d\x13\x98\x03.!("*\xd2u\xccCm'
p285
ssS'src_rockstor_storageadmin_views_group'
p286
(dp287
g6
(dp288
g8
S'src_rockstor_storageadmin_views_group.html'
p289
sg10
S'src/rockstor/storageadmin/views/group'
p290
sg12
g13
(g14
g15
NtRp291
(dp292
g18
I1
sg19
I0
sg20
I72
sg21
I0
sg22
I0
sg23
I50
sg24
I0
sbssg25
S'\xe1\xae\x1a,~\x8f\x94\xdcB\xb4\x06,\x0cKp\x03'
p293
ssS'src_rockstor_storageadmin_views_share_command'
p294
(dp295
g6
(dp296
g8
S'src_rockstor_storageadmin_views_share_command.html'
p297
sg10
S'src/rockstor/storageadmin/views/share_command'
p298
sg12
g13
(g14
g15
NtRp299
(dp300
g18
I1
sg19
I0
sg20
I49
sg21
I0
sg22
I0
sg23
I30
sg24
I0
sbssg25
S'\xfb{\xe8P\xc1w\xc5\x9b\xe2\xad\xf4\x0cdq\xf6q'
p301
ssS'src_rockstor_storageadmin_views_share_acl'
p302
(dp303
g6
(dp304
g8
S'src_rockstor_storageadmin_views_share_acl.html'
p305
sg10
S'src/rockstor/storageadmin/views/share_acl'
p306
sg12
g13
(g14
g15
NtRp307
(dp308
g18
I1
sg19
I0
sg20
I34
sg21
I0
sg22
I0
sg23
I22
sg24
I0
sbssg25
S'Ag\xdb\r\x7f\xe7\xa8rK,h8\xcb\xb8yQ'
p309
ssS'src_rockstor_storageadmin_views_dashboardconfig'
p310
(dp311
g6
(dp312
g8
S'src_rockstor_storageadmin_views_dashboardconfig.html'
p313
sg10
S'src/rockstor/storageadmin/views/dashboardconfig'
p314
sg12
g13
(g14
g15
NtRp315
(dp316
g18
I1
sg19
I0
sg20
I54
sg21
I0
sg22
I0
sg23
I35
sg24
I0
sbssg25
S'*\x0c\xc7l\x84t\xd59R\xb1\x0b\xe7Fsk\xd7'
p317
ssS'src_rockstor_storageadmin_views_nfs_exports'
p318
(dp319
g6
(dp320
g8
S'src_rockstor_storageadmin_views_nfs_exports.html'
p321
sg10
S'src/rockstor/storageadmin/views/nfs_exports'
p322
sg12
g13
(g14
g15
NtRp323
(dp324
g18
I1
sg19
I0
sg20
I214
sg21
I0
sg22
I0
sg23
I178
sg24
I0
sbssg25
S'\xa7\r\xd5\x02\x93\x06<\x82$)\xde\xe3\xc6s=\xc5'
p325
ssS'src_rockstor_storageadmin_views_home'
p326
(dp327
g6
(dp328
g8
S'src_rockstor_storageadmin_views_home.html'
p329
sg10
S'src/rockstor/storageadmin/views/home'
p330
sg12
g13
(g14
g15
NtRp331
(dp332
g18
I1
sg19
I0
sg20
I36
sg21
I0
sg22
I0
sg23
I24
sg24
I0
sbssg25
S'\x0b\x8c\xa5KzED\xa8\xda\t@\x8a\xf7\xab\x01\xd5'
p333
sssS'version'
p334
S'3.7.1'
p335
sS'settings'
p336
S'\xc3|\r\t\xa4*(`Hm\xf9\x00\xca\x9b\xc7\x1c'
p337
sS'format'
p338
I1
s.