(dp1
S'files'
p2
(dp3
S'src_rockstor_storageadmin_views_rockon_id'
p4
(dp5
S'index'
p6
(dp7
S'html_filename'
p8
S'src_rockstor_storageadmin_views_rockon_id.html'
p9
sS'name'
p10
S'src/rockstor/storageadmin/views/rockon_id'
p11
sS'nums'
p12
ccopy_reg
_reconstructor
p13
(ccoverage.results
Numbers
p14
c__builtin__
object
p15
NtRp16
(dp17
S'n_files'
p18
I1
sS'n_branches'
p19
I0
sS'n_statements'
p20
I142
sS'n_excluded'
p21
I0
sS'n_partial_branches'
p22
I0
sS'n_missing'
p23
I125
sS'n_missing_branches'
p24
I0
sbssS'hash'
p25
S'Q*\x06\xf1;yM\xf1\x8e\x89\xe6\xed\xd31\x14{'
p26
ssS'src_rockstor_storageadmin_views___init__'
p27
(dp28
g6
(dp29
g8
S'src_rockstor_storageadmin_views___init__.html'
p30
sg10
S'src/rockstor/storageadmin/views/__init__'
p31
sg12
g13
(g14
g15
NtRp32
(dp33
g18
I1
sg19
I0
sg20
I34
sg21
I0
sg22
I0
sg23
I0
sg24
I0
sbssg25
S'\xfas\x16#Tc\xc4\xffm\x17\xcah\xed\xd9\x98\xfa'
p34
ssS'src_rockstor_storageadmin_views_ug_helpers'
p35
(dp36
g6
(dp37
g8
S'src_rockstor_storageadmin_views_ug_helpers.html'
p38
sg10
S'src/rockstor/storageadmin/views/ug_helpers'
p39
sg12
g13
(g14
g15
NtRp40
(dp41
g18
I1
sg19
I0
sg20
I63
sg21
I0
sg22
I0
sg23
I57
sg24
I0
sbssg25
S'\xeb\x07m\x0c~i\xa82\x999U\x84\xa9\xb7\xab\xcb'
p42
ssS'src_rockstor_storageadmin_views_tls_certificate'
p43
(dp44
g6
(dp45
g8
S'src_rockstor_storageadmin_views_tls_certificate.html'
p46
sg10
S'src/rockstor/storageadmin/views/tls_certificate'
p47
sg12
g13
(g14
g15
NtRp48
(dp49
g18
I1
sg19
I0
sg20
I53
sg21
I0
sg22
I0
sg23
I35
sg24
I0
sbssg25
S'#\xeb[\x90\x1f\xb65\xd6\x0b\xeb}\x97\x8e\x85S\x82'
p50
ssS'src_rockstor_storageadmin_views_oauth_app'
p51
(dp52
g6
(dp53
g8
S'src_rockstor_storageadmin_views_oauth_app.html'
p54
sg10
S'src/rockstor/storageadmin/views/oauth_app'
p55
sg12
g13
(g14
g15
NtRp56
(dp57
g18
I1
sg19
I0
sg20
I47
sg21
I0
sg22
I0
sg23
I34
sg24
I0
sbssg25
S'[wL2V{j=$\xb6t\xc2\x80\x82)\xcf'
p58
ssS'src_rockstor_storageadmin_views_rockon_helpers'
p59
(dp60
g6
(dp61
g8
S'src_rockstor_storageadmin_views_rockon_helpers.html'
p62
sg10
S'src/rockstor/storageadmin/views/rockon_helpers'
p63
sg12
g13
(g14
g15
NtRp64
(dp65
g18
I1
sg19
I0
sg20
I195
sg21
I0
sg22
I0
sg23
I160
sg24
I0
sbssg25
S'I\xb1\xb0f\x95\xf0\x8dm\xad\xd7\xec\xe1C\xe5\x00\x9d'
p66
ssS'src_rockstor_storageadmin_views_disk'
p67
(dp68
g6
(dp69
g8
S'src_rockstor_storageadmin_views_disk.html'
p70
sg10
S'src/rockstor/storageadmin/views/disk'
p71
sg12
g13
(g14
g15
NtRp72
(dp73
g18
I1
sg19
I0
sg20
I170
sg21
I0
sg22
I0
sg23
I138
sg24
I0
sbssg25
S't\xde\xa8T&\x9a~\x0c\xe7<\xbb\x10\xf3\t\x8a\xef'
p74
ssS'src_rockstor_storageadmin_views_nfs_exports'
p75
(dp76
g6
(dp77
g8
S'src_rockstor_storageadmin_views_nfs_exports.html'
p78
sg10
S'src/rockstor/storageadmin/views/nfs_exports'
p79
sg12
g13
(g14
g15
NtRp80
(dp81
g18
I1
sg19
I0
sg20
I214
sg21
I0
sg22
I0
sg23
I7
sg24
I0
sbssg25
S']\x9c\x8d\xeb\xbf\xc0eW\xaf\xa9}~\xe7\xd1\xdf\xfe'
p82
ssS'src_rockstor_storageadmin_views_netatalk'
p83
(dp84
g6
(dp85
S'html_filename'
p86
S'src_rockstor_storageadmin_views_netatalk.html'
p87
sS'name'
p88
S'src/rockstor/storageadmin/views/netatalk'
p89
sS'nums'
p90
g13
(g14
g15
NtRp91
(dp92
g18
I1
sg19
I0
sg20
I93
sg21
I0
sg22
I0
sg23
I13
sg24
I0
sbssg25
S'vH\xe2\xee\xf2$\x02`\xc5N\x84\xfa\x8f\x81\x84k'
p93
ssS'src_rockstor_storageadmin_views_snapshot'
p94
(dp95
g6
(dp96
g8
S'src_rockstor_storageadmin_views_snapshot.html'
p97
sg10
S'src/rockstor/storageadmin/views/snapshot'
p98
sg12
g13
(g14
g15
NtRp99
(dp100
g18
I1
sg19
I0
sg20
I157
sg21
I0
sg22
I0
sg23
I129
sg24
I0
sbssg25
S'\xfc\x1f\xd3\n\xf1,w\xa2h}\x10\xffj\x04\xb6\xc8'
p101
ssS'src_rockstor_storageadmin_views_user'
p102
(dp103
g6
(dp104
g8
S'src_rockstor_storageadmin_views_user.html'
p105
sg10
S'src/rockstor/storageadmin/views/user'
p106
sg12
g13
(g14
g15
NtRp107
(dp108
g18
I1
sg19
I0
sg20
I214
sg21
I0
sg22
I0
sg23
I186
sg24
I0
sbssg25
S'\xb9\rid\xc2%$M\xe3\x05>w\xe12\xc6\xa0'
p109
ssS'src_rockstor_storageadmin_views_views'
p110
(dp111
g6
(dp112
g8
S'src_rockstor_storageadmin_views_views.html'
p113
sg10
S'src/rockstor/storageadmin/views/views'
p114
sg12
g13
(g14
g15
NtRp115
(dp116
g18
I1
sg19
I0
sg20
I0
sg21
I0
sg22
I0
sg23
I0
sg24
I0
sbssg25
S'{\xd99q\x98)\xfekT\xb8H7M\x1c\x94\xba'
p117
ssS'src_rockstor_storageadmin_views_support'
p118
(dp119
g6
(dp120
g8
S'src_rockstor_storageadmin_views_support.html'
p121
sg10
S'src/rockstor/storageadmin/views/support'
p122
sg12
g13
(g14
g15
NtRp123
(dp124
g18
I1
sg19
I0
sg20
I74
sg21
I0
sg22
I0
sg23
I49
sg24
I0
sbssg25
S'\xbdKJ\xfd\x10d\xf2\xd6&%\x7f!\x19w\x14\xe2'
p125
ssS'src_rockstor_storageadmin_views_clone_helpers'
p126
(dp127
g6
(dp128
g8
S'src_rockstor_storageadmin_views_clone_helpers.html'
p129
sg10
S'src/rockstor/storageadmin/views/clone_helpers'
p130
sg12
g13
(g14
g15
NtRp131
(dp132
g18
I1
sg19
I0
sg20
I31
sg21
I0
sg22
I0
sg23
I23
sg24
I0
sbssg25
S'\x07\x18\x1d\x01\x19s\xd9\x9f/\xe5\xe9\xb4P\x80\xd2m'
p133
ssS'src_rockstor_storageadmin_views_share_iscsi'
p134
(dp135
g6
(dp136
g8
S'src_rockstor_storageadmin_views_share_iscsi.html'
p137
sg10
S'src/rockstor/storageadmin/views/share_iscsi'
p138
sg12
g13
(g14
g15
NtRp139
(dp140
g18
I1
sg19
I0
sg20
I58
sg21
I0
sg22
I0
sg23
I42
sg24
I0
sbssg25
S'\xa1\x18T\xa1\x93\xf1\xac\xc8-\xa5H\xac\x12 \x8aO'
p141
ssS'src_rockstor_storageadmin_views_setup_user'
p142
(dp143
g6
(dp144
g8
S'src_rockstor_storageadmin_views_setup_user.html'
p145
sg10
S'src/rockstor/storageadmin/views/setup_user'
p146
sg12
g13
(g14
g15
NtRp147
(dp148
g18
I1
sg19
I0
sg20
I32
sg21
I0
sg22
I0
sg23
I20
sg24
I0
sbssg25
S'\xec\x94\x84\x1a\x9aM2\xb5p\xca\xa2\x96\x95\x1cq\n'
p149
ssS'src_rockstor_storageadmin_views_pool_balance'
p150
(dp151
g6
(dp152
g8
S'src_rockstor_storageadmin_views_pool_balance.html'
p153
sg10
S'src/rockstor/storageadmin/views/pool_balance'
p154
sg12
g13
(g14
g15
NtRp155
(dp156
g18
I1
sg19
I0
sg20
I67
sg21
I0
sg22
I0
sg23
I47
sg24
I0
sbssg25
S'9x\xa8\xcf\x0f\xaa\xf9\xbf\x81\xed\xc1TJ\xf8\xff='
p157
ssS'src_rockstor_storageadmin_views_pool'
p158
(dp159
g6
(dp160
g8
S'src_rockstor_storageadmin_views_pool.html'
p161
sg10
S'src/rockstor/storageadmin/views/pool'
p162
sg12
g13
(g14
g15
NtRp163
(dp164
g18
I1
sg19
I0
sg20
I289
sg21
I0
sg22
I0
sg23
I259
sg24
I0
sbssg25
S'\xb5\xbe\xa0\x96\xf6X\r\xe4\x81\xa7\x8f&\xf0\xa3\xe4\xf4'
p165
ssS'src_rockstor_storageadmin_views_pool_scrub'
p166
(dp167
g6
(dp168
g8
S'src_rockstor_storageadmin_views_pool_scrub.html'
p169
sg10
S'src/rockstor/storageadmin/views/pool_scrub'
p170
sg12
g13
(g14
g15
NtRp171
(dp172
g18
I1
sg19
I0
sg20
I58
sg21
I0
sg22
I0
sg23
I41
sg24
I0
sbssg25
S'\x9a\xef\xa4\x9f\x7f\xb4\xf4\xbeo\xca\x8e\xbeG\xd1N\xae'
p173
ssS'src_rockstor_storageadmin_views_email'
p174
(dp175
g6
(dp176
g8
S'src_rockstor_storageadmin_views_email.html'
p177
sg10
S'src/rockstor/storageadmin/views/email'
p178
sg12
g13
(g14
g15
NtRp179
(dp180
g18
I1
sg19
I0
sg20
I79
sg21
I0
sg22
I0
sg23
I52
sg24
I0
sbssg25
S'\xc8\xf24\x98\x7f\xa1u\x86\x80\x9c\x7fg\xc2\xc8\xd7\xcb'
p181
ssS'src_rockstor_storageadmin_views_rockon'
p182
(dp183
g6
(dp184
g8
S'src_rockstor_storageadmin_views_rockon.html'
p185
sg10
S'src/rockstor/storageadmin/views/rockon'
p186
sg12
g13
(g14
g15
NtRp187
(dp188
g18
I1
sg19
I0
sg20
I166
sg21
I0
sg22
I0
sg23
I145
sg24
I0
sbssg25
S'G<i\x8e\xb8p\xcf#\xec\x9f+\xf89\xc9\xb1\xf5'
p189
ssS'src_rockstor_storageadmin_views_sftp'
p190
(dp191
g6
(dp192
g8
S'src_rockstor_storageadmin_views_sftp.html'
p193
sg10
S'src/rockstor/storageadmin/views/sftp'
p194
sg12
g13
(g14
g15
NtRp195
(dp196
g18
I1
sg19
I0
sg20
I79
sg21
I0
sg22
I0
sg23
I58
sg24
I0
sbssg25
S'\xb9\xf7gA\x0f\x0b\xa9\xe0\xf5\x89\xa2\xf0V\xde\x82\xf6'
p197
ssS'src_rockstor_storageadmin_views_rockon_volume'
p198
(dp199
g6
(dp200
g8
S'src_rockstor_storageadmin_views_rockon_volume.html'
p201
sg10
S'src/rockstor/storageadmin/views/rockon_volume'
p202
sg12
g13
(g14
g15
NtRp203
(dp204
g18
I1
sg19
I0
sg20
I14
sg21
I0
sg22
I0
sg23
I7
sg24
I0
sbssg25
S'\xf9\x1eb\xf5\x1c\x14\xfbh-\xd2\x9fJ\x90=\xafH'
p205
ssS'src_rockstor_storageadmin_views_network'
p206
(dp207
g6
(dp208
g8
S'src_rockstor_storageadmin_views_network.html'
p209
sg10
S'src/rockstor/storageadmin/views/network'
p210
sg12
g13
(g14
g15
NtRp211
(dp212
g18
I1
sg19
I0
sg20
I157
sg21
I0
sg22
I0
sg23
I126
sg24
I0
sbssg25
S'\xcb~\xbc\x88\x7f\xb3/\x8b\xa4.\x1e\xc1#=m:'
p213
ssS'src_rockstor_storageadmin_views_command'
p214
(dp215
g6
(dp216
g8
S'src_rockstor_storageadmin_views_command.html'
p217
sg10
S'src/rockstor/storageadmin/views/command'
p218
sg12
g13
(g14
g15
NtRp219
(dp220
g18
I1
sg19
I0
sg20
I185
sg21
I0
sg22
I0
sg23
I159
sg24
I0
sbssg25
S'\xc0\x01\xf9\x01\x17\x19\xbb\x0fk\x12\xdc+\xe8$\xc8v'
p221
ssS'src_rockstor_storageadmin_views_disk_smart'
p222
(dp223
g6
(dp224
g8
S'src_rockstor_storageadmin_views_disk_smart.html'
p225
sg10
S'src/rockstor/storageadmin/views/disk_smart'
p226
sg12
g13
(g14
g15
NtRp227
(dp228
g18
I1
sg19
I0
sg20
I86
sg21
I0
sg22
I0
sg23
I64
sg24
I0
sbssg25
S'\x9e\x82\x0f\x03)\x90|\xf1Z\xf2\x0b\xe7\xa0#\x93)'
p229
ssS'src_rockstor_storageadmin_views_share_helpers'
p230
(dp231
g6
(dp232
g8
S'src_rockstor_storageadmin_views_share_helpers.html'
p233
sg10
S'src/rockstor/storageadmin/views/share_helpers'
p234
sg12
g13
(g14
g15
NtRp235
(dp236
g18
I1
sg19
I0
sg20
I108
sg21
I0
sg22
I0
sg23
I91
sg24
I0
sbssg25
S'\xb6\x8dJt\x95*\x8a\xeb;\xf3Q%\xba9\x9c\x1a'
p237
ssS'src_rockstor_storageadmin_views_rockon_custom_config'
p238
(dp239
g6
(dp240
g8
S'src_rockstor_storageadmin_views_rockon_custom_config.html'
p241
sg10
S'src/rockstor/storageadmin/views/rockon_custom_config'
p242
sg12
g13
(g14
g15
NtRp243
(dp244
g18
I1
sg19
I0
sg20
I13
sg21
I0
sg22
I0
sg23
I6
sg24
I0
sbssg25
S'\x94V\xf46\xb3\xb9\x15\x8b*~\xddTb\xcb\xe8='
p245
ssS'src_rockstor_storageadmin_views_rockon_port'
p246
(dp247
g6
(dp248
g8
S'src_rockstor_storageadmin_views_rockon_port.html'
p249
sg10
S'src/rockstor/storageadmin/views/rockon_port'
p250
sg12
g13
(g14
g15
NtRp251
(dp252
g18
I1
sg19
I0
sg20
I14
sg21
I0
sg22
I0
sg23
I7
sg24
I0
sbssg25
S'=\xe8\x94\x1e\xce\xb5*f\xad\x8f\xba\x14\x922M\xb0'
p253
ssS'src_rockstor_storageadmin_views_login'
p254
(dp255
g6
(dp256
g8
S'src_rockstor_storageadmin_views_login.html'
p257
sg10
S'src/rockstor/storageadmin/views/login'
p258
sg12
g13
(g14
g15
NtRp259
(dp260
g18
I1
sg19
I0
sg20
I19
sg21
I0
sg22
I0
sg23
I10
sg24
I0
sbssg25
S'\xaa\x82\x89\x0f\x9c\xecAJX\x02\x7f\xd4H \xa7r'
p261
ssS'src_rockstor_storageadmin_views_appliances'
p262
(dp263
g6
(dp264
g8
S'src_rockstor_storageadmin_views_appliances.html'
p265
sg10
S'src/rockstor/storageadmin/views/appliances'
p266
sg12
g13
(g14
g15
NtRp267
(dp268
g18
I1
sg19
I0
sg20
I114
sg21
I0
sg22
I0
sg23
I90
sg24
I0
sbssg25
S'\t\xf6\x94\xad\x1dZ`v\x9a\x01m\x1e6\xacV\xbb'
p269
ssS'src_rockstor_storageadmin_views_dashboardconfig'
p270
(dp271
g6
(dp272
g8
S'src_rockstor_storageadmin_views_dashboardconfig.html'
p273
sg10
S'src/rockstor/storageadmin/views/dashboardconfig'
p274
sg12
g13
(g14
g15
NtRp275
(dp276
g18
I1
sg19
I0
sg20
I54
sg21
I0
sg22
I0
sg23
I35
sg24
I0
sbssg25
S'*\x0c\xc7l\x84t\xd59R\xb1\x0b\xe7Fsk\xd7'
p277
ssS'src_rockstor_storageadmin_views_share'
p278
(dp279
g6
(dp280
g8
S'src_rockstor_storageadmin_views_share.html'
p281
sg10
S'src/rockstor/storageadmin/views/share'
p282
sg12
g13
(g14
g15
NtRp283
(dp284
g18
I1
sg19
I0
sg20
I172
sg21
I0
sg22
I0
sg23
I140
sg24
I0
sbssg25
S'`\xdd\x9e\x96I\x1a\x01\xe6\xa6\x1c\xdb\xe5\x82\xf2\x80)'
p285
ssS'src_rockstor_storageadmin_views_samba'
p286
(dp287
g6
(dp288
g8
S'src_rockstor_storageadmin_views_samba.html'
p289
sg10
S'src/rockstor/storageadmin/views/samba'
p290
sg12
g13
(g14
g15
NtRp291
(dp292
g18
I1
sg19
I0
sg20
I146
sg21
I0
sg22
I0
sg23
I119
sg24
I0
sbssg25
S'Tt\x04w<\x08\xc7\x1f\x8fW<\x11Q1\xcdH'
p293
ssS'src_rockstor_storageadmin_views_config_backup'
p294
(dp295
g6
(dp296
g8
S'src_rockstor_storageadmin_views_config_backup.html'
p297
sg10
S'src/rockstor/storageadmin/views/config_backup'
p298
sg12
g13
(g14
g15
NtRp299
(dp300
g18
I1
sg19
I0
sg20
I206
sg21
I0
sg22
I0
sg23
I163
sg24
I0
sbssg25
S"\xbaZ\x17'9(\xe2\xf8\xd4\xca\x9bp\xf3\xf7{\xc5"
p301
ssS'src_rockstor_storageadmin_views_group'
p302
(dp303
g6
(dp304
g8
S'src_rockstor_storageadmin_views_group.html'
p305
sg10
S'src/rockstor/storageadmin/views/group'
p306
sg12
g13
(g14
g15
NtRp307
(dp308
g18
I1
sg19
I0
sg20
I72
sg21
I0
sg22
I0
sg23
I50
sg24
I0
sbssg25
S'\xe1\xae\x1a,~\x8f\x94\xdcB\xb4\x06,\x0cKp\x03'
p309
ssS'src_rockstor_storageadmin_views_share_command'
p310
(dp311
g6
(dp312
g8
S'src_rockstor_storageadmin_views_share_command.html'
p313
sg10
S'src/rockstor/storageadmin/views/share_command'
p314
sg12
g13
(g14
g15
NtRp315
(dp316
g18
I1
sg19
I0
sg20
I49
sg21
I0
sg22
I0
sg23
I30
sg24
I0
sbssg25
S'\xfb{\xe8P\xc1w\xc5\x9b\xe2\xad\xf4\x0cdq\xf6q'
p317
ssS'src_rockstor_storageadmin_views_share_acl'
p318
(dp319
g6
(dp320
g8
S'src_rockstor_storageadmin_views_share_acl.html'
p321
sg10
S'src/rockstor/storageadmin/views/share_acl'
p322
sg12
g13
(g14
g15
NtRp323
(dp324
g18
I1
sg19
I0
sg20
I34
sg21
I0
sg22
I0
sg23
I22
sg24
I0
sbssg25
S'Ag\xdb\r\x7f\xe7\xa8rK,h8\xcb\xb8yQ'
p325
ssS'src_rockstor_storageadmin_views_rockon_json'
p326
(dp327
g6
(dp328
g8
S'src_rockstor_storageadmin_views_rockon_json.html'
p329
sg10
S'src/rockstor/storageadmin/views/rockon_json'
p330
sg12
g13
(g14
g15
NtRp331
(dp332
g18
I1
sg19
I0
sg20
I10
sg21
I0
sg22
I0
sg23
I10
sg24
I0
sbssg25
S'\xdb&\x14\xd7\x1cP\x82\xa2\x10\xd3TM\r\xa9TP'
p333
ssS'src_rockstor_storageadmin_views_home'
p334
(dp335
g6
(dp336
g8
S'src_rockstor_storageadmin_views_home.html'
p337
sg10
S'src/rockstor/storageadmin/views/home'
p338
sg12
g13
(g14
g15
NtRp339
(dp340
g18
I1
sg19
I0
sg20
I36
sg21
I0
sg22
I0
sg23
I24
sg24
I0
sbssg25
S'\xff\xed\xfb\x960(\x82Q\x9dp\xcd\x1a{o\x8d\x0f'
p341
sssS'version'
p342
S'3.7.1'
p343
sS'settings'
p344
S'\xa49\xd6=eL\xa4m`He\x03\xdd\xe6\xd4\xa0'
p345
sS'format'
p346
I1
s.