(dp1
S'files'
p2
(dp3
S'src_rockstor_storageadmin_views_rockon_id'
p4
(dp5
S'index'
p6
(dp7
S'html_filename'
p8
S'src_rockstor_storageadmin_views_rockon_id.html'
p9
sS'name'
p10
S'src/rockstor/storageadmin/views/rockon_id'
p11
sS'nums'
p12
ccopy_reg
_reconstructor
p13
(ccoverage.results
Numbers
p14
c__builtin__
object
p15
NtRp16
(dp17
S'n_files'
p18
I1
sS'n_branches'
p19
I0
sS'n_statements'
p20
I142
sS'n_excluded'
p21
I0
sS'n_partial_branches'
p22
I0
sS'n_missing'
p23
I125
sS'n_missing_branches'
p24
I0
sbssS'hash'
p25
S'Q*\x06\xf1;yM\xf1\x8e\x89\xe6\xed\xd31\x14{'
p26
ssS'src_rockstor_storageadmin_views___init__'
p27
(dp28
g6
(dp29
S'html_filename'
p30
S'src_rockstor_storageadmin_views___init__.html'
p31
sS'name'
p32
S'src/rockstor/storageadmin/views/__init__'
p33
sS'nums'
p34
g13
(g14
g15
NtRp35
(dp36
g18
I1
sg19
I0
sg20
I34
sg21
I0
sg22
I0
sg23
I0
sg24
I0
sbssg25
S'S\xe7*\x96\xa1\xa3\xc0\xa8\xa4\xf6h\xf6?(\xee\x91'
p37
ssS'src_rockstor_storageadmin_views_ug_helpers'
p38
(dp39
g6
(dp40
S'html_filename'
p41
S'src_rockstor_storageadmin_views_ug_helpers.html'
p42
sS'name'
p43
S'src/rockstor/storageadmin/views/ug_helpers'
p44
sS'nums'
p45
g13
(g14
g15
NtRp46
(dp47
g18
I1
sg19
I0
sg20
I63
sg21
I0
sg22
I0
sg23
I31
sg24
I0
sbssg25
S'\x19B~k\xfb\xa4\xefXr!\x99\xae\\\xfd\x9bu'
p48
ssS'src_rockstor_storageadmin_views_email_client'
p49
(dp50
g6
(dp51
g41
S'src_rockstor_storageadmin_views_email_client.html'
p52
sg43
S'src/rockstor/storageadmin/views/email_client'
p53
sg45
g13
(g14
g15
NtRp54
(dp55
g18
I1
sg19
I0
sg20
I109
sg21
I0
sg22
I0
sg23
I57
sg24
I0
sbssg25
S"\x11C\xaa\xa9'\xed\x86\x02\xd0\xa4~\x0c\x0f\tl:"
p56
ssS'src_rockstor_storageadmin_views_tls_certificate'
p57
(dp58
g6
(dp59
g41
S'src_rockstor_storageadmin_views_tls_certificate.html'
p60
sg43
S'src/rockstor/storageadmin/views/tls_certificate'
p61
sg45
g13
(g14
g15
NtRp62
(dp63
g18
I1
sg19
I0
sg20
I53
sg21
I0
sg22
I0
sg23
I16
sg24
I0
sbssg25
S'\xf5\x9f\x80&\xaa\xba\xe5=\x8b\xdb\xab\x1b\x99\x84\xa9\xbe'
p64
ssS'src_rockstor_storageadmin_views_oauth_app'
p65
(dp66
g6
(dp67
g41
S'src_rockstor_storageadmin_views_oauth_app.html'
p68
sg43
S'src/rockstor/storageadmin/views/oauth_app'
p69
sg45
g13
(g14
g15
NtRp70
(dp71
g18
I1
sg19
I0
sg20
I51
sg21
I0
sg22
I0
sg23
I13
sg24
I0
sbssg25
S'l\x08f\xfe\xec+[\xaff\xbfp\x13q\xdbQ\xcc'
p72
ssS'src_rockstor_storageadmin_views_rockon_helpers'
p73
(dp74
g6
(dp75
g8
S'src_rockstor_storageadmin_views_rockon_helpers.html'
p76
sg10
S'src/rockstor/storageadmin/views/rockon_helpers'
p77
sg12
g13
(g14
g15
NtRp78
(dp79
g18
I1
sg19
I0
sg20
I195
sg21
I0
sg22
I0
sg23
I160
sg24
I0
sbssg25
S'I\xb1\xb0f\x95\xf0\x8dm\xad\xd7\xec\xe1C\xe5\x00\x9d'
p80
ssS'src_rockstor_storageadmin_views_clone_helpers'
p81
(dp82
g6
(dp83
g8
S'src_rockstor_storageadmin_views_clone_helpers.html'
p84
sg10
S'src/rockstor/storageadmin/views/clone_helpers'
p85
sg12
g13
(g14
g15
NtRp86
(dp87
g18
I1
sg19
I0
sg20
I31
sg21
I0
sg22
I0
sg23
I23
sg24
I0
sbssg25
S'\x07\x18\x1d\x01\x19s\xd9\x9f/\xe5\xe9\xb4P\x80\xd2m'
p88
ssS'src_rockstor_storageadmin_views_netatalk'
p89
(dp90
g6
(dp91
g41
S'src_rockstor_storageadmin_views_netatalk.html'
p92
sg43
S'src/rockstor/storageadmin/views/netatalk'
p93
sg45
g13
(g14
g15
NtRp94
(dp95
g18
I1
sg19
I0
sg20
I93
sg21
I0
sg22
I0
sg23
I13
sg24
I0
sbssg25
S'vH\xe2\xee\xf2$\x02`\xc5N\x84\xfa\x8f\x81\x84k'
p96
ssS'src_rockstor_storageadmin_views_snapshot'
p97
(dp98
g6
(dp99
g41
S'src_rockstor_storageadmin_views_snapshot.html'
p100
sg43
S'src/rockstor/storageadmin/views/snapshot'
p101
sg45
g13
(g14
g15
NtRp102
(dp103
g18
I1
sg19
I0
sg20
I156
sg21
I0
sg22
I0
sg23
I37
sg24
I0
sbssg25
S'{\xf4\xc9\x98$\xe7\x9a\x15\xd9GQ\x02\x86\x8d\xca\xd4'
p104
ssS'src_rockstor_storageadmin_views_user'
p105
(dp106
g6
(dp107
g41
S'src_rockstor_storageadmin_views_user.html'
p108
sg43
S'src/rockstor/storageadmin/views/user'
p109
sg45
g13
(g14
g15
NtRp110
(dp111
g18
I1
sg19
I0
sg20
I214
sg21
I0
sg22
I0
sg23
I15
sg24
I0
sbssg25
S'\x7f\x87\xcf\xf6\x84\xd2\xdf\xfb\xb8\xcf~\xb8z[\xf0\xdb'
p112
ssS'src_rockstor_storageadmin_views_views'
p113
(dp114
g6
(dp115
g8
S'src_rockstor_storageadmin_views_views.html'
p116
sg10
S'src/rockstor/storageadmin/views/views'
p117
sg12
g13
(g14
g15
NtRp118
(dp119
g18
I1
sg19
I0
sg20
I0
sg21
I0
sg22
I0
sg23
I0
sg24
I0
sbssg25
S'{\xd99q\x98)\xfekT\xb8H7M\x1c\x94\xba'
p120
ssS'src_rockstor_storageadmin_views_support'
p121
(dp122
g6
(dp123
g8
S'src_rockstor_storageadmin_views_support.html'
p124
sg10
S'src/rockstor/storageadmin/views/support'
p125
sg12
g13
(g14
g15
NtRp126
(dp127
g18
I1
sg19
I0
sg20
I74
sg21
I0
sg22
I0
sg23
I49
sg24
I0
sbssg25
S'\xbdKJ\xfd\x10d\xf2\xd6&%\x7f!\x19w\x14\xe2'
p128
ssS'src_rockstor_storageadmin_views_share_iscsi'
p129
(dp130
g6
(dp131
g8
S'src_rockstor_storageadmin_views_share_iscsi.html'
p132
sg10
S'src/rockstor/storageadmin/views/share_iscsi'
p133
sg12
g13
(g14
g15
NtRp134
(dp135
g18
I1
sg19
I0
sg20
I58
sg21
I0
sg22
I0
sg23
I5
sg24
I0
sbssg25
S'\xaa\xf1\x00\xc0>\x0bz\xf8}\xa2P1\xf4\x07\x9d0'
p136
ssS'src_rockstor_storageadmin_views_setup_user'
p137
(dp138
g6
(dp139
g8
S'src_rockstor_storageadmin_views_setup_user.html'
p140
sg10
S'src/rockstor/storageadmin/views/setup_user'
p141
sg12
g13
(g14
g15
NtRp142
(dp143
g18
I1
sg19
I0
sg20
I32
sg21
I0
sg22
I0
sg23
I20
sg24
I0
sbssg25
S'\xec\x94\x84\x1a\x9aM2\xb5p\xca\xa2\x96\x95\x1cq\n'
p144
ssS'src_rockstor_storageadmin_views_update_subscription'
p145
(dp146
g6
(dp147
g41
S'src_rockstor_storageadmin_views_update_subscription.html'
p148
sg43
S'src/rockstor/storageadmin/views/update_subscription'
p149
sg45
g13
(g14
g15
NtRp150
(dp151
g18
I1
sg19
I0
sg20
I67
sg21
I0
sg22
I0
sg23
I36
sg24
I0
sbssg25
S'xL"\xd3m\xf2\xbe\x9c\x0e\xe1\xff\x81\x0e\xf5\xe1\xb4'
p152
ssS'src_rockstor_storageadmin_views_pool_balance'
p153
(dp154
g6
(dp155
g41
S'src_rockstor_storageadmin_views_pool_balance.html'
p156
sg43
S'src/rockstor/storageadmin/views/pool_balance'
p157
sg45
g13
(g14
g15
NtRp158
(dp159
g18
I1
sg19
I0
sg20
I67
sg21
I0
sg22
I0
sg23
I23
sg24
I0
sbssg25
S'\x91\x9a\xb2\xb5!\x1f\x05\x8f\xd9\x11w3\x1c\x11$\xb2'
p160
ssS'src_rockstor_storageadmin_views_pool'
p161
(dp162
g6
(dp163
g41
S'src_rockstor_storageadmin_views_pool.html'
p164
sg43
S'src/rockstor/storageadmin/views/pool'
p165
sg45
g13
(g14
g15
NtRp166
(dp167
g18
I1
sg19
I0
sg20
I294
sg21
I0
sg22
I0
sg23
I32
sg24
I0
sbssg25
S'N^\xa7\xc1\xce\xc0\x92\x1d\xefP\xbf\xe7\x90\x118\x83'
p168
ssS'src_rockstor_storageadmin_views_pool_scrub'
p169
(dp170
g6
(dp171
g41
S'src_rockstor_storageadmin_views_pool_scrub.html'
p172
sg43
S'src/rockstor/storageadmin/views/pool_scrub'
p173
sg45
g13
(g14
g15
NtRp174
(dp175
g18
I1
sg19
I0
sg20
I58
sg21
I0
sg22
I0
sg23
I6
sg24
I0
sbssg25
S'\xc3\xb6Af\x03\x0e\xbf\xf8R\x0b\xa9\xab\xc3\x1aw\xd2'
p176
ssS'src_rockstor_storageadmin_views_rockon'
p177
(dp178
g6
(dp179
g8
S'src_rockstor_storageadmin_views_rockon.html'
p180
sg10
S'src/rockstor/storageadmin/views/rockon'
p181
sg12
g13
(g14
g15
NtRp182
(dp183
g18
I1
sg19
I0
sg20
I166
sg21
I0
sg22
I0
sg23
I145
sg24
I0
sbssg25
S'G<i\x8e\xb8p\xcf#\xec\x9f+\xf89\xc9\xb1\xf5'
p184
ssS'src_rockstor_storageadmin_views_sftp'
p185
(dp186
g6
(dp187
g41
S'src_rockstor_storageadmin_views_sftp.html'
p188
sg43
S'src/rockstor/storageadmin/views/sftp'
p189
sg45
g13
(g14
g15
NtRp190
(dp191
g18
I1
sg19
I0
sg20
I79
sg21
I0
sg22
I0
sg23
I13
sg24
I0
sbssg25
S'u\xbf\xb7\xcf\xa9\xff\x88m\xfd\xa5\xf2>\xd4\xf4\x19\xb4'
p192
ssS'src_rockstor_storageadmin_views_rockon_json'
p193
(dp194
g6
(dp195
g8
S'src_rockstor_storageadmin_views_rockon_json.html'
p196
sg10
S'src/rockstor/storageadmin/views/rockon_json'
p197
sg12
g13
(g14
g15
NtRp198
(dp199
g18
I1
sg19
I0
sg20
I10
sg21
I0
sg22
I0
sg23
I10
sg24
I0
sbssg25
S'\xdb&\x14\xd7\x1cP\x82\xa2\x10\xd3TM\r\xa9TP'
p200
ssS'src_rockstor_storageadmin_views_rockon_volume'
p201
(dp202
g6
(dp203
g8
S'src_rockstor_storageadmin_views_rockon_volume.html'
p204
sg10
S'src/rockstor/storageadmin/views/rockon_volume'
p205
sg12
g13
(g14
g15
NtRp206
(dp207
g18
I1
sg19
I0
sg20
I14
sg21
I0
sg22
I0
sg23
I7
sg24
I0
sbssg25
S'\xf9\x1eb\xf5\x1c\x14\xfbh-\xd2\x9fJ\x90=\xafH'
p208
ssS'src_rockstor_storageadmin_views_network'
p209
(dp210
g6
(dp211
g41
S'src_rockstor_storageadmin_views_network.html'
p212
sg43
S'src/rockstor/storageadmin/views/network'
p213
sg45
g13
(g14
g15
NtRp214
(dp215
g18
I1
sg19
I0
sg20
I158
sg21
I0
sg22
I0
sg23
I31
sg24
I0
sbssg25
S'\x9d\x17\xf8\xde\xd6Y\x05+\xfc\x7f\xc9[\xf5<.\x94'
p216
ssS'src_rockstor_storageadmin_views_command'
p217
(dp218
g6
(dp219
g41
S'src_rockstor_storageadmin_views_command.html'
p220
sg43
S'src/rockstor/storageadmin/views/command'
p221
sg45
g13
(g14
g15
NtRp222
(dp223
g18
I1
sg19
I0
sg20
I178
sg21
I0
sg22
I0
sg23
I88
sg24
I0
sbssg25
S']\x82\xf8\x8e\xa1hba\xf9\xaa\x85_=\xa4\x0b\xb0'
p224
ssS'src_rockstor_storageadmin_views_disk'
p225
(dp226
g6
(dp227
g41
S'src_rockstor_storageadmin_views_disk.html'
p228
sg43
S'src/rockstor/storageadmin/views/disk'
p229
sg45
g13
(g14
g15
NtRp230
(dp231
g18
I1
sg19
I0
sg20
I170
sg21
I0
sg22
I0
sg23
I85
sg24
I0
sbssg25
S'\xa9\x12E\x91\xc3\xafo\xaca\x99s\xc9\xff\xc3Tl'
p232
ssS'src_rockstor_storageadmin_views_share_helpers'
p233
(dp234
g6
(dp235
g41
S'src_rockstor_storageadmin_views_share_helpers.html'
p236
sg43
S'src/rockstor/storageadmin/views/share_helpers'
p237
sg45
g13
(g14
g15
NtRp238
(dp239
g18
I1
sg19
I0
sg20
I106
sg21
I0
sg22
I0
sg23
I86
sg24
I0
sbssg25
S' cA\x04U\xd2C\xb6W\xbf\xba\xc0\xef]\xbbl'
p240
ssS'src_rockstor_storageadmin_views_rockon_custom_config'
p241
(dp242
g6
(dp243
g8
S'src_rockstor_storageadmin_views_rockon_custom_config.html'
p244
sg10
S'src/rockstor/storageadmin/views/rockon_custom_config'
p245
sg12
g13
(g14
g15
NtRp246
(dp247
g18
I1
sg19
I0
sg20
I13
sg21
I0
sg22
I0
sg23
I6
sg24
I0
sbssg25
S'\x94V\xf46\xb3\xb9\x15\x8b*~\xddTb\xcb\xe8='
p248
ssS'src_rockstor_storageadmin_views_appliances'
p249
(dp250
g6
(dp251
g41
S'src_rockstor_storageadmin_views_appliances.html'
p252
sg43
S'src/rockstor/storageadmin/views/appliances'
p253
sg45
g13
(g14
g15
NtRp254
(dp255
g18
I1
sg19
I0
sg20
I121
sg21
I0
sg22
I0
sg23
I51
sg24
I0
sbssg25
S'\x02\x94\xf9\xd0\xa2\x81\xb4\x8b\xb4\xd9Y.\xf6L\x93+'
p256
ssS'src_rockstor_storageadmin_views_rockon_port'
p257
(dp258
g6
(dp259
g8
S'src_rockstor_storageadmin_views_rockon_port.html'
p260
sg10
S'src/rockstor/storageadmin/views/rockon_port'
p261
sg12
g13
(g14
g15
NtRp262
(dp263
g18
I1
sg19
I0
sg20
I14
sg21
I0
sg22
I0
sg23
I7
sg24
I0
sbssg25
S'=\xe8\x94\x1e\xce\xb5*f\xad\x8f\xba\x14\x922M\xb0'
p264
ssS'src_rockstor_storageadmin_views_login'
p265
(dp266
g6
(dp267
g8
S'src_rockstor_storageadmin_views_login.html'
p268
sg10
S'src/rockstor/storageadmin/views/login'
p269
sg12
g13
(g14
g15
NtRp270
(dp271
g18
I1
sg19
I0
sg20
I19
sg21
I0
sg22
I0
sg23
I10
sg24
I0
sbssg25
S'\xaa\x82\x89\x0f\x9c\xecAJX\x02\x7f\xd4H \xa7r'
p272
ssS'src_rockstor_storageadmin_views_disk_smart'
p273
(dp274
g6
(dp275
g41
S'src_rockstor_storageadmin_views_disk_smart.html'
p276
sg43
S'src/rockstor/storageadmin/views/disk_smart'
p277
sg45
g13
(g14
g15
NtRp278
(dp279
g18
I1
sg19
I0
sg20
I86
sg21
I0
sg22
I0
sg23
I46
sg24
I0
sbssg25
S'\xa9]\x04\xa6\xd4\xaa\x0f]\xd1$\xf6\x87\xb9\xf5\xe0d'
p280
ssS'src_rockstor_storageadmin_views_dashboardconfig'
p281
(dp282
g6
(dp283
g8
S'src_rockstor_storageadmin_views_dashboardconfig.html'
p284
sg10
S'src/rockstor/storageadmin/views/dashboardconfig'
p285
sg12
g13
(g14
g15
NtRp286
(dp287
g18
I1
sg19
I0
sg20
I54
sg21
I0
sg22
I0
sg23
I35
sg24
I0
sbssg25
S'*\x0c\xc7l\x84t\xd59R\xb1\x0b\xe7Fsk\xd7'
p288
ssS'src_rockstor_storageadmin_views_share'
p289
(dp290
g6
(dp291
g41
S'src_rockstor_storageadmin_views_share.html'
p292
sg43
S'src/rockstor/storageadmin/views/share'
p293
sg45
g13
(g14
g15
NtRp294
(dp295
g18
I1
sg19
I0
sg20
I172
sg21
I0
sg22
I0
sg23
I7
sg24
I0
sbssg25
S'\x9e\x9a\xf5\xe9\x19\x1cG\xef\xdb\x81\xbf\xff\xc6YD\xb2'
p296
ssS'src_rockstor_storageadmin_views_samba'
p297
(dp298
g6
(dp299
g41
S'src_rockstor_storageadmin_views_samba.html'
p300
sg43
S'src/rockstor/storageadmin/views/samba'
p301
sg45
g13
(g14
g15
NtRp302
(dp303
g18
I1
sg19
I0
sg20
I153
sg21
I0
sg22
I0
sg23
I5
sg24
I0
sbssg25
S'E\x913NM\xfb\x01\xfd\x1a\xa8i\xbc\x03\x89\x0e3'
p304
ssS'src_rockstor_storageadmin_views_config_backup'
p305
(dp306
g6
(dp307
g8
S'src_rockstor_storageadmin_views_config_backup.html'
p308
sg10
S'src/rockstor/storageadmin/views/config_backup'
p309
sg12
g13
(g14
g15
NtRp310
(dp311
g18
I1
sg19
I0
sg20
I206
sg21
I0
sg22
I0
sg23
I163
sg24
I0
sbssg25
S'\xfc\x1d`j#\x118\xb0\x02\xf8@\xff)\xfe\x17?'
p312
ssS'src_rockstor_storageadmin_views_group'
p313
(dp314
g6
(dp315
g41
S'src_rockstor_storageadmin_views_group.html'
p316
sg43
S'src/rockstor/storageadmin/views/group'
p317
sg45
g13
(g14
g15
NtRp318
(dp319
g18
I1
sg19
I0
sg20
I72
sg21
I0
sg22
I0
sg23
I7
sg24
I0
sbssg25
S'\xf1\x1e}+]\x15.\xb4\xffm}\xef\xe8;Y\x04'
p320
ssS'src_rockstor_storageadmin_views_share_command'
p321
(dp322
g6
(dp323
g41
S'src_rockstor_storageadmin_views_share_command.html'
p324
sg43
S'src/rockstor/storageadmin/views/share_command'
p325
sg45
g13
(g14
g15
NtRp326
(dp327
g18
I1
sg19
I0
sg20
I49
sg21
I0
sg22
I0
sg23
I0
sg24
I0
sbssg25
S'\xb2)\x13\xb7*q\x1e\xc5EN\x86\xc9D\xa8~v'
p328
ssS'src_rockstor_storageadmin_views_share_acl'
p329
(dp330
g6
(dp331
g41
S'src_rockstor_storageadmin_views_share_acl.html'
p332
sg43
S'src/rockstor/storageadmin/views/share_acl'
p333
sg45
g13
(g14
g15
NtRp334
(dp335
g18
I1
sg19
I0
sg20
I34
sg21
I0
sg22
I0
sg23
I4
sg24
I0
sbssg25
S'\xc4>\x1a\xbeq\x00Id\xf8\x17\x04V\xe5e\xed:'
p336
ssS'src_rockstor_storageadmin_views_nfs_exports'
p337
(dp338
g6
(dp339
g41
S'src_rockstor_storageadmin_views_nfs_exports.html'
p340
sg43
S'src/rockstor/storageadmin/views/nfs_exports'
p341
sg45
g13
(g14
g15
NtRp342
(dp343
g18
I1
sg19
I0
sg20
I214
sg21
I0
sg22
I0
sg23
I4
sg24
I0
sbssg25
S'\xba\x08F\xd9\x0f\xffQ\xef\x0e\x90w\x9c&\x9bH<'
p344
ssS'src_rockstor_storageadmin_views_home'
p345
(dp346
g6
(dp347
g8
S'src_rockstor_storageadmin_views_home.html'
p348
sg10
S'src/rockstor/storageadmin/views/home'
p349
sg12
g13
(g14
g15
NtRp350
(dp351
g18
I1
sg19
I0
sg20
I36
sg21
I0
sg22
I0
sg23
I24
sg24
I0
sbssg25
S'\xff\xed\xfb\x960(\x82Q\x9dp\xcd\x1a{o\x8d\x0f'
p352
sssS'version'
p353
S'3.7.1'
p354
sS'settings'
p355
S'\xe6\xc5s\x1b\x94C\xf1\xcf\x9e\xf8\xb0S\xac18\xb6'
p356
sS'format'
p357
I1
s.