(dp1
S'files'
p2
(dp3
S'src_rockstor_storageadmin_views_rockon_id'
p4
(dp5
S'index'
p6
(dp7
S'html_filename'
p8
S'src_rockstor_storageadmin_views_rockon_id.html'
p9
sS'name'
p10
S'src/rockstor/storageadmin/views/rockon_id'
p11
sS'nums'
p12
ccopy_reg
_reconstructor
p13
(ccoverage.results
Numbers
p14
c__builtin__
object
p15
NtRp16
(dp17
S'n_files'
p18
I1
sS'n_branches'
p19
I0
sS'n_statements'
p20
I142
sS'n_excluded'
p21
I0
sS'n_partial_branches'
p22
I0
sS'n_missing'
p23
I142
sS'n_missing_branches'
p24
I0
sbssS'hash'
p25
S'GS\x14\x06\xcf`[\x94\xa1s\xdc\xea\x963\xe4\xd4'
p26
ssS'src_rockstor_storageadmin_views___init__'
p27
(dp28
g6
(dp29
g8
S'src_rockstor_storageadmin_views___init__.html'
p30
sg10
S'src/rockstor/storageadmin/views/__init__'
p31
sg12
g13
(g14
g15
NtRp32
(dp33
g18
I1
sg19
I0
sg20
I36
sg21
I0
sg22
I0
sg23
I36
sg24
I0
sbssg25
S'\xbbEQ\xc8!\xe7\xd9\x1c\x13\x88\xe3\x8a\xc0\xa7\xc4\x03'
p34
ssS'src_rockstor_storageadmin_views_ug_helpers'
p35
(dp36
g6
(dp37
g8
S'src_rockstor_storageadmin_views_ug_helpers.html'
p38
sg10
S'src/rockstor/storageadmin/views/ug_helpers'
p39
sg12
g13
(g14
g15
NtRp40
(dp41
g18
I1
sg19
I0
sg20
I63
sg21
I0
sg22
I0
sg23
I63
sg24
I0
sbssg25
S'\xb4\xa2C\xad-\x11\xbb\xc6k@t>\xefm, '
p42
ssS'src_rockstor_storageadmin_views_adv_nfs_exports'
p43
(dp44
g6
(dp45
g8
S'src_rockstor_storageadmin_views_adv_nfs_exports.html'
p46
sg10
S'src/rockstor/storageadmin/views/adv_nfs_exports'
p47
sg12
g13
(g14
g15
NtRp48
(dp49
g18
I1
sg19
I0
sg20
I44
sg21
I0
sg22
I0
sg23
I44
sg24
I0
sbssg25
S'3\xa64.\xe8S!3k.1\x04<\xf9\xb0\\'
p50
ssS'src_rockstor_storageadmin_views_tls_certificate'
p51
(dp52
g6
(dp53
g8
S'src_rockstor_storageadmin_views_tls_certificate.html'
p54
sg10
S'src/rockstor/storageadmin/views/tls_certificate'
p55
sg12
g13
(g14
g15
NtRp56
(dp57
g18
I1
sg19
I0
sg20
I53
sg21
I0
sg22
I0
sg23
I53
sg24
I0
sbssg25
S"?'TIc\x177\x1c\x98X0\xde\xb9\x0e\x83\xac"
p58
ssS'src_rockstor_storageadmin_views_oauth_app'
p59
(dp60
g6
(dp61
g8
S'src_rockstor_storageadmin_views_oauth_app.html'
p62
sg10
S'src/rockstor/storageadmin/views/oauth_app'
p63
sg12
g13
(g14
g15
NtRp64
(dp65
g18
I1
sg19
I0
sg20
I47
sg21
I0
sg22
I0
sg23
I47
sg24
I0
sbssg25
S'\xab\xd5\xdfi!y{>&\xe40\x16\xd6\xc4>\xb2'
p66
ssS'src_rockstor_storageadmin_views_netatalk'
p67
(dp68
g6
(dp69
g8
S'src_rockstor_storageadmin_views_netatalk.html'
p70
sg10
S'src/rockstor/storageadmin/views/netatalk'
p71
sg12
g13
(g14
g15
NtRp72
(dp73
g18
I1
sg19
I0
sg20
I94
sg21
I0
sg22
I0
sg23
I94
sg24
I0
sbssg25
S'\x93\xc5|"\x97H\xfbt\xf5\x0c\x14\xa2;\xd2\x90\x10'
p74
ssS'src_rockstor_storageadmin_views_clone_helpers'
p75
(dp76
g6
(dp77
g8
S'src_rockstor_storageadmin_views_clone_helpers.html'
p78
sg10
S'src/rockstor/storageadmin/views/clone_helpers'
p79
sg12
g13
(g14
g15
NtRp80
(dp81
g18
I1
sg19
I0
sg20
I31
sg21
I0
sg22
I0
sg23
I31
sg24
I0
sbssg25
S'H\xf6\x04\xa3\x1e4\xbd\xb7\xd5\xcb+U\xefj\xe4\x08'
p82
ssS'src_rockstor_storageadmin_views_rockon_json'
p83
(dp84
g6
(dp85
g8
S'src_rockstor_storageadmin_views_rockon_json.html'
p86
sg10
S'src/rockstor/storageadmin/views/rockon_json'
p87
sg12
g13
(g14
g15
NtRp88
(dp89
g18
I1
sg19
I0
sg20
I10
sg21
I0
sg22
I0
sg23
I10
sg24
I0
sbssg25
S'\xdb&\x14\xd7\x1cP\x82\xa2\x10\xd3TM\r\xa9TP'
p90
ssS'src_rockstor_storageadmin_views_snapshot'
p91
(dp92
g6
(dp93
g8
S'src_rockstor_storageadmin_views_snapshot.html'
p94
sg10
S'src/rockstor/storageadmin/views/snapshot'
p95
sg12
g13
(g14
g15
NtRp96
(dp97
g18
I1
sg19
I0
sg20
I157
sg21
I0
sg22
I0
sg23
I157
sg24
I0
sbssg25
S'S\xa7\xc2\xf8\x0f\\\x02:\xfa\x1a5\xcf\xf1\x0e\x0b\xae'
p98
ssS'src_rockstor_storageadmin_views_user'
p99
(dp100
g6
(dp101
g8
S'src_rockstor_storageadmin_views_user.html'
p102
sg10
S'src/rockstor/storageadmin/views/user'
p103
sg12
g13
(g14
g15
NtRp104
(dp105
g18
I1
sg19
I0
sg20
I206
sg21
I0
sg22
I0
sg23
I206
sg24
I0
sbssg25
S"7toH_\xac\xa5\xf0w\x10\xd7.\xa0'\x1a1"
p106
ssS'src_rockstor_storageadmin_views_views'
p107
(dp108
g6
(dp109
g8
S'src_rockstor_storageadmin_views_views.html'
p110
sg10
S'src/rockstor/storageadmin/views/views'
p111
sg12
g13
(g14
g15
NtRp112
(dp113
g18
I1
sg19
I0
sg20
I0
sg21
I0
sg22
I0
sg23
I0
sg24
I0
sbssg25
S'{\xd99q\x98)\xfekT\xb8H7M\x1c\x94\xba'
p114
ssS'src_rockstor_storageadmin_views_rockon_helpers'
p115
(dp116
g6
(dp117
g8
S'src_rockstor_storageadmin_views_rockon_helpers.html'
p118
sg10
S'src/rockstor/storageadmin/views/rockon_helpers'
p119
sg12
g13
(g14
g15
NtRp120
(dp121
g18
I1
sg19
I0
sg20
I195
sg21
I0
sg22
I0
sg23
I195
sg24
I0
sbssg25
S'1\xcbb\xb8\x87\x1b\xeak\xbap\\\x0f.\x0e\x91\x12'
p122
ssS'src_rockstor_storageadmin_views_share_iscsi'
p123
(dp124
g6
(dp125
g8
S'src_rockstor_storageadmin_views_share_iscsi.html'
p126
sg10
S'src/rockstor/storageadmin/views/share_iscsi'
p127
sg12
g13
(g14
g15
NtRp128
(dp129
g18
I1
sg19
I0
sg20
I58
sg21
I0
sg22
I0
sg23
I58
sg24
I0
sbssg25
S'\x80\x1e;\xe3\x06\x87\xad\x99\xb9\x86\xbd\x00\xbc#=R'
p130
ssS'src_rockstor_storageadmin_views_setup_user'
p131
(dp132
g6
(dp133
g8
S'src_rockstor_storageadmin_views_setup_user.html'
p134
sg10
S'src/rockstor/storageadmin/views/setup_user'
p135
sg12
g13
(g14
g15
NtRp136
(dp137
g18
I1
sg19
I0
sg20
I32
sg21
I0
sg22
I0
sg23
I32
sg24
I0
sbssg25
S'P[/\x9dk2\x85o\xfe\xf1\xe5^Z\x89\xfe!'
p138
ssS'src_rockstor_storageadmin_views_pool_balance'
p139
(dp140
g6
(dp141
g8
S'src_rockstor_storageadmin_views_pool_balance.html'
p142
sg10
S'src/rockstor/storageadmin/views/pool_balance'
p143
sg12
g13
(g14
g15
NtRp144
(dp145
g18
I1
sg19
I0
sg20
I67
sg21
I0
sg22
I0
sg23
I67
sg24
I0
sbssg25
S"s`)\xad\xb4\xe6\x1a\x93\x1f\xdf\xce\r\xc0'PC"
p146
ssS'src_rockstor_storageadmin_views_rockon_volume'
p147
(dp148
g6
(dp149
g8
S'src_rockstor_storageadmin_views_rockon_volume.html'
p150
sg10
S'src/rockstor/storageadmin/views/rockon_volume'
p151
sg12
g13
(g14
g15
NtRp152
(dp153
g18
I1
sg19
I0
sg20
I14
sg21
I0
sg22
I0
sg23
I14
sg24
I0
sbssg25
S'\xe1+l\xe8\xce\xe2\xf2\xd8]\xc5\x9d6\x86C\x86Z'
p154
ssS'src_rockstor_storageadmin_views_pool_scrub'
p155
(dp156
g6
(dp157
g8
S'src_rockstor_storageadmin_views_pool_scrub.html'
p158
sg10
S'src/rockstor/storageadmin/views/pool_scrub'
p159
sg12
g13
(g14
g15
NtRp160
(dp161
g18
I1
sg19
I0
sg20
I58
sg21
I0
sg22
I0
sg23
I58
sg24
I0
sbssg25
S'@\xd0\xbc\xec\x9d\x9a\x9ev\xbe\xc0\xc7\xe3.\xbc\x94\xb5'
p162
ssS'src_rockstor_storageadmin_views_email'
p163
(dp164
g6
(dp165
g8
S'src_rockstor_storageadmin_views_email.html'
p166
sg10
S'src/rockstor/storageadmin/views/email'
p167
sg12
g13
(g14
g15
NtRp168
(dp169
g18
I1
sg19
I0
sg20
I79
sg21
I0
sg22
I0
sg23
I79
sg24
I0
sbssg25
S"\x95\x86R\x93\x8b>\x17\x16\x02b\xb2'h\xeb\xa3\t"
p170
ssS'src_rockstor_storageadmin_views_rockon'
p171
(dp172
g6
(dp173
g8
S'src_rockstor_storageadmin_views_rockon.html'
p174
sg10
S'src/rockstor/storageadmin/views/rockon'
p175
sg12
g13
(g14
g15
NtRp176
(dp177
g18
I1
sg19
I0
sg20
I166
sg21
I0
sg22
I0
sg23
I166
sg24
I0
sbssg25
S'\x0b\xa1\xc94\x1e@xG\x90\xfd\x15{d\x19\xe34'
p178
ssS'src_rockstor_storageadmin_views_sftp'
p179
(dp180
g6
(dp181
g8
S'src_rockstor_storageadmin_views_sftp.html'
p182
sg10
S'src/rockstor/storageadmin/views/sftp'
p183
sg12
g13
(g14
g15
NtRp184
(dp185
g18
I1
sg19
I0
sg20
I79
sg21
I0
sg22
I0
sg23
I79
sg24
I0
sbssg25
S'\xc4\xb3\x1f\x15K\xb6k\xe8; \xa7\xb9\xdeC\xda\xc1'
p186
ssS'src_rockstor_storageadmin_views_pool'
p187
(dp188
g6
(dp189
g8
S'src_rockstor_storageadmin_views_pool.html'
p190
sg10
S'src/rockstor/storageadmin/views/pool'
p191
sg12
g13
(g14
g15
NtRp192
(dp193
g18
I1
sg19
I0
sg20
I267
sg21
I0
sg22
I0
sg23
I267
sg24
I0
sbssg25
S'\xb6\x98o\x14\xf7\xdak\x92\x83\x17$\xb4\xe7"\x80l'
p194
ssS'src_rockstor_storageadmin_views_network'
p195
(dp196
g6
(dp197
g8
S'src_rockstor_storageadmin_views_network.html'
p198
sg10
S'src/rockstor/storageadmin/views/network'
p199
sg12
g13
(g14
g15
NtRp200
(dp201
g18
I1
sg19
I0
sg20
I122
sg21
I0
sg22
I0
sg23
I122
sg24
I0
sbssg25
S'\xe2\xd0\xf7t\x1e\xa6\xf9L\x99\x1a^\x97\xe3&\xd4$'
p202
ssS'src_rockstor_storageadmin_views_command'
p203
(dp204
g6
(dp205
S'html_filename'
p206
S'src_rockstor_storageadmin_views_command.html'
p207
sS'name'
p208
S'src/rockstor/storageadmin/views/command'
p209
sS'nums'
p210
g13
(g14
g15
NtRp211
(dp212
g18
I1
sg19
I0
sg20
I262
sg21
I0
sg22
I0
sg23
I262
sg24
I0
sbssg25
S'\xdfC"x\xa8R\\{\x80y\x91 m,\x99\x1e'
p213
ssS'src_rockstor_storageadmin_views_support'
p214
(dp215
g6
(dp216
g8
S'src_rockstor_storageadmin_views_support.html'
p217
sg10
S'src/rockstor/storageadmin/views/support'
p218
sg12
g13
(g14
g15
NtRp219
(dp220
g18
I1
sg19
I0
sg20
I74
sg21
I0
sg22
I0
sg23
I74
sg24
I0
sbssg25
S'P\xea\xcdP\x0c\xf5\x9e\xda^\x92\xf4\xbd\xff\x03=\xef'
p221
ssS'src_rockstor_storageadmin_views_disk'
p222
(dp223
g6
(dp224
g8
S'src_rockstor_storageadmin_views_disk.html'
p225
sg10
S'src/rockstor/storageadmin/views/disk'
p226
sg12
g13
(g14
g15
NtRp227
(dp228
g18
I1
sg19
I0
sg20
I163
sg21
I0
sg22
I0
sg23
I163
sg24
I0
sbssg25
S'"M\xba\x8e\xee\xfc\xd5.\x8a\xa0\xb9\x04\x03y\x89\xf7'
p229
ssS'src_rockstor_storageadmin_views_share_helpers'
p230
(dp231
g6
(dp232
g8
S'src_rockstor_storageadmin_views_share_helpers.html'
p233
sg10
S'src/rockstor/storageadmin/views/share_helpers'
p234
sg12
g13
(g14
g15
NtRp235
(dp236
g18
I1
sg19
I0
sg20
I34
sg21
I0
sg22
I0
sg23
I34
sg24
I0
sbssg25
S'\x0c\x96\x89G{z\xe2\xa8\xd3\x95\xc3m\x04R\xd3\xb0'
p237
ssS'src_rockstor_storageadmin_views_rockon_custom_config'
p238
(dp239
g6
(dp240
g8
S'src_rockstor_storageadmin_views_rockon_custom_config.html'
p241
sg10
S'src/rockstor/storageadmin/views/rockon_custom_config'
p242
sg12
g13
(g14
g15
NtRp243
(dp244
g18
I1
sg19
I0
sg20
I13
sg21
I0
sg22
I0
sg23
I13
sg24
I0
sbssg25
S"\x1f5m\x11\xca O\x06'>\x80\n\xe8\xc1\x15B"
p245
ssS'src_rockstor_storageadmin_views_share_nfs'
p246
(dp247
g6
(dp248
g8
S'src_rockstor_storageadmin_views_share_nfs.html'
p249
sg10
S'src/rockstor/storageadmin/views/share_nfs'
p250
sg12
g13
(g14
g15
NtRp251
(dp252
g18
I1
sg19
I0
sg20
I81
sg21
I0
sg22
I0
sg23
I81
sg24
I0
sbssg25
S'\xde\xb2\t2\xa4S6;\\\xcal\x00\x08PT\xc1'
p253
ssS'src_rockstor_storageadmin_views_rockon_port'
p254
(dp255
g6
(dp256
g8
S'src_rockstor_storageadmin_views_rockon_port.html'
p257
sg10
S'src/rockstor/storageadmin/views/rockon_port'
p258
sg12
g13
(g14
g15
NtRp259
(dp260
g18
I1
sg19
I0
sg20
I14
sg21
I0
sg22
I0
sg23
I14
sg24
I0
sbssg25
S'\xce\x1a\x1b\xe2\x8b\x08\xc8W~\x92\xbcD\xe8\x13\xd7h'
p261
ssS'src_rockstor_storageadmin_views_login'
p262
(dp263
g6
(dp264
g8
S'src_rockstor_storageadmin_views_login.html'
p265
sg10
S'src/rockstor/storageadmin/views/login'
p266
sg12
g13
(g14
g15
NtRp267
(dp268
g18
I1
sg19
I0
sg20
I19
sg21
I0
sg22
I0
sg23
I19
sg24
I0
sbssg25
S'\x98\x1d=q\xb7\x1cuMJ0\xfa\xb7P\xfa\x8c;'
p269
ssS'src_rockstor_storageadmin_views_disk_smart'
p270
(dp271
g6
(dp272
g8
S'src_rockstor_storageadmin_views_disk_smart.html'
p273
sg10
S'src/rockstor/storageadmin/views/disk_smart'
p274
sg12
g13
(g14
g15
NtRp275
(dp276
g18
I1
sg19
I0
sg20
I86
sg21
I0
sg22
I0
sg23
I86
sg24
I0
sbssg25
S"(k#\x9flz'\x81\xde(D\xf1\xd9\x00H\xf0"
p277
ssS'src_rockstor_storageadmin_views_dashboardconfig'
p278
(dp279
g6
(dp280
g8
S'src_rockstor_storageadmin_views_dashboardconfig.html'
p281
sg10
S'src/rockstor/storageadmin/views/dashboardconfig'
p282
sg12
g13
(g14
g15
NtRp283
(dp284
g18
I1
sg19
I0
sg20
I54
sg21
I0
sg22
I0
sg23
I54
sg24
I0
sbssg25
S'\x9fu\t\xf5\x92\x7f9X\x06\xb6c\xc5;2:\xf0'
p285
ssS'src_rockstor_storageadmin_views_nfs_helpers'
p286
(dp287
g6
(dp288
g8
S'src_rockstor_storageadmin_views_nfs_helpers.html'
p289
sg10
S'src/rockstor/storageadmin/views/nfs_helpers'
p290
sg12
g13
(g14
g15
NtRp291
(dp292
g18
I1
sg19
I0
sg20
I75
sg21
I0
sg22
I0
sg23
I75
sg24
I0
sbssg25
S'\xcf\xed\xd6\x0bzYY\xe8EW\x11\xc4\x99\xbb\x94\xae'
p293
ssS'src_rockstor_storageadmin_views_share'
p294
(dp295
g6
(dp296
g8
S'src_rockstor_storageadmin_views_share.html'
p297
sg10
S'src/rockstor/storageadmin/views/share'
p298
sg12
g13
(g14
g15
NtRp299
(dp300
g18
I1
sg19
I0
sg20
I169
sg21
I0
sg22
I0
sg23
I169
sg24
I0
sbssg25
S'6u\x0cb\x9c\xa5x\xdc\xb7\x05\xa1K\xa3\xdb\xaf)'
p301
ssS'src_rockstor_storageadmin_views_samba'
p302
(dp303
g6
(dp304
g8
S'src_rockstor_storageadmin_views_samba.html'
p305
sg10
S'src/rockstor/storageadmin/views/samba'
p306
sg12
g13
(g14
g15
NtRp307
(dp308
g18
I1
sg19
I0
sg20
I146
sg21
I0
sg22
I0
sg23
I146
sg24
I0
sbssg25
S'\xd6\xde\x9e\x0e)\xff\x94\xe3\x04I\\\\(\xd6%V'
p309
ssS'src_rockstor_storageadmin_views_config_backup'
p310
(dp311
g6
(dp312
g8
S'src_rockstor_storageadmin_views_config_backup.html'
p313
sg10
S'src/rockstor/storageadmin/views/config_backup'
p314
sg12
g13
(g14
g15
NtRp315
(dp316
g18
I1
sg19
I0
sg20
I206
sg21
I0
sg22
I0
sg23
I206
sg24
I0
sbssg25
S'\x86\x02Nq\x9c\x9a\t\x14\xc8\x95\xe4N\xb8bgq'
p317
ssS'src_rockstor_storageadmin_views_group'
p318
(dp319
g6
(dp320
g8
S'src_rockstor_storageadmin_views_group.html'
p321
sg10
S'src/rockstor/storageadmin/views/group'
p322
sg12
g13
(g14
g15
NtRp323
(dp324
g18
I1
sg19
I0
sg20
I72
sg21
I0
sg22
I0
sg23
I72
sg24
I0
sbssg25
S'1*\xff\xf8[\x1b]\x8a8\x04\xf5\xb7\\SD\x11'
p325
ssS'src_rockstor_storageadmin_views_share_command'
p326
(dp327
g6
(dp328
g8
S'src_rockstor_storageadmin_views_share_command.html'
p329
sg10
S'src/rockstor/storageadmin/views/share_command'
p330
sg12
g13
(g14
g15
NtRp331
(dp332
g18
I1
sg19
I0
sg20
I49
sg21
I0
sg22
I0
sg23
I49
sg24
I0
sbssg25
S'\x1dq?\xe6\xd1.AC\xb1\xa9\x0e\x0f\xfa\xc3\xedn'
p333
ssS'src_rockstor_storageadmin_views_share_acl'
p334
(dp335
g6
(dp336
g8
S'src_rockstor_storageadmin_views_share_acl.html'
p337
sg10
S'src/rockstor/storageadmin/views/share_acl'
p338
sg12
g13
(g14
g15
NtRp339
(dp340
g18
I1
sg19
I0
sg20
I34
sg21
I0
sg22
I0
sg23
I34
sg24
I0
sbssg25
S'\xae\xba(\x9b\x80jF\xf8dn\xb6 \xafl\x04\xcc'
p341
ssS'src_rockstor_storageadmin_views_appliances'
p342
(dp343
g6
(dp344
g8
S'src_rockstor_storageadmin_views_appliances.html'
p345
sg10
S'src/rockstor/storageadmin/views/appliances'
p346
sg12
g13
(g14
g15
NtRp347
(dp348
g18
I1
sg19
I0
sg20
I114
sg21
I0
sg22
I0
sg23
I114
sg24
I0
sbssg25
S'\x95\x93\xab(\x11\xdf\xf8X\xc4\x8e\xee:\x1f\xfd\x08e'
p349
ssS'src_rockstor_storageadmin_views_nfs_exports'
p350
(dp351
g6
(dp352
g8
S'src_rockstor_storageadmin_views_nfs_exports.html'
p353
sg10
S'src/rockstor/storageadmin/views/nfs_exports'
p354
sg12
g13
(g14
g15
NtRp355
(dp356
g18
I1
sg19
I0
sg20
I107
sg21
I0
sg22
I0
sg23
I107
sg24
I0
sbssg25
S'\x9aZ\x97}\xcc~\x13\xf1\n\xf9\xc9\xaf\x11\xe6\xb8?'
p357
ssS'src_rockstor_storageadmin_views_home'
p358
(dp359
g6
(dp360
g8
S'src_rockstor_storageadmin_views_home.html'
p361
sg10
S'src/rockstor/storageadmin/views/home'
p362
sg12
g13
(g14
g15
NtRp363
(dp364
g18
I1
sg19
I0
sg20
I36
sg21
I0
sg22
I0
sg23
I36
sg24
I0
sbssg25
S'8\xc1q.\x93\xe3Y\xcf\x15Z\xc3\xcfa\x91\xb4\x11'
p365
sssS'version'
p366
S'3.7.1'
p367
sS'settings'
p368
S'6AB7\xc7/y\xe0\x1f\x19l\xd4\xc8\x9c\x00D'
p369
sS'format'
p370
I1
s.