(dp1
S'files'
p2
(dp3
S'src_rockstor_storageadmin_views_rockon_id'
p4
(dp5
S'index'
p6
(dp7
S'html_filename'
p8
S'src_rockstor_storageadmin_views_rockon_id.html'
p9
sS'name'
p10
S'src/rockstor/storageadmin/views/rockon_id'
p11
sS'nums'
p12
ccopy_reg
_reconstructor
p13
(ccoverage.results
Numbers
p14
c__builtin__
object
p15
NtRp16
(dp17
S'n_files'
p18
I1
sS'n_branches'
p19
I0
sS'n_statements'
p20
I142
sS'n_excluded'
p21
I0
sS'n_partial_branches'
p22
I0
sS'n_missing'
p23
I125
sS'n_missing_branches'
p24
I0
sbssS'hash'
p25
S'Q*\x06\xf1;yM\xf1\x8e\x89\xe6\xed\xd31\x14{'
p26
ssS'src_rockstor_storageadmin_views___init__'
p27
(dp28
g6
(dp29
g8
S'src_rockstor_storageadmin_views___init__.html'
p30
sg10
S'src/rockstor/storageadmin/views/__init__'
p31
sg12
g13
(g14
g15
NtRp32
(dp33
g18
I1
sg19
I0
sg20
I34
sg21
I0
sg22
I0
sg23
I0
sg24
I0
sbssg25
S'\xfas\x16#Tc\xc4\xffm\x17\xcah\xed\xd9\x98\xfa'
p34
ssS'src_rockstor_storageadmin_views_ug_helpers'
p35
(dp36
g6
(dp37
S'html_filename'
p38
S'src_rockstor_storageadmin_views_ug_helpers.html'
p39
sS'name'
p40
S'src/rockstor/storageadmin/views/ug_helpers'
p41
sS'nums'
p42
g13
(g14
g15
NtRp43
(dp44
g18
I1
sg19
I0
sg20
I63
sg21
I0
sg22
I0
sg23
I31
sg24
I0
sbssg25
S'\x19B~k\xfb\xa4\xefXr!\x99\xae\\\xfd\x9bu'
p45
ssS'src_rockstor_storageadmin_views_tls_certificate'
p46
(dp47
g6
(dp48
g8
S'src_rockstor_storageadmin_views_tls_certificate.html'
p49
sg10
S'src/rockstor/storageadmin/views/tls_certificate'
p50
sg12
g13
(g14
g15
NtRp51
(dp52
g18
I1
sg19
I0
sg20
I53
sg21
I0
sg22
I0
sg23
I35
sg24
I0
sbssg25
S'#\xeb[\x90\x1f\xb65\xd6\x0b\xeb}\x97\x8e\x85S\x82'
p53
ssS'src_rockstor_storageadmin_views_oauth_app'
p54
(dp55
g6
(dp56
g8
S'src_rockstor_storageadmin_views_oauth_app.html'
p57
sg10
S'src/rockstor/storageadmin/views/oauth_app'
p58
sg12
g13
(g14
g15
NtRp59
(dp60
g18
I1
sg19
I0
sg20
I51
sg21
I0
sg22
I0
sg23
I37
sg24
I0
sbssg25
S'\x8c\xa7Ff\xe9us5b\xed,2\xc7\x88{\xf7'
p61
ssS'src_rockstor_storageadmin_views_rockon_helpers'
p62
(dp63
g6
(dp64
g8
S'src_rockstor_storageadmin_views_rockon_helpers.html'
p65
sg10
S'src/rockstor/storageadmin/views/rockon_helpers'
p66
sg12
g13
(g14
g15
NtRp67
(dp68
g18
I1
sg19
I0
sg20
I195
sg21
I0
sg22
I0
sg23
I160
sg24
I0
sbssg25
S'I\xb1\xb0f\x95\xf0\x8dm\xad\xd7\xec\xe1C\xe5\x00\x9d'
p69
ssS'src_rockstor_storageadmin_views_clone_helpers'
p70
(dp71
g6
(dp72
g8
S'src_rockstor_storageadmin_views_clone_helpers.html'
p73
sg10
S'src/rockstor/storageadmin/views/clone_helpers'
p74
sg12
g13
(g14
g15
NtRp75
(dp76
g18
I1
sg19
I0
sg20
I31
sg21
I0
sg22
I0
sg23
I23
sg24
I0
sbssg25
S'\x07\x18\x1d\x01\x19s\xd9\x9f/\xe5\xe9\xb4P\x80\xd2m'
p77
ssS'src_rockstor_storageadmin_views_netatalk'
p78
(dp79
g6
(dp80
g8
S'src_rockstor_storageadmin_views_netatalk.html'
p81
sg10
S'src/rockstor/storageadmin/views/netatalk'
p82
sg12
g13
(g14
g15
NtRp83
(dp84
g18
I1
sg19
I0
sg20
I93
sg21
I0
sg22
I0
sg23
I13
sg24
I0
sbssg25
S'vH\xe2\xee\xf2$\x02`\xc5N\x84\xfa\x8f\x81\x84k'
p85
ssS'src_rockstor_storageadmin_views_snapshot'
p86
(dp87
g6
(dp88
g8
S'src_rockstor_storageadmin_views_snapshot.html'
p89
sg10
S'src/rockstor/storageadmin/views/snapshot'
p90
sg12
g13
(g14
g15
NtRp91
(dp92
g18
I1
sg19
I0
sg20
I156
sg21
I0
sg22
I0
sg23
I128
sg24
I0
sbssg25
S'[K>\xb7\xb2\xfe\x99\xb7l\xea\xfa%\xaf\xf0\xb4R'
p93
ssS'src_rockstor_storageadmin_views_user'
p94
(dp95
g6
(dp96
g38
S'src_rockstor_storageadmin_views_user.html'
p97
sg40
S'src/rockstor/storageadmin/views/user'
p98
sg42
g13
(g14
g15
NtRp99
(dp100
g18
I1
sg19
I0
sg20
I214
sg21
I0
sg22
I0
sg23
I15
sg24
I0
sbssg25
S'\x7f\x87\xcf\xf6\x84\xd2\xdf\xfb\xb8\xcf~\xb8z[\xf0\xdb'
p101
ssS'src_rockstor_storageadmin_views_views'
p102
(dp103
g6
(dp104
g8
S'src_rockstor_storageadmin_views_views.html'
p105
sg10
S'src/rockstor/storageadmin/views/views'
p106
sg12
g13
(g14
g15
NtRp107
(dp108
g18
I1
sg19
I0
sg20
I0
sg21
I0
sg22
I0
sg23
I0
sg24
I0
sbssg25
S'{\xd99q\x98)\xfekT\xb8H7M\x1c\x94\xba'
p109
ssS'src_rockstor_storageadmin_views_support'
p110
(dp111
g6
(dp112
g8
S'src_rockstor_storageadmin_views_support.html'
p113
sg10
S'src/rockstor/storageadmin/views/support'
p114
sg12
g13
(g14
g15
NtRp115
(dp116
g18
I1
sg19
I0
sg20
I74
sg21
I0
sg22
I0
sg23
I49
sg24
I0
sbssg25
S'\xbdKJ\xfd\x10d\xf2\xd6&%\x7f!\x19w\x14\xe2'
p117
ssS'src_rockstor_storageadmin_views_share_iscsi'
p118
(dp119
g6
(dp120
g8
S'src_rockstor_storageadmin_views_share_iscsi.html'
p121
sg10
S'src/rockstor/storageadmin/views/share_iscsi'
p122
sg12
g13
(g14
g15
NtRp123
(dp124
g18
I1
sg19
I0
sg20
I58
sg21
I0
sg22
I0
sg23
I42
sg24
I0
sbssg25
S'\xa1\x18T\xa1\x93\xf1\xac\xc8-\xa5H\xac\x12 \x8aO'
p125
ssS'src_rockstor_storageadmin_views_setup_user'
p126
(dp127
g6
(dp128
g8
S'src_rockstor_storageadmin_views_setup_user.html'
p129
sg10
S'src/rockstor/storageadmin/views/setup_user'
p130
sg12
g13
(g14
g15
NtRp131
(dp132
g18
I1
sg19
I0
sg20
I32
sg21
I0
sg22
I0
sg23
I20
sg24
I0
sbssg25
S'\xec\x94\x84\x1a\x9aM2\xb5p\xca\xa2\x96\x95\x1cq\n'
p133
ssS'src_rockstor_storageadmin_views_pool_balance'
p134
(dp135
g6
(dp136
g8
S'src_rockstor_storageadmin_views_pool_balance.html'
p137
sg10
S'src/rockstor/storageadmin/views/pool_balance'
p138
sg12
g13
(g14
g15
NtRp139
(dp140
g18
I1
sg19
I0
sg20
I67
sg21
I0
sg22
I0
sg23
I47
sg24
I0
sbssg25
S'9x\xa8\xcf\x0f\xaa\xf9\xbf\x81\xed\xc1TJ\xf8\xff='
p141
ssS'src_rockstor_storageadmin_views_pool'
p142
(dp143
g6
(dp144
g38
S'src_rockstor_storageadmin_views_pool.html'
p145
sg40
S'src/rockstor/storageadmin/views/pool'
p146
sg42
g13
(g14
g15
NtRp147
(dp148
g18
I1
sg19
I0
sg20
I289
sg21
I0
sg22
I0
sg23
I32
sg24
I0
sbssg25
S's\r\x8beL\x8e\x11<M/\xb1Q\xbb*\x8eS'
p149
ssS'src_rockstor_storageadmin_views_pool_scrub'
p150
(dp151
g6
(dp152
g8
S'src_rockstor_storageadmin_views_pool_scrub.html'
p153
sg10
S'src/rockstor/storageadmin/views/pool_scrub'
p154
sg12
g13
(g14
g15
NtRp155
(dp156
g18
I1
sg19
I0
sg20
I58
sg21
I0
sg22
I0
sg23
I41
sg24
I0
sbssg25
S'\x9a\xef\xa4\x9f\x7f\xb4\xf4\xbeo\xca\x8e\xbeG\xd1N\xae'
p157
ssS'src_rockstor_storageadmin_views_email'
p158
(dp159
g6
(dp160
g8
S'src_rockstor_storageadmin_views_email.html'
p161
sg10
S'src/rockstor/storageadmin/views/email'
p162
sg12
g13
(g14
g15
NtRp163
(dp164
g18
I1
sg19
I0
sg20
I79
sg21
I0
sg22
I0
sg23
I52
sg24
I0
sbssg25
S'\xc8\xf24\x98\x7f\xa1u\x86\x80\x9c\x7fg\xc2\xc8\xd7\xcb'
p165
ssS'src_rockstor_storageadmin_views_rockon'
p166
(dp167
g6
(dp168
g8
S'src_rockstor_storageadmin_views_rockon.html'
p169
sg10
S'src/rockstor/storageadmin/views/rockon'
p170
sg12
g13
(g14
g15
NtRp171
(dp172
g18
I1
sg19
I0
sg20
I166
sg21
I0
sg22
I0
sg23
I145
sg24
I0
sbssg25
S'G<i\x8e\xb8p\xcf#\xec\x9f+\xf89\xc9\xb1\xf5'
p173
ssS'src_rockstor_storageadmin_views_sftp'
p174
(dp175
g6
(dp176
g8
S'src_rockstor_storageadmin_views_sftp.html'
p177
sg10
S'src/rockstor/storageadmin/views/sftp'
p178
sg12
g13
(g14
g15
NtRp179
(dp180
g18
I1
sg19
I0
sg20
I79
sg21
I0
sg22
I0
sg23
I13
sg24
I0
sbssg25
S'u\xbf\xb7\xcf\xa9\xff\x88m\xfd\xa5\xf2>\xd4\xf4\x19\xb4'
p181
ssS'src_rockstor_storageadmin_views_rockon_json'
p182
(dp183
g6
(dp184
g8
S'src_rockstor_storageadmin_views_rockon_json.html'
p185
sg10
S'src/rockstor/storageadmin/views/rockon_json'
p186
sg12
g13
(g14
g15
NtRp187
(dp188
g18
I1
sg19
I0
sg20
I10
sg21
I0
sg22
I0
sg23
I10
sg24
I0
sbssg25
S'\xdb&\x14\xd7\x1cP\x82\xa2\x10\xd3TM\r\xa9TP'
p189
ssS'src_rockstor_storageadmin_views_rockon_volume'
p190
(dp191
g6
(dp192
g8
S'src_rockstor_storageadmin_views_rockon_volume.html'
p193
sg10
S'src/rockstor/storageadmin/views/rockon_volume'
p194
sg12
g13
(g14
g15
NtRp195
(dp196
g18
I1
sg19
I0
sg20
I14
sg21
I0
sg22
I0
sg23
I7
sg24
I0
sbssg25
S'\xf9\x1eb\xf5\x1c\x14\xfbh-\xd2\x9fJ\x90=\xafH'
p197
ssS'src_rockstor_storageadmin_views_network'
p198
(dp199
g6
(dp200
g8
S'src_rockstor_storageadmin_views_network.html'
p201
sg10
S'src/rockstor/storageadmin/views/network'
p202
sg12
g13
(g14
g15
NtRp203
(dp204
g18
I1
sg19
I0
sg20
I157
sg21
I0
sg22
I0
sg23
I126
sg24
I0
sbssg25
S'\xa8`\x04\xbc\x8a\xd9<h\x10\xb5\xf5vkF8\xbe'
p205
ssS'src_rockstor_storageadmin_views_command'
p206
(dp207
g6
(dp208
g8
S'src_rockstor_storageadmin_views_command.html'
p209
sg10
S'src/rockstor/storageadmin/views/command'
p210
sg12
g13
(g14
g15
NtRp211
(dp212
g18
I1
sg19
I0
sg20
I193
sg21
I0
sg22
I0
sg23
I167
sg24
I0
sbssg25
S'\xe08W\x13\x0c\xfa\x98\x050]\x83\xe3\xc0\xd5\xb3w'
p213
ssS'src_rockstor_storageadmin_views_disk'
p214
(dp215
g6
(dp216
g38
S'src_rockstor_storageadmin_views_disk.html'
p217
sg40
S'src/rockstor/storageadmin/views/disk'
p218
sg42
g13
(g14
g15
NtRp219
(dp220
g18
I1
sg19
I0
sg20
I170
sg21
I0
sg22
I0
sg23
I92
sg24
I0
sbssg25
S'zc\x1f\x84\xc6Y\xf7\xb0\x03\xed\xf3R\xeddi\xad'
p221
ssS'src_rockstor_storageadmin_views_share_helpers'
p222
(dp223
g6
(dp224
g8
S'src_rockstor_storageadmin_views_share_helpers.html'
p225
sg10
S'src/rockstor/storageadmin/views/share_helpers'
p226
sg12
g13
(g14
g15
NtRp227
(dp228
g18
I1
sg19
I0
sg20
I106
sg21
I0
sg22
I0
sg23
I88
sg24
I0
sbssg25
S'\x85X\xa9!\xc2)\xeb\xee\x98\xd9\x01\\\x12\\\xa8\xe8'
p229
ssS'src_rockstor_storageadmin_views_rockon_custom_config'
p230
(dp231
g6
(dp232
g8
S'src_rockstor_storageadmin_views_rockon_custom_config.html'
p233
sg10
S'src/rockstor/storageadmin/views/rockon_custom_config'
p234
sg12
g13
(g14
g15
NtRp235
(dp236
g18
I1
sg19
I0
sg20
I13
sg21
I0
sg22
I0
sg23
I6
sg24
I0
sbssg25
S'\x94V\xf46\xb3\xb9\x15\x8b*~\xddTb\xcb\xe8='
p237
ssS'src_rockstor_storageadmin_views_appliances'
p238
(dp239
g6
(dp240
g8
S'src_rockstor_storageadmin_views_appliances.html'
p241
sg10
S'src/rockstor/storageadmin/views/appliances'
p242
sg12
g13
(g14
g15
NtRp243
(dp244
g18
I1
sg19
I0
sg20
I114
sg21
I0
sg22
I0
sg23
I90
sg24
I0
sbssg25
S'\t\xf6\x94\xad\x1dZ`v\x9a\x01m\x1e6\xacV\xbb'
p245
ssS'src_rockstor_storageadmin_views_rockon_port'
p246
(dp247
g6
(dp248
g8
S'src_rockstor_storageadmin_views_rockon_port.html'
p249
sg10
S'src/rockstor/storageadmin/views/rockon_port'
p250
sg12
g13
(g14
g15
NtRp251
(dp252
g18
I1
sg19
I0
sg20
I14
sg21
I0
sg22
I0
sg23
I7
sg24
I0
sbssg25
S'=\xe8\x94\x1e\xce\xb5*f\xad\x8f\xba\x14\x922M\xb0'
p253
ssS'src_rockstor_storageadmin_views_login'
p254
(dp255
g6
(dp256
g8
S'src_rockstor_storageadmin_views_login.html'
p257
sg10
S'src/rockstor/storageadmin/views/login'
p258
sg12
g13
(g14
g15
NtRp259
(dp260
g18
I1
sg19
I0
sg20
I19
sg21
I0
sg22
I0
sg23
I10
sg24
I0
sbssg25
S'\xaa\x82\x89\x0f\x9c\xecAJX\x02\x7f\xd4H \xa7r'
p261
ssS'src_rockstor_storageadmin_views_disk_smart'
p262
(dp263
g6
(dp264
g8
S'src_rockstor_storageadmin_views_disk_smart.html'
p265
sg10
S'src/rockstor/storageadmin/views/disk_smart'
p266
sg12
g13
(g14
g15
NtRp267
(dp268
g18
I1
sg19
I0
sg20
I86
sg21
I0
sg22
I0
sg23
I64
sg24
I0
sbssg25
S'\x9e\x82\x0f\x03)\x90|\xf1Z\xf2\x0b\xe7\xa0#\x93)'
p269
ssS'src_rockstor_storageadmin_views_dashboardconfig'
p270
(dp271
g6
(dp272
g8
S'src_rockstor_storageadmin_views_dashboardconfig.html'
p273
sg10
S'src/rockstor/storageadmin/views/dashboardconfig'
p274
sg12
g13
(g14
g15
NtRp275
(dp276
g18
I1
sg19
I0
sg20
I54
sg21
I0
sg22
I0
sg23
I35
sg24
I0
sbssg25
S'*\x0c\xc7l\x84t\xd59R\xb1\x0b\xe7Fsk\xd7'
p277
ssS'src_rockstor_storageadmin_views_share'
p278
(dp279
g6
(dp280
g38
S'src_rockstor_storageadmin_views_share.html'
p281
sg40
S'src/rockstor/storageadmin/views/share'
p282
sg42
g13
(g14
g15
NtRp283
(dp284
g18
I1
sg19
I0
sg20
I172
sg21
I0
sg22
I0
sg23
I91
sg24
I0
sbssg25
S'6\x96\xd0,\xeeuq\xd3\x1a\x84}\xb1\xb3\x95\xae\x85'
p285
ssS'src_rockstor_storageadmin_views_samba'
p286
(dp287
g6
(dp288
g38
S'src_rockstor_storageadmin_views_samba.html'
p289
sg40
S'src/rockstor/storageadmin/views/samba'
p290
sg42
g13
(g14
g15
NtRp291
(dp292
g18
I1
sg19
I0
sg20
I153
sg21
I0
sg22
I0
sg23
I5
sg24
I0
sbssg25
S'E\x913NM\xfb\x01\xfd\x1a\xa8i\xbc\x03\x89\x0e3'
p293
ssS'src_rockstor_storageadmin_views_config_backup'
p294
(dp295
g6
(dp296
S'html_filename'
p297
S'src_rockstor_storageadmin_views_config_backup.html'
p298
sS'name'
p299
S'src/rockstor/storageadmin/views/config_backup'
p300
sS'nums'
p301
g13
(g14
g15
NtRp302
(dp303
g18
I1
sg19
I0
sg20
I206
sg21
I0
sg22
I0
sg23
I163
sg24
I0
sbssg25
S'\xfc\x1d`j#\x118\xb0\x02\xf8@\xff)\xfe\x17?'
p304
ssS'src_rockstor_storageadmin_views_group'
p305
(dp306
g6
(dp307
g8
S'src_rockstor_storageadmin_views_group.html'
p308
sg10
S'src/rockstor/storageadmin/views/group'
p309
sg12
g13
(g14
g15
NtRp310
(dp311
g18
I1
sg19
I0
sg20
I72
sg21
I0
sg22
I0
sg23
I50
sg24
I0
sbssg25
S'\xe1\xae\x1a,~\x8f\x94\xdcB\xb4\x06,\x0cKp\x03'
p312
ssS'src_rockstor_storageadmin_views_share_command'
p313
(dp314
g6
(dp315
g38
S'src_rockstor_storageadmin_views_share_command.html'
p316
sg40
S'src/rockstor/storageadmin/views/share_command'
p317
sg42
g13
(g14
g15
NtRp318
(dp319
g18
I1
sg19
I0
sg20
I49
sg21
I0
sg22
I0
sg23
I0
sg24
I0
sbssg25
S'\xb2)\x13\xb7*q\x1e\xc5EN\x86\xc9D\xa8~v'
p320
ssS'src_rockstor_storageadmin_views_share_acl'
p321
(dp322
g6
(dp323
g8
S'src_rockstor_storageadmin_views_share_acl.html'
p324
sg10
S'src/rockstor/storageadmin/views/share_acl'
p325
sg12
g13
(g14
g15
NtRp326
(dp327
g18
I1
sg19
I0
sg20
I34
sg21
I0
sg22
I0
sg23
I22
sg24
I0
sbssg25
S'Ag\xdb\r\x7f\xe7\xa8rK,h8\xcb\xb8yQ'
p328
ssS'src_rockstor_storageadmin_views_nfs_exports'
p329
(dp330
g6
(dp331
g8
S'src_rockstor_storageadmin_views_nfs_exports.html'
p332
sg10
S'src/rockstor/storageadmin/views/nfs_exports'
p333
sg12
g13
(g14
g15
NtRp334
(dp335
g18
I1
sg19
I0
sg20
I214
sg21
I0
sg22
I0
sg23
I7
sg24
I0
sbssg25
S']\x9c\x8d\xeb\xbf\xc0eW\xaf\xa9}~\xe7\xd1\xdf\xfe'
p336
ssS'src_rockstor_storageadmin_views_home'
p337
(dp338
g6
(dp339
g8
S'src_rockstor_storageadmin_views_home.html'
p340
sg10
S'src/rockstor/storageadmin/views/home'
p341
sg12
g13
(g14
g15
NtRp342
(dp343
g18
I1
sg19
I0
sg20
I36
sg21
I0
sg22
I0
sg23
I24
sg24
I0
sbssg25
S'\xff\xed\xfb\x960(\x82Q\x9dp\xcd\x1a{o\x8d\x0f'
p344
sssS'version'
p345
S'3.7.1'
p346
sS'settings'
p347
S'\x99\xf4\xafJ\xc2\x8f\xde\xa1\xe4,U\xed\x03(\x8aa'
p348
sS'format'
p349
I1
s.