(dp1
S'files'
p2
(dp3
S'src_rockstor_storageadmin_views_rockon_id'
p4
(dp5
S'index'
p6
(dp7
S'html_filename'
p8
S'src_rockstor_storageadmin_views_rockon_id.html'
p9
sS'name'
p10
S'src/rockstor/storageadmin/views/rockon_id'
p11
sS'nums'
p12
ccopy_reg
_reconstructor
p13
(ccoverage.results
Numbers
p14
c__builtin__
object
p15
NtRp16
(dp17
S'n_files'
p18
I1
sS'n_branches'
p19
I0
sS'n_statements'
p20
I142
sS'n_excluded'
p21
I0
sS'n_partial_branches'
p22
I0
sS'n_missing'
p23
I142
sS'n_missing_branches'
p24
I0
sbssS'hash'
p25
S'GS\x14\x06\xcf`[\x94\xa1s\xdc\xea\x963\xe4\xd4'
p26
ssS'src_rockstor_storageadmin_views___init__'
p27
(dp28
g6
(dp29
g8
S'src_rockstor_storageadmin_views___init__.html'
p30
sg10
S'src/rockstor/storageadmin/views/__init__'
p31
sg12
g13
(g14
g15
NtRp32
(dp33
g18
I1
sg19
I0
sg20
I35
sg21
I0
sg22
I0
sg23
I35
sg24
I0
sbssg25
S'\xa9\x95%\xe3\xde[\xb8&f4\xf1)\x92.u\xd3'
p34
ssS'src_rockstor_storageadmin_views_ug_helpers'
p35
(dp36
g6
(dp37
g8
S'src_rockstor_storageadmin_views_ug_helpers.html'
p38
sg10
S'src/rockstor/storageadmin/views/ug_helpers'
p39
sg12
g13
(g14
g15
NtRp40
(dp41
g18
I1
sg19
I0
sg20
I63
sg21
I0
sg22
I0
sg23
I63
sg24
I0
sbssg25
S'\xf4\x18\x80\xc8+=\xad\x9cU\xd4\xdf\x98\x8cJC\xcc'
p42
ssS'src_rockstor_storageadmin_views_adv_nfs_exports'
p43
(dp44
g6
(dp45
g8
S'src_rockstor_storageadmin_views_adv_nfs_exports.html'
p46
sg10
S'src/rockstor/storageadmin/views/adv_nfs_exports'
p47
sg12
g13
(g14
g15
NtRp48
(dp49
g18
I1
sg19
I0
sg20
I44
sg21
I0
sg22
I0
sg23
I44
sg24
I0
sbssg25
S'3\xa64.\xe8S!3k.1\x04<\xf9\xb0\\'
p50
ssS'src_rockstor_storageadmin_views_tls_certificate'
p51
(dp52
g6
(dp53
g8
S'src_rockstor_storageadmin_views_tls_certificate.html'
p54
sg10
S'src/rockstor/storageadmin/views/tls_certificate'
p55
sg12
g13
(g14
g15
NtRp56
(dp57
g18
I1
sg19
I0
sg20
I53
sg21
I0
sg22
I0
sg23
I53
sg24
I0
sbssg25
S"?'TIc\x177\x1c\x98X0\xde\xb9\x0e\x83\xac"
p58
ssS'src_rockstor_storageadmin_views_oauth_app'
p59
(dp60
g6
(dp61
g8
S'src_rockstor_storageadmin_views_oauth_app.html'
p62
sg10
S'src/rockstor/storageadmin/views/oauth_app'
p63
sg12
g13
(g14
g15
NtRp64
(dp65
g18
I1
sg19
I0
sg20
I47
sg21
I0
sg22
I0
sg23
I47
sg24
I0
sbssg25
S'\xab\xd5\xdfi!y{>&\xe40\x16\xd6\xc4>\xb2'
p66
ssS'src_rockstor_storageadmin_views_netatalk'
p67
(dp68
g6
(dp69
g8
S'src_rockstor_storageadmin_views_netatalk.html'
p70
sg10
S'src/rockstor/storageadmin/views/netatalk'
p71
sg12
g13
(g14
g15
NtRp72
(dp73
g18
I1
sg19
I0
sg20
I95
sg21
I0
sg22
I0
sg23
I95
sg24
I0
sbssg25
S'{\xc6\xa6=\xf0\xa1\xc3R\xaa\x9d\x14%\xdfj\xde\x03'
p74
ssS'src_rockstor_storageadmin_views_disk'
p75
(dp76
g6
(dp77
g8
S'src_rockstor_storageadmin_views_disk.html'
p78
sg10
S'src/rockstor/storageadmin/views/disk'
p79
sg12
g13
(g14
g15
NtRp80
(dp81
g18
I1
sg19
I0
sg20
I162
sg21
I0
sg22
I0
sg23
I162
sg24
I0
sbssg25
S'tTc\x100"J\x1f\x89\r)b\x9eqW\x97'
p82
ssS'src_rockstor_storageadmin_views_nfs_exports'
p83
(dp84
g6
(dp85
g8
S'src_rockstor_storageadmin_views_nfs_exports.html'
p86
sg10
S'src/rockstor/storageadmin/views/nfs_exports'
p87
sg12
g13
(g14
g15
NtRp88
(dp89
g18
I1
sg19
I0
sg20
I109
sg21
I0
sg22
I0
sg23
I109
sg24
I0
sbssg25
S'Y\x90\xe8c\x0f\x8f>\xcfR\x03v\xc7\x06\xfd\xbd\xb2'
p90
ssS'src_rockstor_storageadmin_views_rockon_json'
p91
(dp92
g6
(dp93
g8
S'src_rockstor_storageadmin_views_rockon_json.html'
p94
sg10
S'src/rockstor/storageadmin/views/rockon_json'
p95
sg12
g13
(g14
g15
NtRp96
(dp97
g18
I1
sg19
I0
sg20
I10
sg21
I0
sg22
I0
sg23
I10
sg24
I0
sbssg25
S'\xdb&\x14\xd7\x1cP\x82\xa2\x10\xd3TM\r\xa9TP'
p98
ssS'src_rockstor_storageadmin_views_snapshot'
p99
(dp100
g6
(dp101
g8
S'src_rockstor_storageadmin_views_snapshot.html'
p102
sg10
S'src/rockstor/storageadmin/views/snapshot'
p103
sg12
g13
(g14
g15
NtRp104
(dp105
g18
I1
sg19
I0
sg20
I188
sg21
I0
sg22
I0
sg23
I188
sg24
I0
sbssg25
S"\xb7b\xb3'\xe5(\xa0\xdc\x84s\xc1\xb6\x01+*\x02"
p106
ssS'src_rockstor_storageadmin_views_pool_import'
p107
(dp108
g6
(dp109
g8
S'src_rockstor_storageadmin_views_pool_import.html'
p110
sg10
S'src/rockstor/storageadmin/views/pool_import'
p111
sg12
g13
(g14
g15
NtRp112
(dp113
g18
I1
sg19
I0
sg20
I70
sg21
I0
sg22
I0
sg23
I70
sg24
I0
sbssg25
S'\x91\xaa\x7f2\xef\xcb\xf3M\xec\xacoM%C\x12\xda'
p114
ssS'src_rockstor_storageadmin_views_user'
p115
(dp116
g6
(dp117
g8
S'src_rockstor_storageadmin_views_user.html'
p118
sg10
S'src/rockstor/storageadmin/views/user'
p119
sg12
g13
(g14
g15
NtRp120
(dp121
g18
I1
sg19
I0
sg20
I206
sg21
I0
sg22
I0
sg23
I206
sg24
I0
sbssg25
S"7toH_\xac\xa5\xf0w\x10\xd7.\xa0'\x1a1"
p122
ssS'src_rockstor_storageadmin_views_views'
p123
(dp124
g6
(dp125
g8
S'src_rockstor_storageadmin_views_views.html'
p126
sg10
S'src/rockstor/storageadmin/views/views'
p127
sg12
g13
(g14
g15
NtRp128
(dp129
g18
I1
sg19
I0
sg20
I0
sg21
I0
sg22
I0
sg23
I0
sg24
I0
sbssg25
S'{\xd99q\x98)\xfekT\xb8H7M\x1c\x94\xba'
p130
ssS'src_rockstor_storageadmin_views_rockon_helpers'
p131
(dp132
g6
(dp133
S'html_filename'
p134
S'src_rockstor_storageadmin_views_rockon_helpers.html'
p135
sS'name'
p136
S'src/rockstor/storageadmin/views/rockon_helpers'
p137
sS'nums'
p138
g13
(g14
g15
NtRp139
(dp140
g18
I1
sg19
I0
sg20
I196
sg21
I0
sg22
I0
sg23
I196
sg24
I0
sbssg25
S'\xfb\xa8\\p/\xaa\xa4e\x04\xba\xdc\xa4DX\xa8\x87'
p141
ssS'src_rockstor_storageadmin_views_clone_helpers'
p142
(dp143
g6
(dp144
g8
S'src_rockstor_storageadmin_views_clone_helpers.html'
p145
sg10
S'src/rockstor/storageadmin/views/clone_helpers'
p146
sg12
g13
(g14
g15
NtRp147
(dp148
g18
I1
sg19
I0
sg20
I32
sg21
I0
sg22
I0
sg23
I32
sg24
I0
sbssg25
S'#\xa3\x13%\x91\xcbg\xa4\xee\x85s\xbd\xe0\x04\xe4\xf9'
p149
ssS'src_rockstor_storageadmin_views_share_iscsi'
p150
(dp151
g6
(dp152
g8
S'src_rockstor_storageadmin_views_share_iscsi.html'
p153
sg10
S'src/rockstor/storageadmin/views/share_iscsi'
p154
sg12
g13
(g14
g15
NtRp155
(dp156
g18
I1
sg19
I0
sg20
I59
sg21
I0
sg22
I0
sg23
I59
sg24
I0
sbssg25
S'\x1fY5\xfa4\xd2b\x026\xc4\xe5\xect\xda(\xcc'
p157
ssS'src_rockstor_storageadmin_views_setup_user'
p158
(dp159
g6
(dp160
g8
S'src_rockstor_storageadmin_views_setup_user.html'
p161
sg10
S'src/rockstor/storageadmin/views/setup_user'
p162
sg12
g13
(g14
g15
NtRp163
(dp164
g18
I1
sg19
I0
sg20
I32
sg21
I0
sg22
I0
sg23
I32
sg24
I0
sbssg25
S'P[/\x9dk2\x85o\xfe\xf1\xe5^Z\x89\xfe!'
p165
ssS'src_rockstor_storageadmin_views_pool_balance'
p166
(dp167
g6
(dp168
g8
S'src_rockstor_storageadmin_views_pool_balance.html'
p169
sg10
S'src/rockstor/storageadmin/views/pool_balance'
p170
sg12
g13
(g14
g15
NtRp171
(dp172
g18
I1
sg19
I0
sg20
I56
sg21
I0
sg22
I0
sg23
I56
sg24
I0
sbssg25
S'\xf5\x89o\xff\xad\xde\xe2\x14\x92\tc\x83M\x91\xa9\x82'
p173
ssS'src_rockstor_storageadmin_views_pool'
p174
(dp175
g6
(dp176
g8
S'src_rockstor_storageadmin_views_pool.html'
p177
sg10
S'src/rockstor/storageadmin/views/pool'
p178
sg12
g13
(g14
g15
NtRp179
(dp180
g18
I1
sg19
I0
sg20
I293
sg21
I0
sg22
I0
sg23
I293
sg24
I0
sbssg25
S'\xc1\x00\x16,g\x9e\x7fN\xd0\x19Q\xfb\xb3\x0ft\xe0'
p181
ssS'src_rockstor_storageadmin_views_pool_scrub'
p182
(dp183
g6
(dp184
g8
S'src_rockstor_storageadmin_views_pool_scrub.html'
p185
sg10
S'src/rockstor/storageadmin/views/pool_scrub'
p186
sg12
g13
(g14
g15
NtRp187
(dp188
g18
I1
sg19
I0
sg20
I60
sg21
I0
sg22
I0
sg23
I60
sg24
I0
sbssg25
S'\x93\xf8I\xc4\x82\xccs|\xd6h\xc8\xac*_[<'
p189
ssS'src_rockstor_storageadmin_views_rockon'
p190
(dp191
g6
(dp192
g8
S'src_rockstor_storageadmin_views_rockon.html'
p193
sg10
S'src/rockstor/storageadmin/views/rockon'
p194
sg12
g13
(g14
g15
NtRp195
(dp196
g18
I1
sg19
I0
sg20
I166
sg21
I0
sg22
I0
sg23
I166
sg24
I0
sbssg25
S'\x0b\xa1\xc94\x1e@xG\x90\xfd\x15{d\x19\xe34'
p197
ssS'src_rockstor_storageadmin_views_sftp'
p198
(dp199
g6
(dp200
g8
S'src_rockstor_storageadmin_views_sftp.html'
p201
sg10
S'src/rockstor/storageadmin/views/sftp'
p202
sg12
g13
(g14
g15
NtRp203
(dp204
g18
I1
sg19
I0
sg20
I79
sg21
I0
sg22
I0
sg23
I79
sg24
I0
sbssg25
S'\xc4\xb3\x1f\x15K\xb6k\xe8; \xa7\xb9\xdeC\xda\xc1'
p205
ssS'src_rockstor_storageadmin_views_rockon_volume'
p206
(dp207
g6
(dp208
g8
S'src_rockstor_storageadmin_views_rockon_volume.html'
p209
sg10
S'src/rockstor/storageadmin/views/rockon_volume'
p210
sg12
g13
(g14
g15
NtRp211
(dp212
g18
I1
sg19
I0
sg20
I14
sg21
I0
sg22
I0
sg23
I14
sg24
I0
sbssg25
S'\xe1+l\xe8\xce\xe2\xf2\xd8]\xc5\x9d6\x86C\x86Z'
p213
ssS'src_rockstor_storageadmin_views_network'
p214
(dp215
g6
(dp216
g8
S'src_rockstor_storageadmin_views_network.html'
p217
sg10
S'src/rockstor/storageadmin/views/network'
p218
sg12
g13
(g14
g15
NtRp219
(dp220
g18
I1
sg19
I0
sg20
I122
sg21
I0
sg22
I0
sg23
I122
sg24
I0
sbssg25
S'\xe2\xd0\xf7t\x1e\xa6\xf9L\x99\x1a^\x97\xe3&\xd4$'
p221
ssS'src_rockstor_storageadmin_views_command'
p222
(dp223
g6
(dp224
g8
S'src_rockstor_storageadmin_views_command.html'
p225
sg10
S'src/rockstor/storageadmin/views/command'
p226
sg12
g13
(g14
g15
NtRp227
(dp228
g18
I1
sg19
I0
sg20
I184
sg21
I0
sg22
I0
sg23
I184
sg24
I0
sbssg25
S':s\\IK\x9c\x87q\xa2\n\xae\xb5\x986\xff\xfa'
p229
ssS'src_rockstor_storageadmin_views_support'
p230
(dp231
g6
(dp232
g8
S'src_rockstor_storageadmin_views_support.html'
p233
sg10
S'src/rockstor/storageadmin/views/support'
p234
sg12
g13
(g14
g15
NtRp235
(dp236
g18
I1
sg19
I0
sg20
I74
sg21
I0
sg22
I0
sg23
I74
sg24
I0
sbssg25
S'P\xea\xcdP\x0c\xf5\x9e\xda^\x92\xf4\xbd\xff\x03=\xef'
p237
ssS'src_rockstor_storageadmin_views_disk_smart'
p238
(dp239
g6
(dp240
g8
S'src_rockstor_storageadmin_views_disk_smart.html'
p241
sg10
S'src/rockstor/storageadmin/views/disk_smart'
p242
sg12
g13
(g14
g15
NtRp243
(dp244
g18
I1
sg19
I0
sg20
I86
sg21
I0
sg22
I0
sg23
I86
sg24
I0
sbssg25
S'\x03\x17$4\xb5x\xddn\xe5J\x0b\x98\xc42\x92K'
p245
ssS'src_rockstor_storageadmin_views_share_helpers'
p246
(dp247
g6
(dp248
g8
S'src_rockstor_storageadmin_views_share_helpers.html'
p249
sg10
S'src/rockstor/storageadmin/views/share_helpers'
p250
sg12
g13
(g14
g15
NtRp251
(dp252
g18
I1
sg19
I0
sg20
I35
sg21
I0
sg22
I0
sg23
I35
sg24
I0
sbssg25
S'\xfaq\xd4\xdb)3\x0f\x94/\xe0\r\x0b\x1b\x91\xb1\x84'
p253
ssS'src_rockstor_storageadmin_views_rockon_custom_config'
p254
(dp255
g6
(dp256
g8
S'src_rockstor_storageadmin_views_rockon_custom_config.html'
p257
sg10
S'src/rockstor/storageadmin/views/rockon_custom_config'
p258
sg12
g13
(g14
g15
NtRp259
(dp260
g18
I1
sg19
I0
sg20
I13
sg21
I0
sg22
I0
sg23
I13
sg24
I0
sbssg25
S"\x1f5m\x11\xca O\x06'>\x80\n\xe8\xc1\x15B"
p261
ssS'src_rockstor_storageadmin_views_share_nfs'
p262
(dp263
g6
(dp264
g8
S'src_rockstor_storageadmin_views_share_nfs.html'
p265
sg10
S'src/rockstor/storageadmin/views/share_nfs'
p266
sg12
g13
(g14
g15
NtRp267
(dp268
g18
I1
sg19
I0
sg20
I82
sg21
I0
sg22
I0
sg23
I82
sg24
I0
sbssg25
S'UiP\xdd\x11r)\xa5\xd8?\x83\x10\x9f_Z\xa7'
p269
ssS'src_rockstor_storageadmin_views_rockon_port'
p270
(dp271
g6
(dp272
g8
S'src_rockstor_storageadmin_views_rockon_port.html'
p273
sg10
S'src/rockstor/storageadmin/views/rockon_port'
p274
sg12
g13
(g14
g15
NtRp275
(dp276
g18
I1
sg19
I0
sg20
I14
sg21
I0
sg22
I0
sg23
I14
sg24
I0
sbssg25
S'\xce\x1a\x1b\xe2\x8b\x08\xc8W~\x92\xbcD\xe8\x13\xd7h'
p277
ssS'src_rockstor_storageadmin_views_login'
p278
(dp279
g6
(dp280
g8
S'src_rockstor_storageadmin_views_login.html'
p281
sg10
S'src/rockstor/storageadmin/views/login'
p282
sg12
g13
(g14
g15
NtRp283
(dp284
g18
I1
sg19
I0
sg20
I19
sg21
I0
sg22
I0
sg23
I19
sg24
I0
sbssg25
S'\x98\x1d=q\xb7\x1cuMJ0\xfa\xb7P\xfa\x8c;'
p285
ssS'src_rockstor_storageadmin_views_appliances'
p286
(dp287
g6
(dp288
g8
S'src_rockstor_storageadmin_views_appliances.html'
p289
sg10
S'src/rockstor/storageadmin/views/appliances'
p290
sg12
g13
(g14
g15
NtRp291
(dp292
g18
I1
sg19
I0
sg20
I114
sg21
I0
sg22
I0
sg23
I114
sg24
I0
sbssg25
S'\x95\x93\xab(\x11\xdf\xf8X\xc4\x8e\xee:\x1f\xfd\x08e'
p293
ssS'src_rockstor_storageadmin_views_nfs_helpers'
p294
(dp295
g6
(dp296
g8
S'src_rockstor_storageadmin_views_nfs_helpers.html'
p297
sg10
S'src/rockstor/storageadmin/views/nfs_helpers'
p298
sg12
g13
(g14
g15
NtRp299
(dp300
g18
I1
sg19
I0
sg20
I76
sg21
I0
sg22
I0
sg23
I76
sg24
I0
sbssg25
S'|<\x15[\x04|\x16\n:\x1a\xfeP\x9f\x03d9'
p301
ssS'src_rockstor_storageadmin_views_share'
p302
(dp303
g6
(dp304
g8
S'src_rockstor_storageadmin_views_share.html'
p305
sg10
S'src/rockstor/storageadmin/views/share'
p306
sg12
g13
(g14
g15
NtRp307
(dp308
g18
I1
sg19
I0
sg20
I216
sg21
I0
sg22
I0
sg23
I216
sg24
I0
sbssg25
S'\x12\xf5\xb5\x15X\xf1i\xe6E\xd2\xdfz\x92\xb0\x17!'
p309
ssS'src_rockstor_storageadmin_views_samba'
p310
(dp311
g6
(dp312
g8
S'src_rockstor_storageadmin_views_samba.html'
p313
sg10
S'src/rockstor/storageadmin/views/samba'
p314
sg12
g13
(g14
g15
NtRp315
(dp316
g18
I1
sg19
I0
sg20
I148
sg21
I0
sg22
I0
sg23
I148
sg24
I0
sbssg25
S'\xa3\x03r\xffDy\xed\xfdq\x15\x93\xb0\x80\x80\xfd?'
p317
ssS'src_rockstor_storageadmin_views_config_backup'
p318
(dp319
g6
(dp320
g8
S'src_rockstor_storageadmin_views_config_backup.html'
p321
sg10
S'src/rockstor/storageadmin/views/config_backup'
p322
sg12
g13
(g14
g15
NtRp323
(dp324
g18
I1
sg19
I0
sg20
I206
sg21
I0
sg22
I0
sg23
I206
sg24
I0
sbssg25
S'\x86\x02Nq\x9c\x9a\t\x14\xc8\x95\xe4N\xb8bgq'
p325
ssS'src_rockstor_storageadmin_views_group'
p326
(dp327
g6
(dp328
g8
S'src_rockstor_storageadmin_views_group.html'
p329
sg10
S'src/rockstor/storageadmin/views/group'
p330
sg12
g13
(g14
g15
NtRp331
(dp332
g18
I1
sg19
I0
sg20
I72
sg21
I0
sg22
I0
sg23
I72
sg24
I0
sbssg25
S'1*\xff\xf8[\x1b]\x8a8\x04\xf5\xb7\\SD\x11'
p333
ssS'src_rockstor_storageadmin_views_share_command'
p334
(dp335
g6
(dp336
g8
S'src_rockstor_storageadmin_views_share_command.html'
p337
sg10
S'src/rockstor/storageadmin/views/share_command'
p338
sg12
g13
(g14
g15
NtRp339
(dp340
g18
I1
sg19
I0
sg20
I50
sg21
I0
sg22
I0
sg23
I50
sg24
I0
sbssg25
S'\xb4\xe2q_\x8ak\x82\x88\xa1X\xa8=s\x94\xd9\r'
p341
ssS'src_rockstor_storageadmin_views_share_acl'
p342
(dp343
g6
(dp344
g8
S'src_rockstor_storageadmin_views_share_acl.html'
p345
sg10
S'src/rockstor/storageadmin/views/share_acl'
p346
sg12
g13
(g14
g15
NtRp347
(dp348
g18
I1
sg19
I0
sg20
I35
sg21
I0
sg22
I0
sg23
I35
sg24
I0
sbssg25
S'p\x82\xcc\xd6\xbfn\x8d\x89\x10r3\xf5\xdc\x8a\xca\x90'
p349
ssS'src_rockstor_storageadmin_views_dashboardconfig'
p350
(dp351
g6
(dp352
g8
S'src_rockstor_storageadmin_views_dashboardconfig.html'
p353
sg10
S'src/rockstor/storageadmin/views/dashboardconfig'
p354
sg12
g13
(g14
g15
NtRp355
(dp356
g18
I1
sg19
I0
sg20
I54
sg21
I0
sg22
I0
sg23
I54
sg24
I0
sbssg25
S'\x9fu\t\xf5\x92\x7f9X\x06\xb6c\xc5;2:\xf0'
p357
ssS'src_rockstor_storageadmin_views_home'
p358
(dp359
g6
(dp360
g8
S'src_rockstor_storageadmin_views_home.html'
p361
sg10
S'src/rockstor/storageadmin/views/home'
p362
sg12
g13
(g14
g15
NtRp363
(dp364
g18
I1
sg19
I0
sg20
I36
sg21
I0
sg22
I0
sg23
I36
sg24
I0
sbssg25
S'8\xc1q.\x93\xe3Y\xcf\x15Z\xc3\xcfa\x91\xb4\x11'
p365
sssS'version'
p366
S'3.7.1'
p367
sS'settings'
p368
S'\x87\x8e\x84\xc9\xcb+\xafqA\xf0\xa07\xa8\xdd\x97p'
p369
sS'format'
p370
I1
s.