(dp1
S'files'
p2
(dp3
S'src_rockstor_storageadmin_views_rockon_id'
p4
(dp5
S'index'
p6
(dp7
S'html_filename'
p8
S'src_rockstor_storageadmin_views_rockon_id.html'
p9
sS'name'
p10
S'src/rockstor/storageadmin/views/rockon_id'
p11
sS'nums'
p12
ccopy_reg
_reconstructor
p13
(ccoverage.results
Numbers
p14
c__builtin__
object
p15
NtRp16
(dp17
S'n_files'
p18
I1
sS'n_branches'
p19
I0
sS'n_statements'
p20
I142
sS'n_excluded'
p21
I0
sS'n_partial_branches'
p22
I0
sS'n_missing'
p23
I125
sS'n_missing_branches'
p24
I0
sbssS'hash'
p25
S'Q*\x06\xf1;yM\xf1\x8e\x89\xe6\xed\xd31\x14{'
p26
ssS'src_rockstor_storageadmin_views___init__'
p27
(dp28
g6
(dp29
S'html_filename'
p30
S'src_rockstor_storageadmin_views___init__.html'
p31
sS'name'
p32
S'src/rockstor/storageadmin/views/__init__'
p33
sS'nums'
p34
g13
(g14
g15
NtRp35
(dp36
g18
I1
sg19
I0
sg20
I34
sg21
I0
sg22
I0
sg23
I0
sg24
I0
sbssg25
S'5\x14\xe8\xa86\xffo\x13S\xfdH\xcf\xe1\xf4\x85\xba'
p37
ssS'src_rockstor_storageadmin_views_ug_helpers'
p38
(dp39
g6
(dp40
S'html_filename'
p41
S'src_rockstor_storageadmin_views_ug_helpers.html'
p42
sS'name'
p43
S'src/rockstor/storageadmin/views/ug_helpers'
p44
sS'nums'
p45
g13
(g14
g15
NtRp46
(dp47
g18
I1
sg19
I0
sg20
I63
sg21
I0
sg22
I0
sg23
I15
sg24
I0
sbssg25
S'IU\xdf\xfd\xc0!N\x81=]\x1e\\k%\r\xbd'
p48
ssS'src_rockstor_storageadmin_views_adv_nfs_exports'
p49
(dp50
g6
(dp51
g30
S'src_rockstor_storageadmin_views_adv_nfs_exports.html'
p52
sg32
S'src/rockstor/storageadmin/views/adv_nfs_exports'
p53
sg34
g13
(g14
g15
NtRp54
(dp55
g18
I1
sg19
I0
sg20
I45
sg21
I0
sg22
I0
sg23
I32
sg24
I0
sbssg25
S'7\xe6\xbc\xce\xb4\xe1\xc6\xeb\r\xfe\x9f`\xfc\xbbe\x7f'
p56
ssS'src_rockstor_storageadmin_views_tls_certificate'
p57
(dp58
g6
(dp59
g30
S'src_rockstor_storageadmin_views_tls_certificate.html'
p60
sg32
S'src/rockstor/storageadmin/views/tls_certificate'
p61
sg34
g13
(g14
g15
NtRp62
(dp63
g18
I1
sg19
I0
sg20
I53
sg21
I0
sg22
I0
sg23
I35
sg24
I0
sbssg25
S'\xa8\x16s \x96\xe9\x9b\xb5\xbd\xa9_9X\xbc\xd3C'
p64
ssS'src_rockstor_storageadmin_views_oauth_app'
p65
(dp66
g6
(dp67
g30
S'src_rockstor_storageadmin_views_oauth_app.html'
p68
sg32
S'src/rockstor/storageadmin/views/oauth_app'
p69
sg34
g13
(g14
g15
NtRp70
(dp71
g18
I1
sg19
I0
sg20
I47
sg21
I0
sg22
I0
sg23
I34
sg24
I0
sbssg25
S'\te\xa1#\x04\xe9;\xf7\x05\xaf\xea\xcc\x13*7S'
p72
ssS'src_rockstor_storageadmin_views_netatalk'
p73
(dp74
g6
(dp75
g30
S'src_rockstor_storageadmin_views_netatalk.html'
p76
sg32
S'src/rockstor/storageadmin/views/netatalk'
p77
sg34
g13
(g14
g15
NtRp78
(dp79
g18
I1
sg19
I0
sg20
I95
sg21
I0
sg22
I0
sg23
I70
sg24
I0
sbssg25
S'e\xd6\t\xa02J\xc2\xe6d\xd8\t%\xf1\xc5}\xe2'
p80
ssS'src_rockstor_storageadmin_views_clone_helpers'
p81
(dp82
g6
(dp83
g30
S'src_rockstor_storageadmin_views_clone_helpers.html'
p84
sg32
S'src/rockstor/storageadmin/views/clone_helpers'
p85
sg34
g13
(g14
g15
NtRp86
(dp87
g18
I1
sg19
I0
sg20
I32
sg21
I0
sg22
I0
sg23
I24
sg24
I0
sbssg25
S'\x80\x18|U\xe2\xa5\x999\xef\xb8G\xc2\xbf\xe2\x0c\x88'
p88
ssS'src_rockstor_storageadmin_views_rockon_json'
p89
(dp90
g6
(dp91
g8
S'src_rockstor_storageadmin_views_rockon_json.html'
p92
sg10
S'src/rockstor/storageadmin/views/rockon_json'
p93
sg12
g13
(g14
g15
NtRp94
(dp95
g18
I1
sg19
I0
sg20
I10
sg21
I0
sg22
I0
sg23
I10
sg24
I0
sbssg25
S'\xdb&\x14\xd7\x1cP\x82\xa2\x10\xd3TM\r\xa9TP'
p96
ssS'src_rockstor_storageadmin_views_snapshot'
p97
(dp98
g6
(dp99
g30
S'src_rockstor_storageadmin_views_snapshot.html'
p100
sg32
S'src/rockstor/storageadmin/views/snapshot'
p101
sg34
g13
(g14
g15
NtRp102
(dp103
g18
I1
sg19
I0
sg20
I184
sg21
I0
sg22
I0
sg23
I155
sg24
I0
sbssg25
S'\xcd!v\x11\x82\xe2q/\xfd5\xa9\x00@\xac\x16\xe0'
p104
ssS'src_rockstor_storageadmin_views_pool_import'
p105
(dp106
g6
(dp107
g30
S'src_rockstor_storageadmin_views_pool_import.html'
p108
sg32
S'src/rockstor/storageadmin/views/pool_import'
p109
sg34
g13
(g14
g15
NtRp110
(dp111
g18
I1
sg19
I0
sg20
I70
sg21
I0
sg22
I0
sg23
I70
sg24
I0
sbssg25
S'\x91\xaa\x7f2\xef\xcb\xf3M\xec\xacoM%C\x12\xda'
p112
ssS'src_rockstor_storageadmin_views_user'
p113
(dp114
g6
(dp115
g41
S'src_rockstor_storageadmin_views_user.html'
p116
sg43
S'src/rockstor/storageadmin/views/user'
p117
sg45
g13
(g14
g15
NtRp118
(dp119
g18
I1
sg19
I0
sg20
I206
sg21
I0
sg22
I0
sg23
I10
sg24
I0
sbssg25
S'\xe2]\xf8\xb8\xfc\n\x066\x8b\xb8(\xae\xaejh\xd1'
p120
ssS'src_rockstor_storageadmin_views_views'
p121
(dp122
g6
(dp123
g30
S'src_rockstor_storageadmin_views_views.html'
p124
sg32
S'src/rockstor/storageadmin/views/views'
p125
sg34
g13
(g14
g15
NtRp126
(dp127
g18
I1
sg19
I0
sg20
I0
sg21
I0
sg22
I0
sg23
I0
sg24
I0
sbssg25
S'{\xd99q\x98)\xfekT\xb8H7M\x1c\x94\xba'
p128
ssS'src_rockstor_storageadmin_views_rockon_helpers'
p129
(dp130
g6
(dp131
g30
S'src_rockstor_storageadmin_views_rockon_helpers.html'
p132
sg32
S'src/rockstor/storageadmin/views/rockon_helpers'
p133
sg34
g13
(g14
g15
NtRp134
(dp135
g18
I1
sg19
I0
sg20
I194
sg21
I0
sg22
I0
sg23
I161
sg24
I0
sbssg25
S'.M\x83HL\xda4\xcd\xc5W\x07F.\x15t\xec'
p136
ssS'src_rockstor_storageadmin_views_share_iscsi'
p137
(dp138
g6
(dp139
g30
S'src_rockstor_storageadmin_views_share_iscsi.html'
p140
sg32
S'src/rockstor/storageadmin/views/share_iscsi'
p141
sg34
g13
(g14
g15
NtRp142
(dp143
g18
I1
sg19
I0
sg20
I59
sg21
I0
sg22
I0
sg23
I43
sg24
I0
sbssg25
S'0\x04\xd3SN\x0c\xa6\x96\xadx^\xa1\xaa\xd8 \x0b'
p144
ssS'src_rockstor_storageadmin_views_setup_user'
p145
(dp146
g6
(dp147
g30
S'src_rockstor_storageadmin_views_setup_user.html'
p148
sg32
S'src/rockstor/storageadmin/views/setup_user'
p149
sg34
g13
(g14
g15
NtRp150
(dp151
g18
I1
sg19
I0
sg20
I32
sg21
I0
sg22
I0
sg23
I20
sg24
I0
sbssg25
S'\xec\x94\x84\x1a\x9aM2\xb5p\xca\xa2\x96\x95\x1cq\n'
p152
ssS'src_rockstor_storageadmin_views_pool_balance'
p153
(dp154
g6
(dp155
g30
S'src_rockstor_storageadmin_views_pool_balance.html'
p156
sg32
S'src/rockstor/storageadmin/views/pool_balance'
p157
sg34
g13
(g14
g15
NtRp158
(dp159
g18
I1
sg19
I0
sg20
I56
sg21
I0
sg22
I0
sg23
I39
sg24
I0
sbssg25
S'\x07\x17\x19.?\x9aP=[\xe8\xad\x88\x8a\xc7\xfeB'
p160
ssS'src_rockstor_storageadmin_views_pool'
p161
(dp162
g6
(dp163
g30
S'src_rockstor_storageadmin_views_pool.html'
p164
sg32
S'src/rockstor/storageadmin/views/pool'
p165
sg34
g13
(g14
g15
NtRp166
(dp167
g18
I1
sg19
I0
sg20
I291
sg21
I0
sg22
I0
sg23
I57
sg24
I0
sbssg25
S'1\xbeQ2\\{\x19Sd\xc8R_\x1e\xd0\x95,'
p168
ssS'src_rockstor_storageadmin_views_pool_scrub'
p169
(dp170
g6
(dp171
g30
S'src_rockstor_storageadmin_views_pool_scrub.html'
p172
sg32
S'src/rockstor/storageadmin/views/pool_scrub'
p173
sg34
g13
(g14
g15
NtRp174
(dp175
g18
I1
sg19
I0
sg20
I60
sg21
I0
sg22
I0
sg23
I43
sg24
I0
sbssg25
S'\xfe\xf2\x8c\xe6Q\x0f\x9b\xdd\x00dX|\x003\x87w'
p176
ssS'src_rockstor_storageadmin_views_rockon'
p177
(dp178
g6
(dp179
g8
S'src_rockstor_storageadmin_views_rockon.html'
p180
sg10
S'src/rockstor/storageadmin/views/rockon'
p181
sg12
g13
(g14
g15
NtRp182
(dp183
g18
I1
sg19
I0
sg20
I169
sg21
I0
sg22
I0
sg23
I148
sg24
I0
sbssg25
S'\xf3Cu\xb6\xf3\x83l\xbf\xe9\xde\xf3\xa8\xc5\x86Q\xbb'
p184
ssS'src_rockstor_storageadmin_views_sftp'
p185
(dp186
g6
(dp187
g30
S'src_rockstor_storageadmin_views_sftp.html'
p188
sg32
S'src/rockstor/storageadmin/views/sftp'
p189
sg34
g13
(g14
g15
NtRp190
(dp191
g18
I1
sg19
I0
sg20
I79
sg21
I0
sg22
I0
sg23
I58
sg24
I0
sbssg25
S'\xb9\xf7gA\x0f\x0b\xa9\xe0\xf5\x89\xa2\xf0V\xde\x82\xf6'
p192
ssS'src_rockstor_storageadmin_views_rockon_volume'
p193
(dp194
g6
(dp195
g8
S'src_rockstor_storageadmin_views_rockon_volume.html'
p196
sg10
S'src/rockstor/storageadmin/views/rockon_volume'
p197
sg12
g13
(g14
g15
NtRp198
(dp199
g18
I1
sg19
I0
sg20
I14
sg21
I0
sg22
I0
sg23
I7
sg24
I0
sbssg25
S'\xf9\x1eb\xf5\x1c\x14\xfbh-\xd2\x9fJ\x90=\xafH'
p200
ssS'src_rockstor_storageadmin_views_network'
p201
(dp202
g6
(dp203
g30
S'src_rockstor_storageadmin_views_network.html'
p204
sg32
S'src/rockstor/storageadmin/views/network'
p205
sg34
g13
(g14
g15
NtRp206
(dp207
g18
I1
sg19
I0
sg20
I122
sg21
I0
sg22
I0
sg23
I94
sg24
I0
sbssg25
S'\x15Z\x11"O7Tn\xd4\x95c6\xd2\xac\xef\xd6'
p208
ssS'src_rockstor_storageadmin_views_command'
p209
(dp210
g6
(dp211
g30
S'src_rockstor_storageadmin_views_command.html'
p212
sg32
S'src/rockstor/storageadmin/views/command'
p213
sg34
g13
(g14
g15
NtRp214
(dp215
g18
I1
sg19
I0
sg20
I184
sg21
I0
sg22
I0
sg23
I159
sg24
I0
sbssg25
S'\xb6\xeb\xbe\x8ef%\x87\xd9B\x03\xe9b\\\xa8\x0c-'
p216
ssS'src_rockstor_storageadmin_views_support'
p217
(dp218
g6
(dp219
g30
S'src_rockstor_storageadmin_views_support.html'
p220
sg32
S'src/rockstor/storageadmin/views/support'
p221
sg34
g13
(g14
g15
NtRp222
(dp223
g18
I1
sg19
I0
sg20
I74
sg21
I0
sg22
I0
sg23
I49
sg24
I0
sbssg25
S'\xbdKJ\xfd\x10d\xf2\xd6&%\x7f!\x19w\x14\xe2'
p224
ssS'src_rockstor_storageadmin_views_disk'
p225
(dp226
g6
(dp227
g30
S'src_rockstor_storageadmin_views_disk.html'
p228
sg32
S'src/rockstor/storageadmin/views/disk'
p229
sg34
g13
(g14
g15
NtRp230
(dp231
g18
I1
sg19
I0
sg20
I161
sg21
I0
sg22
I0
sg23
I86
sg24
I0
sbssg25
S'\r\xaa\x93\xd5\xe3\xed\xa7\xdc\x94\x06E\x9d\x08\x8aAR'
p232
ssS'src_rockstor_storageadmin_views_share_helpers'
p233
(dp234
g6
(dp235
g30
S'src_rockstor_storageadmin_views_share_helpers.html'
p236
sg32
S'src/rockstor/storageadmin/views/share_helpers'
p237
sg34
g13
(g14
g15
NtRp238
(dp239
g18
I1
sg19
I0
sg20
I35
sg21
I0
sg22
I0
sg23
I25
sg24
I0
sbssg25
S'I\x81\xcfL\xfa\x9a\xf3\x03\xd4/\x0e\xa0/J\xa1{'
p240
ssS'src_rockstor_storageadmin_views_rockon_custom_config'
p241
(dp242
g6
(dp243
g8
S'src_rockstor_storageadmin_views_rockon_custom_config.html'
p244
sg10
S'src/rockstor/storageadmin/views/rockon_custom_config'
p245
sg12
g13
(g14
g15
NtRp246
(dp247
g18
I1
sg19
I0
sg20
I13
sg21
I0
sg22
I0
sg23
I6
sg24
I0
sbssg25
S'\x94V\xf46\xb3\xb9\x15\x8b*~\xddTb\xcb\xe8='
p248
ssS'src_rockstor_storageadmin_views_appliances'
p249
(dp250
g6
(dp251
g30
S'src_rockstor_storageadmin_views_appliances.html'
p252
sg32
S'src/rockstor/storageadmin/views/appliances'
p253
sg34
g13
(g14
g15
NtRp254
(dp255
g18
I1
sg19
I0
sg20
I114
sg21
I0
sg22
I0
sg23
I90
sg24
I0
sbssg25
S'\t\xf6\x94\xad\x1dZ`v\x9a\x01m\x1e6\xacV\xbb'
p256
ssS'src_rockstor_storageadmin_views_share_nfs'
p257
(dp258
g6
(dp259
g30
S'src_rockstor_storageadmin_views_share_nfs.html'
p260
sg32
S'src/rockstor/storageadmin/views/share_nfs'
p261
sg34
g13
(g14
g15
NtRp262
(dp263
g18
I1
sg19
I0
sg20
I81
sg21
I0
sg22
I0
sg23
I61
sg24
I0
sbssg25
S'\x00|\x02fu\x1a\xcbr\xf3\xaco}\xfa\xe5\xc0\xb5'
p264
ssS'src_rockstor_storageadmin_views_rockon_port'
p265
(dp266
g6
(dp267
g8
S'src_rockstor_storageadmin_views_rockon_port.html'
p268
sg10
S'src/rockstor/storageadmin/views/rockon_port'
p269
sg12
g13
(g14
g15
NtRp270
(dp271
g18
I1
sg19
I0
sg20
I14
sg21
I0
sg22
I0
sg23
I7
sg24
I0
sbssg25
S'=\xe8\x94\x1e\xce\xb5*f\xad\x8f\xba\x14\x922M\xb0'
p272
ssS'src_rockstor_storageadmin_views_login'
p273
(dp274
g6
(dp275
g30
S'src_rockstor_storageadmin_views_login.html'
p276
sg32
S'src/rockstor/storageadmin/views/login'
p277
sg34
g13
(g14
g15
NtRp278
(dp279
g18
I1
sg19
I0
sg20
I19
sg21
I0
sg22
I0
sg23
I10
sg24
I0
sbssg25
S'\xaa\x82\x89\x0f\x9c\xecAJX\x02\x7f\xd4H \xa7r'
p280
ssS'src_rockstor_storageadmin_views_disk_smart'
p281
(dp282
g6
(dp283
g30
S'src_rockstor_storageadmin_views_disk_smart.html'
p284
sg32
S'src/rockstor/storageadmin/views/disk_smart'
p285
sg34
g13
(g14
g15
NtRp286
(dp287
g18
I1
sg19
I0
sg20
I86
sg21
I0
sg22
I0
sg23
I64
sg24
I0
sbssg25
S'_\xbe\x00\xa6\xb4Z1\x1c:\x12J\xd8\x05\xa6\xf0&'
p288
ssS'src_rockstor_storageadmin_views_dashboardconfig'
p289
(dp290
g6
(dp291
g30
S'src_rockstor_storageadmin_views_dashboardconfig.html'
p292
sg32
S'src/rockstor/storageadmin/views/dashboardconfig'
p293
sg34
g13
(g14
g15
NtRp294
(dp295
g18
I1
sg19
I0
sg20
I54
sg21
I0
sg22
I0
sg23
I35
sg24
I0
sbssg25
S'*\x0c\xc7l\x84t\xd59R\xb1\x0b\xe7Fsk\xd7'
p296
ssS'src_rockstor_storageadmin_views_nfs_helpers'
p297
(dp298
g6
(dp299
g30
S'src_rockstor_storageadmin_views_nfs_helpers.html'
p300
sg32
S'src/rockstor/storageadmin/views/nfs_helpers'
p301
sg34
g13
(g14
g15
NtRp302
(dp303
g18
I1
sg19
I0
sg20
I87
sg21
I0
sg22
I0
sg23
I73
sg24
I0
sbssg25
S'\x9c\xa3\x89Z\x91R\xb8u\xeb\x17\\\xce[\xbamR'
p304
ssS'src_rockstor_storageadmin_views_share'
p305
(dp306
g6
(dp307
g30
S'src_rockstor_storageadmin_views_share.html'
p308
sg32
S'src/rockstor/storageadmin/views/share'
p309
sg34
g13
(g14
g15
NtRp310
(dp311
g18
I1
sg19
I0
sg20
I215
sg21
I0
sg22
I0
sg23
I85
sg24
I0
sbssg25
S'\xf3\xe6\x1d\xae\x1d\xb7JZ\x8a\x0c\xfe\t\xd6\xab\x14\x14'
p312
ssS'src_rockstor_storageadmin_views_samba'
p313
(dp314
g6
(dp315
g30
S'src_rockstor_storageadmin_views_samba.html'
p316
sg32
S'src/rockstor/storageadmin/views/samba'
p317
sg34
g13
(g14
g15
NtRp318
(dp319
g18
I1
sg19
I0
sg20
I148
sg21
I0
sg22
I0
sg23
I0
sg24
I0
sbssg25
S'Bc\x92\x1fws7\xads\xfe\xaa>\xa4\x95\xacc'
p320
ssS'src_rockstor_storageadmin_views_group'
p321
(dp322
g6
(dp323
g30
S'src_rockstor_storageadmin_views_group.html'
p324
sg32
S'src/rockstor/storageadmin/views/group'
p325
sg34
g13
(g14
g15
NtRp326
(dp327
g18
I1
sg19
I0
sg20
I71
sg21
I0
sg22
I0
sg23
I24
sg24
I0
sbssg25
S'`\x98\n#\x8d\x0b_\xfd\x99]Egi\xb2\x83\xb3'
p328
ssS'src_rockstor_storageadmin_views_share_command'
p329
(dp330
g6
(dp331
g30
S'src_rockstor_storageadmin_views_share_command.html'
p332
sg32
S'src/rockstor/storageadmin/views/share_command'
p333
sg34
g13
(g14
g15
NtRp334
(dp335
g18
I1
sg19
I0
sg20
I50
sg21
I0
sg22
I0
sg23
I0
sg24
I0
sbssg25
S'\x19;\xce\xa0x\xcc\xa6\x9cm\x8c\x0c\x0bh\x15\xed/'
p336
ssS'src_rockstor_storageadmin_views_share_acl'
p337
(dp338
g6
(dp339
g30
S'src_rockstor_storageadmin_views_share_acl.html'
p340
sg32
S'src/rockstor/storageadmin/views/share_acl'
p341
sg34
g13
(g14
g15
NtRp342
(dp343
g18
I1
sg19
I0
sg20
I35
sg21
I0
sg22
I0
sg23
I23
sg24
I0
sbssg25
S'\xaa\xa4I\xa2\xfd!W\xc4\xc9\xdfc\x9cRX4\x89'
p344
ssS'src_rockstor_storageadmin_views_nfs_exports'
p345
(dp346
g6
(dp347
g30
S'src_rockstor_storageadmin_views_nfs_exports.html'
p348
sg32
S'src/rockstor/storageadmin/views/nfs_exports'
p349
sg34
g13
(g14
g15
NtRp350
(dp351
g18
I1
sg19
I0
sg20
I108
sg21
I0
sg22
I0
sg23
I87
sg24
I0
sbssg25
S'\xa5\x04\x8e\x19\xc1\xd7\xfc\x18\x85\xcf\xae\xea\x15\xcc8}'
p352
ssS'src_rockstor_storageadmin_views_home'
p353
(dp354
g6
(dp355
g30
S'src_rockstor_storageadmin_views_home.html'
p356
sg32
S'src/rockstor/storageadmin/views/home'
p357
sg34
g13
(g14
g15
NtRp358
(dp359
g18
I1
sg19
I0
sg20
I36
sg21
I0
sg22
I0
sg23
I24
sg24
I0
sbssg25
S'\xff\xed\xfb\x960(\x82Q\x9dp\xcd\x1a{o\x8d\x0f'
p360
sssS'version'
p361
S'3.7.1'
p362
sS'settings'
p363
S'$\x9bi\x03\xdae\x80\xcf\xeeCv=\xc5\xa1\xf5r'
p364
sS'format'
p365
I1
s.