(dp1
S'files'
p2
(dp3
S'src_rockstor_storageadmin_views_rockon_id'
p4
(dp5
S'index'
p6
(dp7
S'html_filename'
p8
S'src_rockstor_storageadmin_views_rockon_id.html'
p9
sS'name'
p10
S'src/rockstor/storageadmin/views/rockon_id'
p11
sS'nums'
p12
ccopy_reg
_reconstructor
p13
(ccoverage.results
Numbers
p14
c__builtin__
object
p15
NtRp16
(dp17
S'n_files'
p18
I1
sS'n_branches'
p19
I0
sS'n_statements'
p20
I142
sS'n_excluded'
p21
I0
sS'n_partial_branches'
p22
I0
sS'n_missing'
p23
I125
sS'n_missing_branches'
p24
I0
sbssS'hash'
p25
S'Q*\x06\xf1;yM\xf1\x8e\x89\xe6\xed\xd31\x14{'
p26
ssS'src_rockstor_storageadmin_views___init__'
p27
(dp28
g6
(dp29
g8
S'src_rockstor_storageadmin_views___init__.html'
p30
sg10
S'src/rockstor/storageadmin/views/__init__'
p31
sg12
g13
(g14
g15
NtRp32
(dp33
g18
I1
sg19
I0
sg20
I33
sg21
I0
sg22
I0
sg23
I0
sg24
I0
sbssg25
S'\xd2Rn\xa1;\x08d4\x85a6\x82\x16\x80\x97\xa4'
p34
ssS'src_rockstor_storageadmin_views_ug_helpers'
p35
(dp36
g6
(dp37
g8
S'src_rockstor_storageadmin_views_ug_helpers.html'
p38
sg10
S'src/rockstor/storageadmin/views/ug_helpers'
p39
sg12
g13
(g14
g15
NtRp40
(dp41
g18
I1
sg19
I0
sg20
I63
sg21
I0
sg22
I0
sg23
I31
sg24
I0
sbssg25
S'\x19B~k\xfb\xa4\xefXr!\x99\xae\\\xfd\x9bu'
p42
ssS'src_rockstor_storageadmin_views_email_client'
p43
(dp44
g6
(dp45
g8
S'src_rockstor_storageadmin_views_email_client.html'
p46
sg10
S'src/rockstor/storageadmin/views/email_client'
p47
sg12
g13
(g14
g15
NtRp48
(dp49
g18
I1
sg19
I0
sg20
I109
sg21
I0
sg22
I0
sg23
I44
sg24
I0
sbssg25
S'\x94\x8cg\x81\xc7\x1a\x12\x7f\x82&\xa7C\xabm\xd81'
p50
ssS'src_rockstor_storageadmin_views_tls_certificate'
p51
(dp52
g6
(dp53
g8
S'src_rockstor_storageadmin_views_tls_certificate.html'
p54
sg10
S'src/rockstor/storageadmin/views/tls_certificate'
p55
sg12
g13
(g14
g15
NtRp56
(dp57
g18
I1
sg19
I0
sg20
I53
sg21
I0
sg22
I0
sg23
I16
sg24
I0
sbssg25
S'\xf5\x9f\x80&\xaa\xba\xe5=\x8b\xdb\xab\x1b\x99\x84\xa9\xbe'
p58
ssS'src_rockstor_storageadmin_views_oauth_app'
p59
(dp60
g6
(dp61
g8
S'src_rockstor_storageadmin_views_oauth_app.html'
p62
sg10
S'src/rockstor/storageadmin/views/oauth_app'
p63
sg12
g13
(g14
g15
NtRp64
(dp65
g18
I1
sg19
I0
sg20
I51
sg21
I0
sg22
I0
sg23
I13
sg24
I0
sbssg25
S'l\x08f\xfe\xec+[\xaff\xbfp\x13q\xdbQ\xcc'
p66
ssS'src_rockstor_storageadmin_views_rockon_helpers'
p67
(dp68
g6
(dp69
g8
S'src_rockstor_storageadmin_views_rockon_helpers.html'
p70
sg10
S'src/rockstor/storageadmin/views/rockon_helpers'
p71
sg12
g13
(g14
g15
NtRp72
(dp73
g18
I1
sg19
I0
sg20
I196
sg21
I0
sg22
I0
sg23
I160
sg24
I0
sbssg25
S'\xf0\xb6\x1c \x18"\xf4\xaf\x12\xb4\xa9fv\x12\x87\xed'
p74
ssS'src_rockstor_storageadmin_views_clone_helpers'
p75
(dp76
g6
(dp77
g8
S'src_rockstor_storageadmin_views_clone_helpers.html'
p78
sg10
S'src/rockstor/storageadmin/views/clone_helpers'
p79
sg12
g13
(g14
g15
NtRp80
(dp81
g18
I1
sg19
I0
sg20
I31
sg21
I0
sg22
I0
sg23
I23
sg24
I0
sbssg25
S'\x07\x18\x1d\x01\x19s\xd9\x9f/\xe5\xe9\xb4P\x80\xd2m'
p82
ssS'src_rockstor_storageadmin_views_netatalk'
p83
(dp84
g6
(dp85
g8
S'src_rockstor_storageadmin_views_netatalk.html'
p86
sg10
S'src/rockstor/storageadmin/views/netatalk'
p87
sg12
g13
(g14
g15
NtRp88
(dp89
g18
I1
sg19
I0
sg20
I93
sg21
I0
sg22
I0
sg23
I13
sg24
I0
sbssg25
S'vH\xe2\xee\xf2$\x02`\xc5N\x84\xfa\x8f\x81\x84k'
p90
ssS'src_rockstor_storageadmin_views_rockon_json'
p91
(dp92
g6
(dp93
g8
S'src_rockstor_storageadmin_views_rockon_json.html'
p94
sg10
S'src/rockstor/storageadmin/views/rockon_json'
p95
sg12
g13
(g14
g15
NtRp96
(dp97
g18
I1
sg19
I0
sg20
I10
sg21
I0
sg22
I0
sg23
I10
sg24
I0
sbssg25
S'\xdb&\x14\xd7\x1cP\x82\xa2\x10\xd3TM\r\xa9TP'
p98
ssS'src_rockstor_storageadmin_views_user'
p99
(dp100
g6
(dp101
g8
S'src_rockstor_storageadmin_views_user.html'
p102
sg10
S'src/rockstor/storageadmin/views/user'
p103
sg12
g13
(g14
g15
NtRp104
(dp105
g18
I1
sg19
I0
sg20
I214
sg21
I0
sg22
I0
sg23
I15
sg24
I0
sbssg25
S'\x7f\x87\xcf\xf6\x84\xd2\xdf\xfb\xb8\xcf~\xb8z[\xf0\xdb'
p106
ssS'src_rockstor_storageadmin_views_views'
p107
(dp108
g6
(dp109
g8
S'src_rockstor_storageadmin_views_views.html'
p110
sg10
S'src/rockstor/storageadmin/views/views'
p111
sg12
g13
(g14
g15
NtRp112
(dp113
g18
I1
sg19
I0
sg20
I0
sg21
I0
sg22
I0
sg23
I0
sg24
I0
sbssg25
S'{\xd99q\x98)\xfekT\xb8H7M\x1c\x94\xba'
p114
ssS'src_rockstor_storageadmin_views_nfs_exports'
p115
(dp116
g6
(dp117
g8
S'src_rockstor_storageadmin_views_nfs_exports.html'
p118
sg10
S'src/rockstor/storageadmin/views/nfs_exports'
p119
sg12
g13
(g14
g15
NtRp120
(dp121
g18
I1
sg19
I0
sg20
I216
sg21
I0
sg22
I0
sg23
I5
sg24
I0
sbssg25
S'\xa9\xb0:\xd6\xfb\xc4r\x84\xd5\xb1\xba\xde\xccx\xdd\x9f'
p122
ssS'src_rockstor_storageadmin_views_disk_smart'
p123
(dp124
g6
(dp125
g8
S'src_rockstor_storageadmin_views_disk_smart.html'
p126
sg10
S'src/rockstor/storageadmin/views/disk_smart'
p127
sg12
g13
(g14
g15
NtRp128
(dp129
g18
I1
sg19
I0
sg20
I86
sg21
I0
sg22
I0
sg23
I46
sg24
I0
sbssg25
S'Z\xbd\xacu\x9eG|\x95\x017\xaa\r\xd1\xabL\xb1'
p130
ssS'src_rockstor_storageadmin_views_setup_user'
p131
(dp132
g6
(dp133
g8
S'src_rockstor_storageadmin_views_setup_user.html'
p134
sg10
S'src/rockstor/storageadmin/views/setup_user'
p135
sg12
g13
(g14
g15
NtRp136
(dp137
g18
I1
sg19
I0
sg20
I32
sg21
I0
sg22
I0
sg23
I20
sg24
I0
sbssg25
S'\xec\x94\x84\x1a\x9aM2\xb5p\xca\xa2\x96\x95\x1cq\n'
p138
ssS'src_rockstor_storageadmin_views_update_subscription'
p139
(dp140
g6
(dp141
g8
S'src_rockstor_storageadmin_views_update_subscription.html'
p142
sg10
S'src/rockstor/storageadmin/views/update_subscription'
p143
sg12
g13
(g14
g15
NtRp144
(dp145
g18
I1
sg19
I0
sg20
I67
sg21
I0
sg22
I0
sg23
I36
sg24
I0
sbssg25
S'xL"\xd3m\xf2\xbe\x9c\x0e\xe1\xff\x81\x0e\xf5\xe1\xb4'
p146
ssS'src_rockstor_storageadmin_views_pool_balance'
p147
(dp148
g6
(dp149
g8
S'src_rockstor_storageadmin_views_pool_balance.html'
p150
sg10
S'src/rockstor/storageadmin/views/pool_balance'
p151
sg12
g13
(g14
g15
NtRp152
(dp153
g18
I1
sg19
I0
sg20
I67
sg21
I0
sg22
I0
sg23
I23
sg24
I0
sbssg25
S'\x91\x9a\xb2\xb5!\x1f\x05\x8f\xd9\x11w3\x1c\x11$\xb2'
p154
ssS'src_rockstor_storageadmin_views_pool'
p155
(dp156
g6
(dp157
g8
S'src_rockstor_storageadmin_views_pool.html'
p158
sg10
S'src/rockstor/storageadmin/views/pool'
p159
sg12
g13
(g14
g15
NtRp160
(dp161
g18
I1
sg19
I0
sg20
I294
sg21
I0
sg22
I0
sg23
I32
sg24
I0
sbssg25
S'N^\xa7\xc1\xce\xc0\x92\x1d\xefP\xbf\xe7\x90\x118\x83'
p162
ssS'src_rockstor_storageadmin_views_pool_scrub'
p163
(dp164
g6
(dp165
g8
S'src_rockstor_storageadmin_views_pool_scrub.html'
p166
sg10
S'src/rockstor/storageadmin/views/pool_scrub'
p167
sg12
g13
(g14
g15
NtRp168
(dp169
g18
I1
sg19
I0
sg20
I58
sg21
I0
sg22
I0
sg23
I6
sg24
I0
sbssg25
S'\xc3\xb6Af\x03\x0e\xbf\xf8R\x0b\xa9\xab\xc3\x1aw\xd2'
p170
ssS'src_rockstor_storageadmin_views_rockon'
p171
(dp172
g6
(dp173
g8
S'src_rockstor_storageadmin_views_rockon.html'
p174
sg10
S'src/rockstor/storageadmin/views/rockon'
p175
sg12
g13
(g14
g15
NtRp176
(dp177
g18
I1
sg19
I0
sg20
I211
sg21
I0
sg22
I0
sg23
I187
sg24
I0
sbssg25
S'\xb4o\xf9"\x94\\\x90?\xb01:\x1b\x99\x0f\xaeN'
p178
ssS'src_rockstor_storageadmin_views_sftp'
p179
(dp180
g6
(dp181
g8
S'src_rockstor_storageadmin_views_sftp.html'
p182
sg10
S'src/rockstor/storageadmin/views/sftp'
p183
sg12
g13
(g14
g15
NtRp184
(dp185
g18
I1
sg19
I0
sg20
I79
sg21
I0
sg22
I0
sg23
I13
sg24
I0
sbssg25
S'u\xbf\xb7\xcf\xa9\xff\x88m\xfd\xa5\xf2>\xd4\xf4\x19\xb4'
p186
ssS'src_rockstor_storageadmin_views_rockon_volume'
p187
(dp188
g6
(dp189
g8
S'src_rockstor_storageadmin_views_rockon_volume.html'
p190
sg10
S'src/rockstor/storageadmin/views/rockon_volume'
p191
sg12
g13
(g14
g15
NtRp192
(dp193
g18
I1
sg19
I0
sg20
I14
sg21
I0
sg22
I0
sg23
I7
sg24
I0
sbssg25
S'\x83:\x8e\x86\xe0\x89\x8e-#\xaa}Hs\xf3N\x04'
p194
ssS'src_rockstor_storageadmin_views_network'
p195
(dp196
g6
(dp197
g8
S'src_rockstor_storageadmin_views_network.html'
p198
sg10
S'src/rockstor/storageadmin/views/network'
p199
sg12
g13
(g14
g15
NtRp200
(dp201
g18
I1
sg19
I0
sg20
I156
sg21
I0
sg22
I0
sg23
I32
sg24
I0
sbssg25
S'\xf7\x94\xab\xe2(\xf0\xef\x05\xde\xdbd\xc9gD\xedr'
p202
ssS'src_rockstor_storageadmin_views_command'
p203
(dp204
g6
(dp205
g8
S'src_rockstor_storageadmin_views_command.html'
p206
sg10
S'src/rockstor/storageadmin/views/command'
p207
sg12
g13
(g14
g15
NtRp208
(dp209
g18
I1
sg19
I0
sg20
I190
sg21
I0
sg22
I0
sg23
I79
sg24
I0
sbssg25
S'\xff\x0b\x9e\x1e\xea$k\xd7\xb8\xe6\x8dgB\xa0\xf8\xdd'
p210
ssS'src_rockstor_storageadmin_views_disk'
p211
(dp212
g6
(dp213
g8
S'src_rockstor_storageadmin_views_disk.html'
p214
sg10
S'src/rockstor/storageadmin/views/disk'
p215
sg12
g13
(g14
g15
NtRp216
(dp217
g18
I1
sg19
I0
sg20
I185
sg21
I0
sg22
I0
sg23
I81
sg24
I0
sbssg25
S'\x11J&b\x949\xfb\xa7\xed\x12l9\xc9MP\x07'
p218
ssS'src_rockstor_storageadmin_views_share_helpers'
p219
(dp220
g6
(dp221
g8
S'src_rockstor_storageadmin_views_share_helpers.html'
p222
sg10
S'src/rockstor/storageadmin/views/share_helpers'
p223
sg12
g13
(g14
g15
NtRp224
(dp225
g18
I1
sg19
I0
sg20
I106
sg21
I0
sg22
I0
sg23
I86
sg24
I0
sbssg25
S'qc\xdaM\x02\x06\xea:\xe2\xb46\xa9\x0f\xb6\x0c\xdc'
p226
ssS'src_rockstor_storageadmin_views_rockon_custom_config'
p227
(dp228
g6
(dp229
g8
S'src_rockstor_storageadmin_views_rockon_custom_config.html'
p230
sg10
S'src/rockstor/storageadmin/views/rockon_custom_config'
p231
sg12
g13
(g14
g15
NtRp232
(dp233
g18
I1
sg19
I0
sg20
I13
sg21
I0
sg22
I0
sg23
I6
sg24
I0
sbssg25
S';\x17\xcc\xbe\xe6\x80\x7f\xcc\x9a%p\xa7*AN\xa1'
p234
ssS'src_rockstor_storageadmin_views_rockon_port'
p235
(dp236
g6
(dp237
g8
S'src_rockstor_storageadmin_views_rockon_port.html'
p238
sg10
S'src/rockstor/storageadmin/views/rockon_port'
p239
sg12
g13
(g14
g15
NtRp240
(dp241
g18
I1
sg19
I0
sg20
I14
sg21
I0
sg22
I0
sg23
I7
sg24
I0
sbssg25
S'\xc8\xe4\xd9fY\x7f?\xad\xa7\xbc\x1c\r\xf1\x11\xd5c'
p242
ssS'src_rockstor_storageadmin_views_login'
p243
(dp244
g6
(dp245
g8
S'src_rockstor_storageadmin_views_login.html'
p246
sg10
S'src/rockstor/storageadmin/views/login'
p247
sg12
g13
(g14
g15
NtRp248
(dp249
g18
I1
sg19
I0
sg20
I19
sg21
I0
sg22
I0
sg23
I2
sg24
I0
sbssg25
S'w\xe0UfT\x8d\x89\xe8XlG\xed\xa4\xb9\x97,'
p250
ssS'src_rockstor_storageadmin_views_appliances'
p251
(dp252
g6
(dp253
g8
S'src_rockstor_storageadmin_views_appliances.html'
p254
sg10
S'src/rockstor/storageadmin/views/appliances'
p255
sg12
g13
(g14
g15
NtRp256
(dp257
g18
I1
sg19
I0
sg20
I105
sg21
I0
sg22
I0
sg23
I34
sg24
I0
sbssg25
S'q\xb3R\xb6;\x98\xde\xd1\xcd\x01W\x13\x01\xf6\x13\xcd'
p258
ssS'src_rockstor_storageadmin_views_snapshot'
p259
(dp260
g6
(dp261
g8
S'src_rockstor_storageadmin_views_snapshot.html'
p262
sg10
S'src/rockstor/storageadmin/views/snapshot'
p263
sg12
g13
(g14
g15
NtRp264
(dp265
g18
I1
sg19
I0
sg20
I155
sg21
I0
sg22
I0
sg23
I37
sg24
I0
sbssg25
S'O\xf5m;\xd0.\xaa\x15\x9d\xf0pI]\xb2CY'
p266
ssS'src_rockstor_storageadmin_views_share'
p267
(dp268
g6
(dp269
g8
S'src_rockstor_storageadmin_views_share.html'
p270
sg10
S'src/rockstor/storageadmin/views/share'
p271
sg12
g13
(g14
g15
NtRp272
(dp273
g18
I1
sg19
I0
sg20
I175
sg21
I0
sg22
I0
sg23
I9
sg24
I0
sbssg25
S'o;\xb2\xe5\xff\xaf[r\x03\x83A\xc1-@\x1e\xed'
p274
ssS'src_rockstor_storageadmin_views_samba'
p275
(dp276
g6
(dp277
g8
S'src_rockstor_storageadmin_views_samba.html'
p278
sg10
S'src/rockstor/storageadmin/views/samba'
p279
sg12
g13
(g14
g15
NtRp280
(dp281
g18
I1
sg19
I0
sg20
I153
sg21
I0
sg22
I0
sg23
I5
sg24
I0
sbssg25
S'E\x913NM\xfb\x01\xfd\x1a\xa8i\xbc\x03\x89\x0e3'
p282
ssS'src_rockstor_storageadmin_views_config_backup'
p283
(dp284
g6
(dp285
g8
S'src_rockstor_storageadmin_views_config_backup.html'
p286
sg10
S'src/rockstor/storageadmin/views/config_backup'
p287
sg12
g13
(g14
g15
NtRp288
(dp289
g18
I1
sg19
I0
sg20
I206
sg21
I0
sg22
I0
sg23
I121
sg24
I0
sbssg25
S'\xef$@\x01\xc0\xcc\xe8]\xaa\x80?$\xc5\xc3\x0f5'
p290
ssS'src_rockstor_storageadmin_views_group'
p291
(dp292
g6
(dp293
g8
S'src_rockstor_storageadmin_views_group.html'
p294
sg10
S'src/rockstor/storageadmin/views/group'
p295
sg12
g13
(g14
g15
NtRp296
(dp297
g18
I1
sg19
I0
sg20
I72
sg21
I0
sg22
I0
sg23
I7
sg24
I0
sbssg25
S'\xf1\x1e}+]\x15.\xb4\xffm}\xef\xe8;Y\x04'
p298
ssS'src_rockstor_storageadmin_views_share_command'
p299
(dp300
g6
(dp301
g8
S'src_rockstor_storageadmin_views_share_command.html'
p302
sg10
S'src/rockstor/storageadmin/views/share_command'
p303
sg12
g13
(g14
g15
NtRp304
(dp305
g18
I1
sg19
I0
sg20
I49
sg21
I0
sg22
I0
sg23
I0
sg24
I0
sbssg25
S'\xb2)\x13\xb7*q\x1e\xc5EN\x86\xc9D\xa8~v'
p306
ssS'src_rockstor_storageadmin_views_share_acl'
p307
(dp308
g6
(dp309
g8
S'src_rockstor_storageadmin_views_share_acl.html'
p310
sg10
S'src/rockstor/storageadmin/views/share_acl'
p311
sg12
g13
(g14
g15
NtRp312
(dp313
g18
I1
sg19
I0
sg20
I34
sg21
I0
sg22
I0
sg23
I4
sg24
I0
sbssg25
S'\xc4>\x1a\xbeq\x00Id\xf8\x17\x04V\xe5e\xed:'
p314
ssS'src_rockstor_storageadmin_views_dashboardconfig'
p315
(dp316
g6
(dp317
g8
S'src_rockstor_storageadmin_views_dashboardconfig.html'
p318
sg10
S'src/rockstor/storageadmin/views/dashboardconfig'
p319
sg12
g13
(g14
g15
NtRp320
(dp321
g18
I1
sg19
I0
sg20
I54
sg21
I0
sg22
I0
sg23
I12
sg24
I0
sbssg25
S"\xeb\xca%\xbfhE\xdc\xef\x18<\x7fP\xd7]'\xa9"
p322
ssS'src_rockstor_storageadmin_views_home'
p323
(dp324
g6
(dp325
g8
S'src_rockstor_storageadmin_views_home.html'
p326
sg10
S'src/rockstor/storageadmin/views/home'
p327
sg12
g13
(g14
g15
NtRp328
(dp329
g18
I1
sg19
I0
sg20
I36
sg21
I0
sg22
I0
sg23
I24
sg24
I0
sbssg25
S'\x0b\x8c\xa5KzED\xa8\xda\t@\x8a\xf7\xab\x01\xd5'
p330
sssS'version'
p331
S'3.7.1'
p332
sS'settings'
p333
S'\xa2\x86\xcc\xad1,\x8f\xab;\xf6\x0b\x9d\x1b\xf8\x1d.'
p334
sS'format'
p335
I1
s.