(dp1
S'files'
p2
(dp3
S'src_rockstor_storageadmin_views_rockon_id'
p4
(dp5
S'index'
p6
(dp7
S'html_filename'
p8
S'src_rockstor_storageadmin_views_rockon_id.html'
p9
sS'name'
p10
S'src/rockstor/storageadmin/views/rockon_id'
p11
sS'nums'
p12
ccopy_reg
_reconstructor
p13
(ccoverage.results
Numbers
p14
c__builtin__
object
p15
NtRp16
(dp17
S'n_files'
p18
I1
sS'n_branches'
p19
I0
sS'n_statements'
p20
I142
sS'n_excluded'
p21
I0
sS'n_partial_branches'
p22
I0
sS'n_missing'
p23
I125
sS'n_missing_branches'
p24
I0
sbssS'hash'
p25
S'Q*\x06\xf1;yM\xf1\x8e\x89\xe6\xed\xd31\x14{'
p26
ssS'src_rockstor_storageadmin_views___init__'
p27
(dp28
g6
(dp29
g8
S'src_rockstor_storageadmin_views___init__.html'
p30
sg10
S'src/rockstor/storageadmin/views/__init__'
p31
sg12
g13
(g14
g15
NtRp32
(dp33
g18
I1
sg19
I0
sg20
I34
sg21
I0
sg22
I0
sg23
I0
sg24
I0
sbssg25
S'\xfas\x16#Tc\xc4\xffm\x17\xcah\xed\xd9\x98\xfa'
p34
ssS'src_rockstor_storageadmin_views_ug_helpers'
p35
(dp36
g6
(dp37
g8
S'src_rockstor_storageadmin_views_ug_helpers.html'
p38
sg10
S'src/rockstor/storageadmin/views/ug_helpers'
p39
sg12
g13
(g14
g15
NtRp40
(dp41
g18
I1
sg19
I0
sg20
I63
sg21
I0
sg22
I0
sg23
I57
sg24
I0
sbssg25
S'\xeb\x07m\x0c~i\xa82\x999U\x84\xa9\xb7\xab\xcb'
p42
ssS'src_rockstor_storageadmin_views_tls_certificate'
p43
(dp44
g6
(dp45
g8
S'src_rockstor_storageadmin_views_tls_certificate.html'
p46
sg10
S'src/rockstor/storageadmin/views/tls_certificate'
p47
sg12
g13
(g14
g15
NtRp48
(dp49
g18
I1
sg19
I0
sg20
I53
sg21
I0
sg22
I0
sg23
I35
sg24
I0
sbssg25
S'#\xeb[\x90\x1f\xb65\xd6\x0b\xeb}\x97\x8e\x85S\x82'
p50
ssS'src_rockstor_storageadmin_views_oauth_app'
p51
(dp52
g6
(dp53
g8
S'src_rockstor_storageadmin_views_oauth_app.html'
p54
sg10
S'src/rockstor/storageadmin/views/oauth_app'
p55
sg12
g13
(g14
g15
NtRp56
(dp57
g18
I1
sg19
I0
sg20
I51
sg21
I0
sg22
I0
sg23
I37
sg24
I0
sbssg25
S'\x8c\xa7Ff\xe9us5b\xed,2\xc7\x88{\xf7'
p58
ssS'src_rockstor_storageadmin_views_rockon_helpers'
p59
(dp60
g6
(dp61
g8
S'src_rockstor_storageadmin_views_rockon_helpers.html'
p62
sg10
S'src/rockstor/storageadmin/views/rockon_helpers'
p63
sg12
g13
(g14
g15
NtRp64
(dp65
g18
I1
sg19
I0
sg20
I195
sg21
I0
sg22
I0
sg23
I160
sg24
I0
sbssg25
S'I\xb1\xb0f\x95\xf0\x8dm\xad\xd7\xec\xe1C\xe5\x00\x9d'
p66
ssS'src_rockstor_storageadmin_views_disk'
p67
(dp68
g6
(dp69
g8
S'src_rockstor_storageadmin_views_disk.html'
p70
sg10
S'src/rockstor/storageadmin/views/disk'
p71
sg12
g13
(g14
g15
NtRp72
(dp73
g18
I1
sg19
I0
sg20
I170
sg21
I0
sg22
I0
sg23
I138
sg24
I0
sbssg25
S't\xde\xa8T&\x9a~\x0c\xe7<\xbb\x10\xf3\t\x8a\xef'
p74
ssS'src_rockstor_storageadmin_views_nfs_exports'
p75
(dp76
g6
(dp77
g8
S'src_rockstor_storageadmin_views_nfs_exports.html'
p78
sg10
S'src/rockstor/storageadmin/views/nfs_exports'
p79
sg12
g13
(g14
g15
NtRp80
(dp81
g18
I1
sg19
I0
sg20
I214
sg21
I0
sg22
I0
sg23
I7
sg24
I0
sbssg25
S']\x9c\x8d\xeb\xbf\xc0eW\xaf\xa9}~\xe7\xd1\xdf\xfe'
p82
ssS'src_rockstor_storageadmin_views_netatalk'
p83
(dp84
g6
(dp85
g8
S'src_rockstor_storageadmin_views_netatalk.html'
p86
sg10
S'src/rockstor/storageadmin/views/netatalk'
p87
sg12
g13
(g14
g15
NtRp88
(dp89
g18
I1
sg19
I0
sg20
I93
sg21
I0
sg22
I0
sg23
I13
sg24
I0
sbssg25
S'vH\xe2\xee\xf2$\x02`\xc5N\x84\xfa\x8f\x81\x84k'
p90
ssS'src_rockstor_storageadmin_views_snapshot'
p91
(dp92
g6
(dp93
g8
S'src_rockstor_storageadmin_views_snapshot.html'
p94
sg10
S'src/rockstor/storageadmin/views/snapshot'
p95
sg12
g13
(g14
g15
NtRp96
(dp97
g18
I1
sg19
I0
sg20
I156
sg21
I0
sg22
I0
sg23
I128
sg24
I0
sbssg25
S'[K>\xb7\xb2\xfe\x99\xb7l\xea\xfa%\xaf\xf0\xb4R'
p98
ssS'src_rockstor_storageadmin_views_user'
p99
(dp100
g6
(dp101
g8
S'src_rockstor_storageadmin_views_user.html'
p102
sg10
S'src/rockstor/storageadmin/views/user'
p103
sg12
g13
(g14
g15
NtRp104
(dp105
g18
I1
sg19
I0
sg20
I214
sg21
I0
sg22
I0
sg23
I186
sg24
I0
sbssg25
S'\xb9\rid\xc2%$M\xe3\x05>w\xe12\xc6\xa0'
p106
ssS'src_rockstor_storageadmin_views_views'
p107
(dp108
g6
(dp109
g8
S'src_rockstor_storageadmin_views_views.html'
p110
sg10
S'src/rockstor/storageadmin/views/views'
p111
sg12
g13
(g14
g15
NtRp112
(dp113
g18
I1
sg19
I0
sg20
I0
sg21
I0
sg22
I0
sg23
I0
sg24
I0
sbssg25
S'{\xd99q\x98)\xfekT\xb8H7M\x1c\x94\xba'
p114
ssS'src_rockstor_storageadmin_views_support'
p115
(dp116
g6
(dp117
g8
S'src_rockstor_storageadmin_views_support.html'
p118
sg10
S'src/rockstor/storageadmin/views/support'
p119
sg12
g13
(g14
g15
NtRp120
(dp121
g18
I1
sg19
I0
sg20
I74
sg21
I0
sg22
I0
sg23
I49
sg24
I0
sbssg25
S'\xbdKJ\xfd\x10d\xf2\xd6&%\x7f!\x19w\x14\xe2'
p122
ssS'src_rockstor_storageadmin_views_clone_helpers'
p123
(dp124
g6
(dp125
g8
S'src_rockstor_storageadmin_views_clone_helpers.html'
p126
sg10
S'src/rockstor/storageadmin/views/clone_helpers'
p127
sg12
g13
(g14
g15
NtRp128
(dp129
g18
I1
sg19
I0
sg20
I31
sg21
I0
sg22
I0
sg23
I23
sg24
I0
sbssg25
S'\x07\x18\x1d\x01\x19s\xd9\x9f/\xe5\xe9\xb4P\x80\xd2m'
p130
ssS'src_rockstor_storageadmin_views_share_iscsi'
p131
(dp132
g6
(dp133
g8
S'src_rockstor_storageadmin_views_share_iscsi.html'
p134
sg10
S'src/rockstor/storageadmin/views/share_iscsi'
p135
sg12
g13
(g14
g15
NtRp136
(dp137
g18
I1
sg19
I0
sg20
I58
sg21
I0
sg22
I0
sg23
I42
sg24
I0
sbssg25
S'\xa1\x18T\xa1\x93\xf1\xac\xc8-\xa5H\xac\x12 \x8aO'
p138
ssS'src_rockstor_storageadmin_views_setup_user'
p139
(dp140
g6
(dp141
g8
S'src_rockstor_storageadmin_views_setup_user.html'
p142
sg10
S'src/rockstor/storageadmin/views/setup_user'
p143
sg12
g13
(g14
g15
NtRp144
(dp145
g18
I1
sg19
I0
sg20
I32
sg21
I0
sg22
I0
sg23
I20
sg24
I0
sbssg25
S'\xec\x94\x84\x1a\x9aM2\xb5p\xca\xa2\x96\x95\x1cq\n'
p146
ssS'src_rockstor_storageadmin_views_pool_balance'
p147
(dp148
g6
(dp149
g8
S'src_rockstor_storageadmin_views_pool_balance.html'
p150
sg10
S'src/rockstor/storageadmin/views/pool_balance'
p151
sg12
g13
(g14
g15
NtRp152
(dp153
g18
I1
sg19
I0
sg20
I67
sg21
I0
sg22
I0
sg23
I47
sg24
I0
sbssg25
S'9x\xa8\xcf\x0f\xaa\xf9\xbf\x81\xed\xc1TJ\xf8\xff='
p154
ssS'src_rockstor_storageadmin_views_pool'
p155
(dp156
g6
(dp157
g8
S'src_rockstor_storageadmin_views_pool.html'
p158
sg10
S'src/rockstor/storageadmin/views/pool'
p159
sg12
g13
(g14
g15
NtRp160
(dp161
g18
I1
sg19
I0
sg20
I289
sg21
I0
sg22
I0
sg23
I259
sg24
I0
sbssg25
S'\xb5\xbe\xa0\x96\xf6X\r\xe4\x81\xa7\x8f&\xf0\xa3\xe4\xf4'
p162
ssS'src_rockstor_storageadmin_views_pool_scrub'
p163
(dp164
g6
(dp165
g8
S'src_rockstor_storageadmin_views_pool_scrub.html'
p166
sg10
S'src/rockstor/storageadmin/views/pool_scrub'
p167
sg12
g13
(g14
g15
NtRp168
(dp169
g18
I1
sg19
I0
sg20
I58
sg21
I0
sg22
I0
sg23
I41
sg24
I0
sbssg25
S'\x9a\xef\xa4\x9f\x7f\xb4\xf4\xbeo\xca\x8e\xbeG\xd1N\xae'
p170
ssS'src_rockstor_storageadmin_views_email'
p171
(dp172
g6
(dp173
g8
S'src_rockstor_storageadmin_views_email.html'
p174
sg10
S'src/rockstor/storageadmin/views/email'
p175
sg12
g13
(g14
g15
NtRp176
(dp177
g18
I1
sg19
I0
sg20
I79
sg21
I0
sg22
I0
sg23
I52
sg24
I0
sbssg25
S'\xc8\xf24\x98\x7f\xa1u\x86\x80\x9c\x7fg\xc2\xc8\xd7\xcb'
p178
ssS'src_rockstor_storageadmin_views_rockon'
p179
(dp180
g6
(dp181
g8
S'src_rockstor_storageadmin_views_rockon.html'
p182
sg10
S'src/rockstor/storageadmin/views/rockon'
p183
sg12
g13
(g14
g15
NtRp184
(dp185
g18
I1
sg19
I0
sg20
I166
sg21
I0
sg22
I0
sg23
I145
sg24
I0
sbssg25
S'G<i\x8e\xb8p\xcf#\xec\x9f+\xf89\xc9\xb1\xf5'
p186
ssS'src_rockstor_storageadmin_views_sftp'
p187
(dp188
g6
(dp189
g8
S'src_rockstor_storageadmin_views_sftp.html'
p190
sg10
S'src/rockstor/storageadmin/views/sftp'
p191
sg12
g13
(g14
g15
NtRp192
(dp193
g18
I1
sg19
I0
sg20
I79
sg21
I0
sg22
I0
sg23
I13
sg24
I0
sbssg25
S'u\xbf\xb7\xcf\xa9\xff\x88m\xfd\xa5\xf2>\xd4\xf4\x19\xb4'
p194
ssS'src_rockstor_storageadmin_views_rockon_volume'
p195
(dp196
g6
(dp197
g8
S'src_rockstor_storageadmin_views_rockon_volume.html'
p198
sg10
S'src/rockstor/storageadmin/views/rockon_volume'
p199
sg12
g13
(g14
g15
NtRp200
(dp201
g18
I1
sg19
I0
sg20
I14
sg21
I0
sg22
I0
sg23
I7
sg24
I0
sbssg25
S'\xf9\x1eb\xf5\x1c\x14\xfbh-\xd2\x9fJ\x90=\xafH'
p202
ssS'src_rockstor_storageadmin_views_network'
p203
(dp204
g6
(dp205
S'html_filename'
p206
S'src_rockstor_storageadmin_views_network.html'
p207
sS'name'
p208
S'src/rockstor/storageadmin/views/network'
p209
sS'nums'
p210
g13
(g14
g15
NtRp211
(dp212
g18
I1
sg19
I0
sg20
I157
sg21
I0
sg22
I0
sg23
I126
sg24
I0
sbssg25
S'\xa8`\x04\xbc\x8a\xd9<h\x10\xb5\xf5vkF8\xbe'
p213
ssS'src_rockstor_storageadmin_views_command'
p214
(dp215
g6
(dp216
g8
S'src_rockstor_storageadmin_views_command.html'
p217
sg10
S'src/rockstor/storageadmin/views/command'
p218
sg12
g13
(g14
g15
NtRp219
(dp220
g18
I1
sg19
I0
sg20
I193
sg21
I0
sg22
I0
sg23
I167
sg24
I0
sbssg25
S'\xe08W\x13\x0c\xfa\x98\x050]\x83\xe3\xc0\xd5\xb3w'
p221
ssS'src_rockstor_storageadmin_views_disk_smart'
p222
(dp223
g6
(dp224
g8
S'src_rockstor_storageadmin_views_disk_smart.html'
p225
sg10
S'src/rockstor/storageadmin/views/disk_smart'
p226
sg12
g13
(g14
g15
NtRp227
(dp228
g18
I1
sg19
I0
sg20
I86
sg21
I0
sg22
I0
sg23
I64
sg24
I0
sbssg25
S'\x9e\x82\x0f\x03)\x90|\xf1Z\xf2\x0b\xe7\xa0#\x93)'
p229
ssS'src_rockstor_storageadmin_views_share_helpers'
p230
(dp231
g6
(dp232
g8
S'src_rockstor_storageadmin_views_share_helpers.html'
p233
sg10
S'src/rockstor/storageadmin/views/share_helpers'
p234
sg12
g13
(g14
g15
NtRp235
(dp236
g18
I1
sg19
I0
sg20
I106
sg21
I0
sg22
I0
sg23
I88
sg24
I0
sbssg25
S'\x85X\xa9!\xc2)\xeb\xee\x98\xd9\x01\\\x12\\\xa8\xe8'
p237
ssS'src_rockstor_storageadmin_views_rockon_custom_config'
p238
(dp239
g6
(dp240
g8
S'src_rockstor_storageadmin_views_rockon_custom_config.html'
p241
sg10
S'src/rockstor/storageadmin/views/rockon_custom_config'
p242
sg12
g13
(g14
g15
NtRp243
(dp244
g18
I1
sg19
I0
sg20
I13
sg21
I0
sg22
I0
sg23
I6
sg24
I0
sbssg25
S'\x94V\xf46\xb3\xb9\x15\x8b*~\xddTb\xcb\xe8='
p245
ssS'src_rockstor_storageadmin_views_rockon_port'
p246
(dp247
g6
(dp248
g8
S'src_rockstor_storageadmin_views_rockon_port.html'
p249
sg10
S'src/rockstor/storageadmin/views/rockon_port'
p250
sg12
g13
(g14
g15
NtRp251
(dp252
g18
I1
sg19
I0
sg20
I14
sg21
I0
sg22
I0
sg23
I7
sg24
I0
sbssg25
S'=\xe8\x94\x1e\xce\xb5*f\xad\x8f\xba\x14\x922M\xb0'
p253
ssS'src_rockstor_storageadmin_views_login'
p254
(dp255
g6
(dp256
g8
S'src_rockstor_storageadmin_views_login.html'
p257
sg10
S'src/rockstor/storageadmin/views/login'
p258
sg12
g13
(g14
g15
NtRp259
(dp260
g18
I1
sg19
I0
sg20
I19
sg21
I0
sg22
I0
sg23
I10
sg24
I0
sbssg25
S'\xaa\x82\x89\x0f\x9c\xecAJX\x02\x7f\xd4H \xa7r'
p261
ssS'src_rockstor_storageadmin_views_appliances'
p262
(dp263
g6
(dp264
g8
S'src_rockstor_storageadmin_views_appliances.html'
p265
sg10
S'src/rockstor/storageadmin/views/appliances'
p266
sg12
g13
(g14
g15
NtRp267
(dp268
g18
I1
sg19
I0
sg20
I114
sg21
I0
sg22
I0
sg23
I90
sg24
I0
sbssg25
S'\t\xf6\x94\xad\x1dZ`v\x9a\x01m\x1e6\xacV\xbb'
p269
ssS'src_rockstor_storageadmin_views_dashboardconfig'
p270
(dp271
g6
(dp272
g8
S'src_rockstor_storageadmin_views_dashboardconfig.html'
p273
sg10
S'src/rockstor/storageadmin/views/dashboardconfig'
p274
sg12
g13
(g14
g15
NtRp275
(dp276
g18
I1
sg19
I0
sg20
I54
sg21
I0
sg22
I0
sg23
I35
sg24
I0
sbssg25
S'*\x0c\xc7l\x84t\xd59R\xb1\x0b\xe7Fsk\xd7'
p277
ssS'src_rockstor_storageadmin_views_share'
p278
(dp279
g6
(dp280
g8
S'src_rockstor_storageadmin_views_share.html'
p281
sg10
S'src/rockstor/storageadmin/views/share'
p282
sg12
g13
(g14
g15
NtRp283
(dp284
g18
I1
sg19
I0
sg20
I172
sg21
I0
sg22
I0
sg23
I140
sg24
I0
sbssg25
S'`\xdd\x9e\x96I\x1a\x01\xe6\xa6\x1c\xdb\xe5\x82\xf2\x80)'
p285
ssS'src_rockstor_storageadmin_views_samba'
p286
(dp287
g6
(dp288
g8
S'src_rockstor_storageadmin_views_samba.html'
p289
sg10
S'src/rockstor/storageadmin/views/samba'
p290
sg12
g13
(g14
g15
NtRp291
(dp292
g18
I1
sg19
I0
sg20
I153
sg21
I0
sg22
I0
sg23
I126
sg24
I0
sbssg25
S'\t\xe06@\xa2\xc3,\xe1s\xbfTL\x95q\xc4\x0f'
p293
ssS'src_rockstor_storageadmin_views_config_backup'
p294
(dp295
g6
(dp296
g8
S'src_rockstor_storageadmin_views_config_backup.html'
p297
sg10
S'src/rockstor/storageadmin/views/config_backup'
p298
sg12
g13
(g14
g15
NtRp299
(dp300
g18
I1
sg19
I0
sg20
I206
sg21
I0
sg22
I0
sg23
I163
sg24
I0
sbssg25
S"\xbaZ\x17'9(\xe2\xf8\xd4\xca\x9bp\xf3\xf7{\xc5"
p301
ssS'src_rockstor_storageadmin_views_group'
p302
(dp303
g6
(dp304
g8
S'src_rockstor_storageadmin_views_group.html'
p305
sg10
S'src/rockstor/storageadmin/views/group'
p306
sg12
g13
(g14
g15
NtRp307
(dp308
g18
I1
sg19
I0
sg20
I72
sg21
I0
sg22
I0
sg23
I50
sg24
I0
sbssg25
S'\xe1\xae\x1a,~\x8f\x94\xdcB\xb4\x06,\x0cKp\x03'
p309
ssS'src_rockstor_storageadmin_views_share_command'
p310
(dp311
g6
(dp312
g8
S'src_rockstor_storageadmin_views_share_command.html'
p313
sg10
S'src/rockstor/storageadmin/views/share_command'
p314
sg12
g13
(g14
g15
NtRp315
(dp316
g18
I1
sg19
I0
sg20
I49
sg21
I0
sg22
I0
sg23
I30
sg24
I0
sbssg25
S'\xfb{\xe8P\xc1w\xc5\x9b\xe2\xad\xf4\x0cdq\xf6q'
p317
ssS'src_rockstor_storageadmin_views_share_acl'
p318
(dp319
g6
(dp320
g8
S'src_rockstor_storageadmin_views_share_acl.html'
p321
sg10
S'src/rockstor/storageadmin/views/share_acl'
p322
sg12
g13
(g14
g15
NtRp323
(dp324
g18
I1
sg19
I0
sg20
I34
sg21
I0
sg22
I0
sg23
I22
sg24
I0
sbssg25
S'Ag\xdb\r\x7f\xe7\xa8rK,h8\xcb\xb8yQ'
p325
ssS'src_rockstor_storageadmin_views_rockon_json'
p326
(dp327
g6
(dp328
g8
S'src_rockstor_storageadmin_views_rockon_json.html'
p329
sg10
S'src/rockstor/storageadmin/views/rockon_json'
p330
sg12
g13
(g14
g15
NtRp331
(dp332
g18
I1
sg19
I0
sg20
I10
sg21
I0
sg22
I0
sg23
I10
sg24
I0
sbssg25
S'\xdb&\x14\xd7\x1cP\x82\xa2\x10\xd3TM\r\xa9TP'
p333
ssS'src_rockstor_storageadmin_views_home'
p334
(dp335
g6
(dp336
g8
S'src_rockstor_storageadmin_views_home.html'
p337
sg10
S'src/rockstor/storageadmin/views/home'
p338
sg12
g13
(g14
g15
NtRp339
(dp340
g18
I1
sg19
I0
sg20
I36
sg21
I0
sg22
I0
sg23
I24
sg24
I0
sbssg25
S'\xff\xed\xfb\x960(\x82Q\x9dp\xcd\x1a{o\x8d\x0f'
p341
sssS'version'
p342
S'3.7.1'
p343
sS'settings'
p344
S'\xcb\x06\xc4\xf9"\x005=\xfdXW:\xea\x19\x1f\xc7'
p345
sS'format'
p346
I1
s.