(dp1
S'files'
p2
(dp3
S'src_rockstor_storageadmin_views_rockon_id'
p4
(dp5
S'index'
p6
(dp7
S'html_filename'
p8
S'src_rockstor_storageadmin_views_rockon_id.html'
p9
sS'name'
p10
S'src/rockstor/storageadmin/views/rockon_id'
p11
sS'nums'
p12
ccopy_reg
_reconstructor
p13
(ccoverage.results
Numbers
p14
c__builtin__
object
p15
NtRp16
(dp17
S'n_files'
p18
I1
sS'n_branches'
p19
I0
sS'n_statements'
p20
I142
sS'n_excluded'
p21
I0
sS'n_partial_branches'
p22
I0
sS'n_missing'
p23
I125
sS'n_missing_branches'
p24
I0
sbssS'hash'
p25
S'Q*\x06\xf1;yM\xf1\x8e\x89\xe6\xed\xd31\x14{'
p26
ssS'src_rockstor_storageadmin_views___init__'
p27
(dp28
g6
(dp29
g8
S'src_rockstor_storageadmin_views___init__.html'
p30
sg10
S'src/rockstor/storageadmin/views/__init__'
p31
sg12
g13
(g14
g15
NtRp32
(dp33
g18
I1
sg19
I0
sg20
I35
sg21
I0
sg22
I0
sg23
I0
sg24
I0
sbssg25
S'{i.1~\x03F\xfd46z\xad\xefoW\xe5'
p34
ssS'src_rockstor_storageadmin_views_ug_helpers'
p35
(dp36
g6
(dp37
g8
S'src_rockstor_storageadmin_views_ug_helpers.html'
p38
sg10
S'src/rockstor/storageadmin/views/ug_helpers'
p39
sg12
g13
(g14
g15
NtRp40
(dp41
g18
I1
sg19
I0
sg20
I63
sg21
I0
sg22
I0
sg23
I31
sg24
I0
sbssg25
S'\x19B~k\xfb\xa4\xefXr!\x99\xae\\\xfd\x9bu'
p42
ssS'src_rockstor_storageadmin_views_email_client'
p43
(dp44
g6
(dp45
g8
S'src_rockstor_storageadmin_views_email_client.html'
p46
sg10
S'src/rockstor/storageadmin/views/email_client'
p47
sg12
g13
(g14
g15
NtRp48
(dp49
g18
I1
sg19
I0
sg20
I96
sg21
I0
sg22
I0
sg23
I66
sg24
I0
sbssg25
S'\xc9"\x9f\xa6\xdb\xd2\xc4\x86\t,\xab\x93\x13k~\xd9'
p50
ssS'src_rockstor_storageadmin_views_user'
p51
(dp52
g6
(dp53
g8
S'src_rockstor_storageadmin_views_user.html'
p54
sg10
S'src/rockstor/storageadmin/views/user'
p55
sg12
g13
(g14
g15
NtRp56
(dp57
g18
I1
sg19
I0
sg20
I214
sg21
I0
sg22
I0
sg23
I15
sg24
I0
sbssg25
S'\x7f\x87\xcf\xf6\x84\xd2\xdf\xfb\xb8\xcf~\xb8z[\xf0\xdb'
p58
ssS'src_rockstor_storageadmin_views_tls_certificate'
p59
(dp60
g6
(dp61
g8
S'src_rockstor_storageadmin_views_tls_certificate.html'
p62
sg10
S'src/rockstor/storageadmin/views/tls_certificate'
p63
sg12
g13
(g14
g15
NtRp64
(dp65
g18
I1
sg19
I0
sg20
I53
sg21
I0
sg22
I0
sg23
I35
sg24
I0
sbssg25
S'#\xeb[\x90\x1f\xb65\xd6\x0b\xeb}\x97\x8e\x85S\x82'
p66
ssS'src_rockstor_storageadmin_views_oauth_app'
p67
(dp68
g6
(dp69
g8
S'src_rockstor_storageadmin_views_oauth_app.html'
p70
sg10
S'src/rockstor/storageadmin/views/oauth_app'
p71
sg12
g13
(g14
g15
NtRp72
(dp73
g18
I1
sg19
I0
sg20
I51
sg21
I0
sg22
I0
sg23
I37
sg24
I0
sbssg25
S'\x8c\xa7Ff\xe9us5b\xed,2\xc7\x88{\xf7'
p74
ssS'src_rockstor_storageadmin_views_rockon_helpers'
p75
(dp76
g6
(dp77
g8
S'src_rockstor_storageadmin_views_rockon_helpers.html'
p78
sg10
S'src/rockstor/storageadmin/views/rockon_helpers'
p79
sg12
g13
(g14
g15
NtRp80
(dp81
g18
I1
sg19
I0
sg20
I195
sg21
I0
sg22
I0
sg23
I160
sg24
I0
sbssg25
S'I\xb1\xb0f\x95\xf0\x8dm\xad\xd7\xec\xe1C\xe5\x00\x9d'
p82
ssS'src_rockstor_storageadmin_views_clone_helpers'
p83
(dp84
g6
(dp85
g8
S'src_rockstor_storageadmin_views_clone_helpers.html'
p86
sg10
S'src/rockstor/storageadmin/views/clone_helpers'
p87
sg12
g13
(g14
g15
NtRp88
(dp89
g18
I1
sg19
I0
sg20
I31
sg21
I0
sg22
I0
sg23
I23
sg24
I0
sbssg25
S'\x07\x18\x1d\x01\x19s\xd9\x9f/\xe5\xe9\xb4P\x80\xd2m'
p90
ssS'src_rockstor_storageadmin_views_netatalk'
p91
(dp92
g6
(dp93
g8
S'src_rockstor_storageadmin_views_netatalk.html'
p94
sg10
S'src/rockstor/storageadmin/views/netatalk'
p95
sg12
g13
(g14
g15
NtRp96
(dp97
g18
I1
sg19
I0
sg20
I93
sg21
I0
sg22
I0
sg23
I13
sg24
I0
sbssg25
S'vH\xe2\xee\xf2$\x02`\xc5N\x84\xfa\x8f\x81\x84k'
p98
ssS'src_rockstor_storageadmin_views_rockon_json'
p99
(dp100
g6
(dp101
g8
S'src_rockstor_storageadmin_views_rockon_json.html'
p102
sg10
S'src/rockstor/storageadmin/views/rockon_json'
p103
sg12
g13
(g14
g15
NtRp104
(dp105
g18
I1
sg19
I0
sg20
I10
sg21
I0
sg22
I0
sg23
I10
sg24
I0
sbssg25
S'\xdb&\x14\xd7\x1cP\x82\xa2\x10\xd3TM\r\xa9TP'
p106
ssS'src_rockstor_storageadmin_views_support'
p107
(dp108
g6
(dp109
g8
S'src_rockstor_storageadmin_views_support.html'
p110
sg10
S'src/rockstor/storageadmin/views/support'
p111
sg12
g13
(g14
g15
NtRp112
(dp113
g18
I1
sg19
I0
sg20
I74
sg21
I0
sg22
I0
sg23
I49
sg24
I0
sbssg25
S'\xbdKJ\xfd\x10d\xf2\xd6&%\x7f!\x19w\x14\xe2'
p114
ssS'src_rockstor_storageadmin_views_views'
p115
(dp116
g6
(dp117
g8
S'src_rockstor_storageadmin_views_views.html'
p118
sg10
S'src/rockstor/storageadmin/views/views'
p119
sg12
g13
(g14
g15
NtRp120
(dp121
g18
I1
sg19
I0
sg20
I0
sg21
I0
sg22
I0
sg23
I0
sg24
I0
sbssg25
S'{\xd99q\x98)\xfekT\xb8H7M\x1c\x94\xba'
p122
ssS'src_rockstor_storageadmin_views_nfs_exports'
p123
(dp124
g6
(dp125
g8
S'src_rockstor_storageadmin_views_nfs_exports.html'
p126
sg10
S'src/rockstor/storageadmin/views/nfs_exports'
p127
sg12
g13
(g14
g15
NtRp128
(dp129
g18
I1
sg19
I0
sg20
I214
sg21
I0
sg22
I0
sg23
I4
sg24
I0
sbssg25
S'\xba\x08F\xd9\x0f\xffQ\xef\x0e\x90w\x9c&\x9bH<'
p130
ssS'src_rockstor_storageadmin_views_disk_smart'
p131
(dp132
g6
(dp133
g8
S'src_rockstor_storageadmin_views_disk_smart.html'
p134
sg10
S'src/rockstor/storageadmin/views/disk_smart'
p135
sg12
g13
(g14
g15
NtRp136
(dp137
g18
I1
sg19
I0
sg20
I86
sg21
I0
sg22
I0
sg23
I64
sg24
I0
sbssg25
S'\x9e\x82\x0f\x03)\x90|\xf1Z\xf2\x0b\xe7\xa0#\x93)'
p138
ssS'src_rockstor_storageadmin_views_setup_user'
p139
(dp140
g6
(dp141
g8
S'src_rockstor_storageadmin_views_setup_user.html'
p142
sg10
S'src/rockstor/storageadmin/views/setup_user'
p143
sg12
g13
(g14
g15
NtRp144
(dp145
g18
I1
sg19
I0
sg20
I32
sg21
I0
sg22
I0
sg23
I20
sg24
I0
sbssg25
S'\xec\x94\x84\x1a\x9aM2\xb5p\xca\xa2\x96\x95\x1cq\n'
p146
ssS'src_rockstor_storageadmin_views_share_iscsi'
p147
(dp148
g6
(dp149
g8
S'src_rockstor_storageadmin_views_share_iscsi.html'
p150
sg10
S'src/rockstor/storageadmin/views/share_iscsi'
p151
sg12
g13
(g14
g15
NtRp152
(dp153
g18
I1
sg19
I0
sg20
I58
sg21
I0
sg22
I0
sg23
I42
sg24
I0
sbssg25
S'\xa1\x18T\xa1\x93\xf1\xac\xc8-\xa5H\xac\x12 \x8aO'
p154
ssS'src_rockstor_storageadmin_views_pool_balance'
p155
(dp156
g6
(dp157
g8
S'src_rockstor_storageadmin_views_pool_balance.html'
p158
sg10
S'src/rockstor/storageadmin/views/pool_balance'
p159
sg12
g13
(g14
g15
NtRp160
(dp161
g18
I1
sg19
I0
sg20
I67
sg21
I0
sg22
I0
sg23
I47
sg24
I0
sbssg25
S'9x\xa8\xcf\x0f\xaa\xf9\xbf\x81\xed\xc1TJ\xf8\xff='
p162
ssS'src_rockstor_storageadmin_views_pool'
p163
(dp164
g6
(dp165
g8
S'src_rockstor_storageadmin_views_pool.html'
p166
sg10
S'src/rockstor/storageadmin/views/pool'
p167
sg12
g13
(g14
g15
NtRp168
(dp169
g18
I1
sg19
I0
sg20
I294
sg21
I0
sg22
I0
sg23
I32
sg24
I0
sbssg25
S'N^\xa7\xc1\xce\xc0\x92\x1d\xefP\xbf\xe7\x90\x118\x83'
p170
ssS'src_rockstor_storageadmin_views_pool_scrub'
p171
(dp172
g6
(dp173
g8
S'src_rockstor_storageadmin_views_pool_scrub.html'
p174
sg10
S'src/rockstor/storageadmin/views/pool_scrub'
p175
sg12
g13
(g14
g15
NtRp176
(dp177
g18
I1
sg19
I0
sg20
I58
sg21
I0
sg22
I0
sg23
I41
sg24
I0
sbssg25
S'\x9a\xef\xa4\x9f\x7f\xb4\xf4\xbeo\xca\x8e\xbeG\xd1N\xae'
p178
ssS'src_rockstor_storageadmin_views_rockon'
p179
(dp180
g6
(dp181
g8
S'src_rockstor_storageadmin_views_rockon.html'
p182
sg10
S'src/rockstor/storageadmin/views/rockon'
p183
sg12
g13
(g14
g15
NtRp184
(dp185
g18
I1
sg19
I0
sg20
I166
sg21
I0
sg22
I0
sg23
I145
sg24
I0
sbssg25
S'G<i\x8e\xb8p\xcf#\xec\x9f+\xf89\xc9\xb1\xf5'
p186
ssS'src_rockstor_storageadmin_views_sftp'
p187
(dp188
g6
(dp189
g8
S'src_rockstor_storageadmin_views_sftp.html'
p190
sg10
S'src/rockstor/storageadmin/views/sftp'
p191
sg12
g13
(g14
g15
NtRp192
(dp193
g18
I1
sg19
I0
sg20
I79
sg21
I0
sg22
I0
sg23
I13
sg24
I0
sbssg25
S'u\xbf\xb7\xcf\xa9\xff\x88m\xfd\xa5\xf2>\xd4\xf4\x19\xb4'
p194
ssS'src_rockstor_storageadmin_views_rockon_volume'
p195
(dp196
g6
(dp197
g8
S'src_rockstor_storageadmin_views_rockon_volume.html'
p198
sg10
S'src/rockstor/storageadmin/views/rockon_volume'
p199
sg12
g13
(g14
g15
NtRp200
(dp201
g18
I1
sg19
I0
sg20
I14
sg21
I0
sg22
I0
sg23
I7
sg24
I0
sbssg25
S'\xf9\x1eb\xf5\x1c\x14\xfbh-\xd2\x9fJ\x90=\xafH'
p202
ssS'src_rockstor_storageadmin_views_network'
p203
(dp204
g6
(dp205
g8
S'src_rockstor_storageadmin_views_network.html'
p206
sg10
S'src/rockstor/storageadmin/views/network'
p207
sg12
g13
(g14
g15
NtRp208
(dp209
g18
I1
sg19
I0
sg20
I158
sg21
I0
sg22
I0
sg23
I31
sg24
I0
sbssg25
S'\x9d\x17\xf8\xde\xd6Y\x05+\xfc\x7f\xc9[\xf5<.\x94'
p210
ssS'src_rockstor_storageadmin_views_command'
p211
(dp212
g6
(dp213
g8
S'src_rockstor_storageadmin_views_command.html'
p214
sg10
S'src/rockstor/storageadmin/views/command'
p215
sg12
g13
(g14
g15
NtRp216
(dp217
g18
I1
sg19
I0
sg20
I178
sg21
I0
sg22
I0
sg23
I152
sg24
I0
sbssg25
S'\x9e\x9dh\xcaV\xbd-\x91J\xbe\x94?\x0fqX\n'
p218
ssS'src_rockstor_storageadmin_views_disk'
p219
(dp220
g6
(dp221
g8
S'src_rockstor_storageadmin_views_disk.html'
p222
sg10
S'src/rockstor/storageadmin/views/disk'
p223
sg12
g13
(g14
g15
NtRp224
(dp225
g18
I1
sg19
I0
sg20
I170
sg21
I0
sg22
I0
sg23
I90
sg24
I0
sbssg25
S'BK\xba\xf1\xbci}\xac\xc9\x0c\xa5\xaa\xff\xddI\x86'
p226
ssS'src_rockstor_storageadmin_views_update_subscription'
p227
(dp228
g6
(dp229
g8
S'src_rockstor_storageadmin_views_update_subscription.html'
p230
sg10
S'src/rockstor/storageadmin/views/update_subscription'
p231
sg12
g13
(g14
g15
NtRp232
(dp233
g18
I1
sg19
I0
sg20
I67
sg21
I0
sg22
I0
sg23
I46
sg24
I0
sbssg25
S'\xc07\xd45M\xa6\xcd^9\x14\x1e\xfb\x92t\x14P'
p234
ssS'src_rockstor_storageadmin_views_share_helpers'
p235
(dp236
g6
(dp237
g8
S'src_rockstor_storageadmin_views_share_helpers.html'
p238
sg10
S'src/rockstor/storageadmin/views/share_helpers'
p239
sg12
g13
(g14
g15
NtRp240
(dp241
g18
I1
sg19
I0
sg20
I106
sg21
I0
sg22
I0
sg23
I86
sg24
I0
sbssg25
S' cA\x04U\xd2C\xb6W\xbf\xba\xc0\xef]\xbbl'
p242
ssS'src_rockstor_storageadmin_views_rockon_custom_config'
p243
(dp244
g6
(dp245
g8
S'src_rockstor_storageadmin_views_rockon_custom_config.html'
p246
sg10
S'src/rockstor/storageadmin/views/rockon_custom_config'
p247
sg12
g13
(g14
g15
NtRp248
(dp249
g18
I1
sg19
I0
sg20
I13
sg21
I0
sg22
I0
sg23
I6
sg24
I0
sbssg25
S'\x94V\xf46\xb3\xb9\x15\x8b*~\xddTb\xcb\xe8='
p250
ssS'src_rockstor_storageadmin_views_rockon_port'
p251
(dp252
g6
(dp253
g8
S'src_rockstor_storageadmin_views_rockon_port.html'
p254
sg10
S'src/rockstor/storageadmin/views/rockon_port'
p255
sg12
g13
(g14
g15
NtRp256
(dp257
g18
I1
sg19
I0
sg20
I14
sg21
I0
sg22
I0
sg23
I7
sg24
I0
sbssg25
S'=\xe8\x94\x1e\xce\xb5*f\xad\x8f\xba\x14\x922M\xb0'
p258
ssS'src_rockstor_storageadmin_views_login'
p259
(dp260
g6
(dp261
g8
S'src_rockstor_storageadmin_views_login.html'
p262
sg10
S'src/rockstor/storageadmin/views/login'
p263
sg12
g13
(g14
g15
NtRp264
(dp265
g18
I1
sg19
I0
sg20
I19
sg21
I0
sg22
I0
sg23
I10
sg24
I0
sbssg25
S'\xaa\x82\x89\x0f\x9c\xecAJX\x02\x7f\xd4H \xa7r'
p266
ssS'src_rockstor_storageadmin_views_appliances'
p267
(dp268
g6
(dp269
g8
S'src_rockstor_storageadmin_views_appliances.html'
p270
sg10
S'src/rockstor/storageadmin/views/appliances'
p271
sg12
g13
(g14
g15
NtRp272
(dp273
g18
I1
sg19
I0
sg20
I121
sg21
I0
sg22
I0
sg23
I96
sg24
I0
sbssg25
S'\x95\x10\xafP\xcaV\xca\x0cm\xdcu,\x9d4_\x03'
p274
ssS'src_rockstor_storageadmin_views_snapshot'
p275
(dp276
g6
(dp277
g8
S'src_rockstor_storageadmin_views_snapshot.html'
p278
sg10
S'src/rockstor/storageadmin/views/snapshot'
p279
sg12
g13
(g14
g15
NtRp280
(dp281
g18
I1
sg19
I0
sg20
I156
sg21
I0
sg22
I0
sg23
I37
sg24
I0
sbssg25
S'{\xf4\xc9\x98$\xe7\x9a\x15\xd9GQ\x02\x86\x8d\xca\xd4'
p282
ssS'src_rockstor_storageadmin_views_share'
p283
(dp284
g6
(dp285
g8
S'src_rockstor_storageadmin_views_share.html'
p286
sg10
S'src/rockstor/storageadmin/views/share'
p287
sg12
g13
(g14
g15
NtRp288
(dp289
g18
I1
sg19
I0
sg20
I172
sg21
I0
sg22
I0
sg23
I7
sg24
I0
sbssg25
S'\x9e\x9a\xf5\xe9\x19\x1cG\xef\xdb\x81\xbf\xff\xc6YD\xb2'
p290
ssS'src_rockstor_storageadmin_views_samba'
p291
(dp292
g6
(dp293
g8
S'src_rockstor_storageadmin_views_samba.html'
p294
sg10
S'src/rockstor/storageadmin/views/samba'
p295
sg12
g13
(g14
g15
NtRp296
(dp297
g18
I1
sg19
I0
sg20
I153
sg21
I0
sg22
I0
sg23
I5
sg24
I0
sbssg25
S'E\x913NM\xfb\x01\xfd\x1a\xa8i\xbc\x03\x89\x0e3'
p298
ssS'src_rockstor_storageadmin_views_config_backup'
p299
(dp300
g6
(dp301
g8
S'src_rockstor_storageadmin_views_config_backup.html'
p302
sg10
S'src/rockstor/storageadmin/views/config_backup'
p303
sg12
g13
(g14
g15
NtRp304
(dp305
g18
I1
sg19
I0
sg20
I206
sg21
I0
sg22
I0
sg23
I163
sg24
I0
sbssg25
S'\xfc\x1d`j#\x118\xb0\x02\xf8@\xff)\xfe\x17?'
p306
ssS'src_rockstor_storageadmin_views_group'
p307
(dp308
g6
(dp309
g8
S'src_rockstor_storageadmin_views_group.html'
p310
sg10
S'src/rockstor/storageadmin/views/group'
p311
sg12
g13
(g14
g15
NtRp312
(dp313
g18
I1
sg19
I0
sg20
I72
sg21
I0
sg22
I0
sg23
I50
sg24
I0
sbssg25
S'\xe1\xae\x1a,~\x8f\x94\xdcB\xb4\x06,\x0cKp\x03'
p314
ssS'src_rockstor_storageadmin_views_share_command'
p315
(dp316
g6
(dp317
g8
S'src_rockstor_storageadmin_views_share_command.html'
p318
sg10
S'src/rockstor/storageadmin/views/share_command'
p319
sg12
g13
(g14
g15
NtRp320
(dp321
g18
I1
sg19
I0
sg20
I49
sg21
I0
sg22
I0
sg23
I0
sg24
I0
sbssg25
S'\xb2)\x13\xb7*q\x1e\xc5EN\x86\xc9D\xa8~v'
p322
ssS'src_rockstor_storageadmin_views_share_acl'
p323
(dp324
g6
(dp325
g8
S'src_rockstor_storageadmin_views_share_acl.html'
p326
sg10
S'src/rockstor/storageadmin/views/share_acl'
p327
sg12
g13
(g14
g15
NtRp328
(dp329
g18
I1
sg19
I0
sg20
I34
sg21
I0
sg22
I0
sg23
I22
sg24
I0
sbssg25
S'Ag\xdb\r\x7f\xe7\xa8rK,h8\xcb\xb8yQ'
p330
ssS'src_rockstor_storageadmin_views_dashboardconfig'
p331
(dp332
g6
(dp333
g8
S'src_rockstor_storageadmin_views_dashboardconfig.html'
p334
sg10
S'src/rockstor/storageadmin/views/dashboardconfig'
p335
sg12
g13
(g14
g15
NtRp336
(dp337
g18
I1
sg19
I0
sg20
I54
sg21
I0
sg22
I0
sg23
I35
sg24
I0
sbssg25
S'*\x0c\xc7l\x84t\xd59R\xb1\x0b\xe7Fsk\xd7'
p338
ssS'src_rockstor_storageadmin_views_home'
p339
(dp340
g6
(dp341
g8
S'src_rockstor_storageadmin_views_home.html'
p342
sg10
S'src/rockstor/storageadmin/views/home'
p343
sg12
g13
(g14
g15
NtRp344
(dp345
g18
I1
sg19
I0
sg20
I36
sg21
I0
sg22
I0
sg23
I24
sg24
I0
sbssg25
S'\xff\xed\xfb\x960(\x82Q\x9dp\xcd\x1a{o\x8d\x0f'
p346
sssS'version'
p347
S'3.7.1'
p348
sS'settings'
p349
S'\xf5YV\xbb\x1d\n\x92-\x15f\xce\xe9\x11+\x8b\xc1'
p350
sS'format'
p351
I1
s.