(dp1
S'files'
p2
(dp3
S'src_rockstor_storageadmin_views_rockon_id'
p4
(dp5
S'index'
p6
(dp7
S'html_filename'
p8
S'src_rockstor_storageadmin_views_rockon_id.html'
p9
sS'name'
p10
S'src/rockstor/storageadmin/views/rockon_id'
p11
sS'nums'
p12
ccopy_reg
_reconstructor
p13
(ccoverage.results
Numbers
p14
c__builtin__
object
p15
NtRp16
(dp17
S'n_files'
p18
I1
sS'n_branches'
p19
I0
sS'n_statements'
p20
I159
sS'n_excluded'
p21
I0
sS'n_partial_branches'
p22
I0
sS'n_missing'
p23
I159
sS'n_missing_branches'
p24
I0
sbssS'hash'
p25
S'\xd6\x9b:\xcf\xd3\n\xa69\x06\xc7\xb5\x887\xfd$2'
p26
ssS'src_rockstor_storageadmin_views___init__'
p27
(dp28
g6
(dp29
g8
S'src_rockstor_storageadmin_views___init__.html'
p30
sg10
S'src/rockstor/storageadmin/views/__init__'
p31
sg12
g13
(g14
g15
NtRp32
(dp33
g18
I1
sg19
I0
sg20
I34
sg21
I0
sg22
I0
sg23
I34
sg24
I0
sbssg25
S'\xff\x16\x04K\xbd).\x99\xa8J\xd2q*;\x0f\xa0'
p34
ssS'src_rockstor_storageadmin_views_ug_helpers'
p35
(dp36
g6
(dp37
g8
S'src_rockstor_storageadmin_views_ug_helpers.html'
p38
sg10
S'src/rockstor/storageadmin/views/ug_helpers'
p39
sg12
g13
(g14
g15
NtRp40
(dp41
g18
I1
sg19
I0
sg20
I67
sg21
I0
sg22
I0
sg23
I67
sg24
I0
sbssg25
S'\xa5Js\x86\xed\x10\xb9\xc2\x9bt\xa5Dy\xb6\x7fs'
p42
ssS'src_rockstor_storageadmin_views_email_client'
p43
(dp44
g6
(dp45
g8
S'src_rockstor_storageadmin_views_email_client.html'
p46
sg10
S'src/rockstor/storageadmin/views/email_client'
p47
sg12
g13
(g14
g15
NtRp48
(dp49
g18
I1
sg19
I0
sg20
I122
sg21
I0
sg22
I0
sg23
I122
sg24
I0
sbssg25
S'\x94\xb9\x94\x13=\xbf\xe5[\xec\xb7\x81\xbd\xc9\x81\x85\x15'
p50
ssS'src_rockstor_storageadmin_views_share'
p51
(dp52
g6
(dp53
g8
S'src_rockstor_storageadmin_views_share.html'
p54
sg10
S'src/rockstor/storageadmin/views/share'
p55
sg12
g13
(g14
g15
NtRp56
(dp57
g18
I1
sg19
I0
sg20
I183
sg21
I0
sg22
I0
sg23
I183
sg24
I0
sbssg25
S'\xe3\xd0\xbfV\xc8\x10j\x9f/\xf8\x1fQ\x0c\x95\x7fq'
p58
ssS'src_rockstor_storageadmin_views_rockon_helpers'
p59
(dp60
g6
(dp61
g8
S'src_rockstor_storageadmin_views_rockon_helpers.html'
p62
sg10
S'src/rockstor/storageadmin/views/rockon_helpers'
p63
sg12
g13
(g14
g15
NtRp64
(dp65
g18
I1
sg19
I0
sg20
I189
sg21
I0
sg22
I0
sg23
I189
sg24
I0
sbssg25
S'\xe3\xbcQ\xc0\x8aZf\x1d\xbd\xac\xf7F\x901a\xbf'
p66
ssS'src_rockstor_storageadmin_views_tls_certificate'
p67
(dp68
g6
(dp69
g8
S'src_rockstor_storageadmin_views_tls_certificate.html'
p70
sg10
S'src/rockstor/storageadmin/views/tls_certificate'
p71
sg12
g13
(g14
g15
NtRp72
(dp73
g18
I1
sg19
I0
sg20
I53
sg21
I0
sg22
I0
sg23
I53
sg24
I0
sbssg25
S' \xfd$xo\xf9\x1b\xac\xc4\x00\xde\xe9*S\x87\xe9'
p74
ssS'src_rockstor_storageadmin_views_oauth_app'
p75
(dp76
g6
(dp77
g8
S'src_rockstor_storageadmin_views_oauth_app.html'
p78
sg10
S'src/rockstor/storageadmin/views/oauth_app'
p79
sg12
g13
(g14
g15
NtRp80
(dp81
g18
I1
sg19
I0
sg20
I50
sg21
I0
sg22
I0
sg23
I50
sg24
I0
sbssg25
S"\x8f\xb3\xa4\xd7M\x93>>\xea\x8e&b\x8c\x94\xe9'"
p82
ssS'src_rockstor_storageadmin_views_netatalk'
p83
(dp84
g6
(dp85
g8
S'src_rockstor_storageadmin_views_netatalk.html'
p86
sg10
S'src/rockstor/storageadmin/views/netatalk'
p87
sg12
g13
(g14
g15
NtRp88
(dp89
g18
I1
sg19
I0
sg20
I93
sg21
I0
sg22
I0
sg23
I93
sg24
I0
sbssg25
S'2\xbc\xb3\xa2\xb5\xf5\x8c\x83L\x13\x7f\xf4\x19at\xf5'
p90
ssS'src_rockstor_storageadmin_views_clone_helpers'
p91
(dp92
g6
(dp93
g8
S'src_rockstor_storageadmin_views_clone_helpers.html'
p94
sg10
S'src/rockstor/storageadmin/views/clone_helpers'
p95
sg12
g13
(g14
g15
NtRp96
(dp97
g18
I1
sg19
I0
sg20
I31
sg21
I0
sg22
I0
sg23
I31
sg24
I0
sbssg25
S'\xe7\x90\n\x11\x80\xb6I\xee\xbf\x19\xe8.\x0cPR\n'
p98
ssS'src_rockstor_storageadmin_views_share_command'
p99
(dp100
g6
(dp101
g8
S'src_rockstor_storageadmin_views_share_command.html'
p102
sg10
S'src/rockstor/storageadmin/views/share_command'
p103
sg12
g13
(g14
g15
NtRp104
(dp105
g18
I1
sg19
I0
sg20
I47
sg21
I0
sg22
I0
sg23
I47
sg24
I0
sbssg25
S'\xf4gO\x19\x18\xb1\x05%\xc7\x10\xf0Ob\x00\xd6\x17'
p106
ssS'src_rockstor_storageadmin_views_snapshot'
p107
(dp108
g6
(dp109
g8
S'src_rockstor_storageadmin_views_snapshot.html'
p110
sg10
S'src/rockstor/storageadmin/views/snapshot'
p111
sg12
g13
(g14
g15
NtRp112
(dp113
g18
I1
sg19
I0
sg20
I154
sg21
I0
sg22
I0
sg23
I154
sg24
I0
sbssg25
S'\xfd\xf4\x83\xddt\xc0[\x90q\xf6\xfc\xae\xb8D\x12\xff'
p114
ssS'src_rockstor_storageadmin_views_user'
p115
(dp116
g6
(dp117
g8
S'src_rockstor_storageadmin_views_user.html'
p118
sg10
S'src/rockstor/storageadmin/views/user'
p119
sg12
g13
(g14
g15
NtRp120
(dp121
g18
I1
sg19
I0
sg20
I227
sg21
I0
sg22
I0
sg23
I227
sg24
I0
sbssg25
S'\x95\xb7QF- %2@\xf7\x1a\xef\xc2F\x85\xb9'
p122
ssS'src_rockstor_storageadmin_views_views'
p123
(dp124
g6
(dp125
g8
S'src_rockstor_storageadmin_views_views.html'
p126
sg10
S'src/rockstor/storageadmin/views/views'
p127
sg12
g13
(g14
g15
NtRp128
(dp129
g18
I1
sg19
I0
sg20
I0
sg21
I0
sg22
I0
sg23
I0
sg24
I0
sbssg25
S'{\xd99q\x98)\xfekT\xb8H7M\x1c\x94\xba'
p130
ssS'src_rockstor_storageadmin_views_nfs_exports'
p131
(dp132
g6
(dp133
g8
S'src_rockstor_storageadmin_views_nfs_exports.html'
p134
sg10
S'src/rockstor/storageadmin/views/nfs_exports'
p135
sg12
g13
(g14
g15
NtRp136
(dp137
g18
I1
sg19
I0
sg20
I215
sg21
I0
sg22
I0
sg23
I215
sg24
I0
sbssg25
S'\x9d\xe7\xf6b\xab\x0e\xef$J#\xd5\xf8\xca\xe4\xac\xfb'
p138
ssS'src_rockstor_storageadmin_views_disk_smart'
p139
(dp140
g6
(dp141
g8
S'src_rockstor_storageadmin_views_disk_smart.html'
p142
sg10
S'src/rockstor/storageadmin/views/disk_smart'
p143
sg12
g13
(g14
g15
NtRp144
(dp145
g18
I1
sg19
I0
sg20
I83
sg21
I0
sg22
I0
sg23
I83
sg24
I0
sbssg25
S'\x84\x1a\xae\xee\xa3O\x80-\xc4*\x8dp^\xbet\x13'
p146
ssS'src_rockstor_storageadmin_views_setup_user'
p147
(dp148
g6
(dp149
g8
S'src_rockstor_storageadmin_views_setup_user.html'
p150
sg10
S'src/rockstor/storageadmin/views/setup_user'
p151
sg12
g13
(g14
g15
NtRp152
(dp153
g18
I1
sg19
I0
sg20
I32
sg21
I0
sg22
I0
sg23
I32
sg24
I0
sbssg25
S'P[/\x9dk2\x85o\xfe\xf1\xe5^Z\x89\xfe!'
p154
ssS'src_rockstor_storageadmin_views_update_subscription'
p155
(dp156
g6
(dp157
g8
S'src_rockstor_storageadmin_views_update_subscription.html'
p158
sg10
S'src/rockstor/storageadmin/views/update_subscription'
p159
sg12
g13
(g14
g15
NtRp160
(dp161
g18
I1
sg19
I0
sg20
I65
sg21
I0
sg22
I0
sg23
I65
sg24
I0
sbssg25
S'\r\xcb\x1c\x80PiF.\xc2r\x83~\xacz\x18E'
p162
ssS'src_rockstor_storageadmin_views_pool_balance'
p163
(dp164
g6
(dp165
g8
S'src_rockstor_storageadmin_views_pool_balance.html'
p166
sg10
S'src/rockstor/storageadmin/views/pool_balance'
p167
sg12
g13
(g14
g15
NtRp168
(dp169
g18
I1
sg19
I0
sg20
I70
sg21
I0
sg22
I0
sg23
I70
sg24
I0
sbssg25
S'\x89-\'^\xb9\t\xcf\x1bh\xa3"\xebS\xc2Vu'
p170
ssS'src_rockstor_storageadmin_views_pool'
p171
(dp172
g6
(dp173
g8
S'src_rockstor_storageadmin_views_pool.html'
p174
sg10
S'src/rockstor/storageadmin/views/pool'
p175
sg12
g13
(g14
g15
NtRp176
(dp177
g18
I1
sg19
I0
sg20
I315
sg21
I0
sg22
I0
sg23
I315
sg24
I0
sbssg25
S'X\x07\xf2\x95\xac}\xda8\xd7&{\xcas\rSt'
p178
ssS'src_rockstor_storageadmin_views_pool_scrub'
p179
(dp180
g6
(dp181
g8
S'src_rockstor_storageadmin_views_pool_scrub.html'
p182
sg10
S'src/rockstor/storageadmin/views/pool_scrub'
p183
sg12
g13
(g14
g15
NtRp184
(dp185
g18
I1
sg19
I0
sg20
I58
sg21
I0
sg22
I0
sg23
I58
sg24
I0
sbssg25
S'\xdf\x0b\x8f\xf5 \xf0i\x165v6\x85\xb9J\xf4\xe6'
p186
ssS'src_rockstor_storageadmin_views_rockon'
p187
(dp188
g6
(dp189
g8
S'src_rockstor_storageadmin_views_rockon.html'
p190
sg10
S'src/rockstor/storageadmin/views/rockon'
p191
sg12
g13
(g14
g15
NtRp192
(dp193
g18
I1
sg19
I0
sg20
I274
sg21
I0
sg22
I0
sg23
I274
sg24
I0
sbssg25
S'0~\\\x12\xf6\x80\x13|\x1d\x0f\xcdj\x02F\x94\xd3'
p194
ssS'src_rockstor_storageadmin_views_sftp'
p195
(dp196
g6
(dp197
g8
S'src_rockstor_storageadmin_views_sftp.html'
p198
sg10
S'src/rockstor/storageadmin/views/sftp'
p199
sg12
g13
(g14
g15
NtRp200
(dp201
g18
I1
sg19
I0
sg20
I79
sg21
I0
sg22
I0
sg23
I79
sg24
I0
sbssg25
S'\x18U\x7f\x90\xa1\xe7\x96P\xf7\x08\x08-\x19-\x86\xa8'
p202
ssS'src_rockstor_storageadmin_views_rockon_volume'
p203
(dp204
g6
(dp205
g8
S'src_rockstor_storageadmin_views_rockon_volume.html'
p206
sg10
S'src/rockstor/storageadmin/views/rockon_volume'
p207
sg12
g13
(g14
g15
NtRp208
(dp209
g18
I1
sg19
I0
sg20
I14
sg21
I0
sg22
I0
sg23
I14
sg24
I0
sbssg25
S'\xa2I\xbc[\x11\xe0\xf6\xbeb\xe7\xec\x92\x9b\x9a(>'
p210
ssS'src_rockstor_storageadmin_views_network'
p211
(dp212
g6
(dp213
g8
S'src_rockstor_storageadmin_views_network.html'
p214
sg10
S'src/rockstor/storageadmin/views/network'
p215
sg12
g13
(g14
g15
NtRp216
(dp217
g18
I1
sg19
I0
sg20
I273
sg21
I0
sg22
I0
sg23
I273
sg24
I0
sbssg25
S'\x07\x99\xba\xa1f\xb6r\xb6q6H\xf5X\xd81\xee'
p218
ssS'src_rockstor_storageadmin_views_command'
p219
(dp220
g6
(dp221
g8
S'src_rockstor_storageadmin_views_command.html'
p222
sg10
S'src/rockstor/storageadmin/views/command'
p223
sg12
g13
(g14
g15
NtRp224
(dp225
g18
I1
sg19
I0
sg20
I221
sg21
I0
sg22
I0
sg23
I221
sg24
I0
sbssg25
S'\xfa\x9dw\xd8f\xdc\xa3\x0e\x0b\x14S\x9b2\xd3\xfa\xe5'
p226
ssS'src_rockstor_storageadmin_views_disk'
p227
(dp228
g6
(dp229
g8
S'src_rockstor_storageadmin_views_disk.html'
p230
sg10
S'src/rockstor/storageadmin/views/disk'
p231
sg12
g13
(g14
g15
NtRp232
(dp233
g18
I1
sg19
I0
sg20
I469
sg21
I0
sg22
I0
sg23
I469
sg24
I0
sbssg25
S'\xb2-\xd7\xe9\xe5.\x0e^\x0cM\x87\xacW\xe0\xc6\xb0'
p234
ssS'src_rockstor_storageadmin_views_pincard'
p235
(dp236
g6
(dp237
g8
S'src_rockstor_storageadmin_views_pincard.html'
p238
sg10
S'src/rockstor/storageadmin/views/pincard'
p239
sg12
g13
(g14
g15
NtRp240
(dp241
g18
I1
sg19
I0
sg20
I22
sg21
I0
sg22
I0
sg23
I22
sg24
I0
sbssg25
S'\xea\xc0\xf1\xb9\xaf\xb0\xe3\x80\x9f\xc7\x82\xd3\xcbk\x18\x8a'
p242
ssS'src_rockstor_storageadmin_views_share_helpers'
p243
(dp244
g6
(dp245
g8
S'src_rockstor_storageadmin_views_share_helpers.html'
p246
sg10
S'src/rockstor/storageadmin/views/share_helpers'
p247
sg12
g13
(g14
g15
NtRp248
(dp249
g18
I1
sg19
I0
sg20
I107
sg21
I0
sg22
I0
sg23
I107
sg24
I0
sbssg25
S'j\xf0\xbb\t\xe8\xe3$3\xa2<\xaa\xa9\x84Z\x0fG'
p250
ssS'src_rockstor_storageadmin_views_rockon_custom_config'
p251
(dp252
g6
(dp253
g8
S'src_rockstor_storageadmin_views_rockon_custom_config.html'
p254
sg10
S'src/rockstor/storageadmin/views/rockon_custom_config'
p255
sg12
g13
(g14
g15
NtRp256
(dp257
g18
I1
sg19
I0
sg20
I13
sg21
I0
sg22
I0
sg23
I13
sg24
I0
sbssg25
S'e\x11\xad\x0cp\x9du\xf64\x8f\x8a\xc0\xfe\x82\x19\x82'
p258
ssS'src_rockstor_storageadmin_views_rockon_port'
p259
(dp260
g6
(dp261
g8
S'src_rockstor_storageadmin_views_rockon_port.html'
p262
sg10
S'src/rockstor/storageadmin/views/rockon_port'
p263
sg12
g13
(g14
g15
NtRp264
(dp265
g18
I1
sg19
I0
sg20
I14
sg21
I0
sg22
I0
sg23
I14
sg24
I0
sbssg25
S"\xd9\x80\xab6\xc5\xf6\x840\xebBi\xff\x0f~\xe3'"
p266
ssS'src_rockstor_storageadmin_views_login'
p267
(dp268
g6
(dp269
g8
S'src_rockstor_storageadmin_views_login.html'
p270
sg10
S'src/rockstor/storageadmin/views/login'
p271
sg12
g13
(g14
g15
NtRp272
(dp273
g18
I1
sg19
I0
sg20
I19
sg21
I0
sg22
I0
sg23
I19
sg24
I0
sbssg25
S'\xaa\x8c\xfd\xbb\xb73{\xae\x9f\r&:\x0fe\xd5N'
p274
ssS'src_rockstor_storageadmin_views_appliances'
p275
(dp276
g6
(dp277
g8
S'src_rockstor_storageadmin_views_appliances.html'
p278
sg10
S'src/rockstor/storageadmin/views/appliances'
p279
sg12
g13
(g14
g15
NtRp280
(dp281
g18
I1
sg19
I0
sg20
I117
sg21
I0
sg22
I0
sg23
I117
sg24
I0
sbssg25
S'o}9<2\xe8Cb\x9b\x9e\x87:\x96G\xc5\xb5'
p282
ssS'src_rockstor_storageadmin_views_rockon_utils'
p283
(dp284
g6
(dp285
g8
S'src_rockstor_storageadmin_views_rockon_utils.html'
p286
sg10
S'src/rockstor/storageadmin/views/rockon_utils'
p287
sg12
g13
(g14
g15
NtRp288
(dp289
g18
I1
sg19
I0
sg20
I25
sg21
I0
sg22
I0
sg23
I25
sg24
I0
sbssg25
S'7q\xa9\xba\xc8\xa6~f1\x11\xff\x96\xa0~U\xbe'
p290
ssS'src_rockstor_storageadmin_views_samba'
p291
(dp292
g6
(dp293
g8
S'src_rockstor_storageadmin_views_samba.html'
p294
sg10
S'src/rockstor/storageadmin/views/samba'
p295
sg12
g13
(g14
g15
NtRp296
(dp297
g18
I1
sg19
I0
sg20
I161
sg21
I0
sg22
I0
sg23
I161
sg24
I0
sbssg25
S'r)Wg\xf4!\xc19\xd6\xf6\xc8:\x11\x03\xb3\xb0'
p298
ssS'src_rockstor_storageadmin_views_config_backup'
p299
(dp300
g6
(dp301
g8
S'src_rockstor_storageadmin_views_config_backup.html'
p302
sg10
S'src/rockstor/storageadmin/views/config_backup'
p303
sg12
g13
(g14
g15
NtRp304
(dp305
g18
I1
sg19
I0
sg20
I185
sg21
I0
sg22
I0
sg23
I185
sg24
I0
sbssg25
S'd\x97\xa0\xc7\xa8mB_\x8b\xdb|\x8f\x01?\x9a\xd0'
p306
ssS'src_rockstor_storageadmin_views_group'
p307
(dp308
g6
(dp309
g8
S'src_rockstor_storageadmin_views_group.html'
p310
sg10
S'src/rockstor/storageadmin/views/group'
p311
sg12
g13
(g14
g15
NtRp312
(dp313
g18
I1
sg19
I0
sg20
I77
sg21
I0
sg22
I0
sg23
I77
sg24
I0
sbssg25
S'\xbf"px\xdeL\xb8\xd4\x1fH\x8aB\x12\xb1\x91N'
p314
ssS'src_rockstor_storageadmin_views_rockon_environment'
p315
(dp316
g6
(dp317
g8
S'src_rockstor_storageadmin_views_rockon_environment.html'
p318
sg10
S'src/rockstor/storageadmin/views/rockon_environment'
p319
sg12
g13
(g14
g15
NtRp320
(dp321
g18
I1
sg19
I0
sg20
I14
sg21
I0
sg22
I0
sg23
I14
sg24
I0
sbssg25
S'\xe2\x94\xd5\xb7\x9f\x95\x92\tx4\xb6\x81\x12m\xcb\xc2'
p322
ssS'src_rockstor_storageadmin_views_share_acl'
p323
(dp324
g6
(dp325
g8
S'src_rockstor_storageadmin_views_share_acl.html'
p326
sg10
S'src/rockstor/storageadmin/views/share_acl'
p327
sg12
g13
(g14
g15
NtRp328
(dp329
g18
I1
sg19
I0
sg20
I32
sg21
I0
sg22
I0
sg23
I32
sg24
I0
sbssg25
S'\x06\xac~\xa19\xd1\x18~\xa3\xf6\x998\x17I\xf8\xea'
p330
ssS'src_rockstor_storageadmin_views_dashboardconfig'
p331
(dp332
g6
(dp333
g8
S'src_rockstor_storageadmin_views_dashboardconfig.html'
p334
sg10
S'src/rockstor/storageadmin/views/dashboardconfig'
p335
sg12
g13
(g14
g15
NtRp336
(dp337
g18
I1
sg19
I0
sg20
I51
sg21
I0
sg22
I0
sg23
I51
sg24
I0
sbssg25
S'\xf6\xf5\xc4?\xdc\x87\xdf;>\xf0\x9830\x1f1Y'
p338
ssS'src_rockstor_storageadmin_views_rockon_discourse'
p339
(dp340
g6
(dp341
g8
S'src_rockstor_storageadmin_views_rockon_discourse.html'
p342
sg10
S'src/rockstor/storageadmin/views/rockon_discourse'
p343
sg12
g13
(g14
g15
NtRp344
(dp345
g18
I1
sg19
I0
sg20
I74
sg21
I0
sg22
I0
sg23
I74
sg24
I0
sbssg25
S'w\x95\x19\xd1d\xf8\xb3\x87{\xb7\xc5\xc4F({\xa9'
p346
ssS'src_rockstor_storageadmin_views_home'
p347
(dp348
g6
(dp349
g8
S'src_rockstor_storageadmin_views_home.html'
p350
sg10
S'src/rockstor/storageadmin/views/home'
p351
sg12
g13
(g14
g15
NtRp352
(dp353
g18
I1
sg19
I0
sg20
I39
sg21
I0
sg22
I0
sg23
I39
sg24
I0
sbssg25
S'\xde\x892\xb2\x84,K%\xd4\x080E\x03\\\xc2\x18'
p354
sssS'version'
p355
S'3.7.1'
p356
sS'settings'
p357
S'Aq\xe7\x06\x0f\xde\x86\x13\x08\xc0\\^\xd0|]\xd6'
p358
sS'format'
p359
I1
s.