(dp1
S'files'
p2
(dp3
S'src_rockstor_storageadmin_views_rockon_id'
p4
(dp5
S'index'
p6
(dp7
S'html_filename'
p8
S'src_rockstor_storageadmin_views_rockon_id.html'
p9
sS'name'
p10
S'src/rockstor/storageadmin/views/rockon_id'
p11
sS'nums'
p12
ccopy_reg
_reconstructor
p13
(ccoverage.results
Numbers
p14
c__builtin__
object
p15
NtRp16
(dp17
S'n_files'
p18
I1
sS'n_branches'
p19
I0
sS'n_statements'
p20
I150
sS'n_excluded'
p21
I0
sS'n_partial_branches'
p22
I0
sS'n_missing'
p23
I133
sS'n_missing_branches'
p24
I0
sbssS'hash'
p25
S'\xdf\xd7h:\n8\x12\xab\xd3\x1ck"\xbfHB\xc0'
p26
ssS'src_rockstor_storageadmin_views___init__'
p27
(dp28
g6
(dp29
g8
S'src_rockstor_storageadmin_views___init__.html'
p30
sg10
S'src/rockstor/storageadmin/views/__init__'
p31
sg12
g13
(g14
g15
NtRp32
(dp33
g18
I1
sg19
I0
sg20
I34
sg21
I0
sg22
I0
sg23
I0
sg24
I0
sbssg25
S'\xcc\xee\x90\xb4\xbc\xd0h\xe8"\x04\x97\xb7\xb8\xf0\xf9#'
p34
ssS'src_rockstor_storageadmin_views_ug_helpers'
p35
(dp36
g6
(dp37
g8
S'src_rockstor_storageadmin_views_ug_helpers.html'
p38
sg10
S'src/rockstor/storageadmin/views/ug_helpers'
p39
sg12
g13
(g14
g15
NtRp40
(dp41
g18
I1
sg19
I0
sg20
I63
sg21
I0
sg22
I0
sg23
I31
sg24
I0
sbssg25
S'\x19B~k\xfb\xa4\xefXr!\x99\xae\\\xfd\x9bu'
p42
ssS'src_rockstor_storageadmin_views_email_client'
p43
(dp44
g6
(dp45
g8
S'src_rockstor_storageadmin_views_email_client.html'
p46
sg10
S'src/rockstor/storageadmin/views/email_client'
p47
sg12
g13
(g14
g15
NtRp48
(dp49
g18
I1
sg19
I0
sg20
I109
sg21
I0
sg22
I0
sg23
I44
sg24
I0
sbssg25
S'\x94\x8cg\x81\xc7\x1a\x12\x7f\x82&\xa7C\xabm\xd81'
p50
ssS'src_rockstor_storageadmin_views_share'
p51
(dp52
g6
(dp53
g8
S'src_rockstor_storageadmin_views_share.html'
p54
sg10
S'src/rockstor/storageadmin/views/share'
p55
sg12
g13
(g14
g15
NtRp56
(dp57
g18
I1
sg19
I0
sg20
I175
sg21
I0
sg22
I0
sg23
I9
sg24
I0
sbssg25
S'7\xec\xca\x05\xae\xd3\x94\xa0\xbe\xec$\xf3:,T3'
p58
ssS'src_rockstor_storageadmin_views_tls_certificate'
p59
(dp60
g6
(dp61
g8
S'src_rockstor_storageadmin_views_tls_certificate.html'
p62
sg10
S'src/rockstor/storageadmin/views/tls_certificate'
p63
sg12
g13
(g14
g15
NtRp64
(dp65
g18
I1
sg19
I0
sg20
I53
sg21
I0
sg22
I0
sg23
I16
sg24
I0
sbssg25
S'\xf5\x9f\x80&\xaa\xba\xe5=\x8b\xdb\xab\x1b\x99\x84\xa9\xbe'
p66
ssS'src_rockstor_storageadmin_views_oauth_app'
p67
(dp68
g6
(dp69
g8
S'src_rockstor_storageadmin_views_oauth_app.html'
p70
sg10
S'src/rockstor/storageadmin/views/oauth_app'
p71
sg12
g13
(g14
g15
NtRp72
(dp73
g18
I1
sg19
I0
sg20
I51
sg21
I0
sg22
I0
sg23
I20
sg24
I0
sbssg25
S'I\xe7_9*\x8d\xbdI\xfd\xf1E\xfd\x98\xa7G\xa0'
p74
ssS'src_rockstor_storageadmin_views_netatalk'
p75
(dp76
g6
(dp77
g8
S'src_rockstor_storageadmin_views_netatalk.html'
p78
sg10
S'src/rockstor/storageadmin/views/netatalk'
p79
sg12
g13
(g14
g15
NtRp80
(dp81
g18
I1
sg19
I0
sg20
I93
sg21
I0
sg22
I0
sg23
I13
sg24
I0
sbssg25
S'vH\xe2\xee\xf2$\x02`\xc5N\x84\xfa\x8f\x81\x84k'
p82
ssS'src_rockstor_storageadmin_views_clone_helpers'
p83
(dp84
g6
(dp85
g8
S'src_rockstor_storageadmin_views_clone_helpers.html'
p86
sg10
S'src/rockstor/storageadmin/views/clone_helpers'
p87
sg12
g13
(g14
g15
NtRp88
(dp89
g18
I1
sg19
I0
sg20
I31
sg21
I0
sg22
I0
sg23
I23
sg24
I0
sbssg25
S'\x07\x18\x1d\x01\x19s\xd9\x9f/\xe5\xe9\xb4P\x80\xd2m'
p90
ssS'src_rockstor_storageadmin_views_rockon_json'
p91
(dp92
g6
(dp93
g8
S'src_rockstor_storageadmin_views_rockon_json.html'
p94
sg10
S'src/rockstor/storageadmin/views/rockon_json'
p95
sg12
g13
(g14
g15
NtRp96
(dp97
g18
I1
sg19
I0
sg20
I10
sg21
I0
sg22
I0
sg23
I10
sg24
I0
sbssg25
S'\xdb&\x14\xd7\x1cP\x82\xa2\x10\xd3TM\r\xa9TP'
p98
ssS'src_rockstor_storageadmin_views_snapshot'
p99
(dp100
g6
(dp101
g8
S'src_rockstor_storageadmin_views_snapshot.html'
p102
sg10
S'src/rockstor/storageadmin/views/snapshot'
p103
sg12
g13
(g14
g15
NtRp104
(dp105
g18
I1
sg19
I0
sg20
I155
sg21
I0
sg22
I0
sg23
I37
sg24
I0
sbssg25
S'O\xf5m;\xd0.\xaa\x15\x9d\xf0pI]\xb2CY'
p106
ssS'src_rockstor_storageadmin_views_user'
p107
(dp108
g6
(dp109
g8
S'src_rockstor_storageadmin_views_user.html'
p110
sg10
S'src/rockstor/storageadmin/views/user'
p111
sg12
g13
(g14
g15
NtRp112
(dp113
g18
I1
sg19
I0
sg20
I214
sg21
I0
sg22
I0
sg23
I15
sg24
I0
sbssg25
S'\x7f\x87\xcf\xf6\x84\xd2\xdf\xfb\xb8\xcf~\xb8z[\xf0\xdb'
p114
ssS'src_rockstor_storageadmin_views_views'
p115
(dp116
g6
(dp117
g8
S'src_rockstor_storageadmin_views_views.html'
p118
sg10
S'src/rockstor/storageadmin/views/views'
p119
sg12
g13
(g14
g15
NtRp120
(dp121
g18
I1
sg19
I0
sg20
I0
sg21
I0
sg22
I0
sg23
I0
sg24
I0
sbssg25
S'{\xd99q\x98)\xfekT\xb8H7M\x1c\x94\xba'
p122
ssS'src_rockstor_storageadmin_views_rockon_helpers'
p123
(dp124
g6
(dp125
g8
S'src_rockstor_storageadmin_views_rockon_helpers.html'
p126
sg10
S'src/rockstor/storageadmin/views/rockon_helpers'
p127
sg12
g13
(g14
g15
NtRp128
(dp129
g18
I1
sg19
I0
sg20
I194
sg21
I0
sg22
I0
sg23
I151
sg24
I0
sbssg25
S'9\xf8K\xd5\xc4\xc8\xc2\xb7\x95f\x85\xd2\xf0s\xf2\x9d'
p130
ssS'src_rockstor_storageadmin_views_disk_smart'
p131
(dp132
g6
(dp133
g8
S'src_rockstor_storageadmin_views_disk_smart.html'
p134
sg10
S'src/rockstor/storageadmin/views/disk_smart'
p135
sg12
g13
(g14
g15
NtRp136
(dp137
g18
I1
sg19
I0
sg20
I86
sg21
I0
sg22
I0
sg23
I46
sg24
I0
sbssg25
S'Z\xbd\xacu\x9eG|\x95\x017\xaa\r\xd1\xabL\xb1'
p138
ssS'src_rockstor_storageadmin_views_setup_user'
p139
(dp140
g6
(dp141
g8
S'src_rockstor_storageadmin_views_setup_user.html'
p142
sg10
S'src/rockstor/storageadmin/views/setup_user'
p143
sg12
g13
(g14
g15
NtRp144
(dp145
g18
I1
sg19
I0
sg20
I32
sg21
I0
sg22
I0
sg23
I20
sg24
I0
sbssg25
S'\xec\x94\x84\x1a\x9aM2\xb5p\xca\xa2\x96\x95\x1cq\n'
p146
ssS'src_rockstor_storageadmin_views_update_subscription'
p147
(dp148
g6
(dp149
S'html_filename'
p150
S'src_rockstor_storageadmin_views_update_subscription.html'
p151
sS'name'
p152
S'src/rockstor/storageadmin/views/update_subscription'
p153
sS'nums'
p154
g13
(g14
g15
NtRp155
(dp156
g18
I1
sg19
I0
sg20
I68
sg21
I0
sg22
I0
sg23
I37
sg24
I0
sbssg25
S'E\x1f\x9dD=\xc92i^f\xcc\xf4\xeet\x05\xfb'
p157
ssS'src_rockstor_storageadmin_views_pool_balance'
p158
(dp159
g6
(dp160
g8
S'src_rockstor_storageadmin_views_pool_balance.html'
p161
sg10
S'src/rockstor/storageadmin/views/pool_balance'
p162
sg12
g13
(g14
g15
NtRp163
(dp164
g18
I1
sg19
I0
sg20
I67
sg21
I0
sg22
I0
sg23
I23
sg24
I0
sbssg25
S'\x91\x9a\xb2\xb5!\x1f\x05\x8f\xd9\x11w3\x1c\x11$\xb2'
p165
ssS'src_rockstor_storageadmin_views_pool'
p166
(dp167
g6
(dp168
g8
S'src_rockstor_storageadmin_views_pool.html'
p169
sg10
S'src/rockstor/storageadmin/views/pool'
p170
sg12
g13
(g14
g15
NtRp171
(dp172
g18
I1
sg19
I0
sg20
I294
sg21
I0
sg22
I0
sg23
I36
sg24
I0
sbssg25
S'|\xf6S\xe1\x8c\xaf=\xa0\xe0\x07\x0f4!\x93(\x16'
p173
ssS'src_rockstor_storageadmin_views_pool_scrub'
p174
(dp175
g6
(dp176
g8
S'src_rockstor_storageadmin_views_pool_scrub.html'
p177
sg10
S'src/rockstor/storageadmin/views/pool_scrub'
p178
sg12
g13
(g14
g15
NtRp179
(dp180
g18
I1
sg19
I0
sg20
I58
sg21
I0
sg22
I0
sg23
I6
sg24
I0
sbssg25
S'\xc3\xb6Af\x03\x0e\xbf\xf8R\x0b\xa9\xab\xc3\x1aw\xd2'
p181
ssS'src_rockstor_storageadmin_views_rockon'
p182
(dp183
g6
(dp184
g8
S'src_rockstor_storageadmin_views_rockon.html'
p185
sg10
S'src/rockstor/storageadmin/views/rockon'
p186
sg12
g13
(g14
g15
NtRp187
(dp188
g18
I1
sg19
I0
sg20
I233
sg21
I0
sg22
I0
sg23
I205
sg24
I0
sbssg25
S'\xab\x8f.&\xfd/\x15\xdb\xfa\xe5\x1ef\xab\xe2\x9dE'
p189
ssS'src_rockstor_storageadmin_views_sftp'
p190
(dp191
g6
(dp192
g8
S'src_rockstor_storageadmin_views_sftp.html'
p193
sg10
S'src/rockstor/storageadmin/views/sftp'
p194
sg12
g13
(g14
g15
NtRp195
(dp196
g18
I1
sg19
I0
sg20
I79
sg21
I0
sg22
I0
sg23
I13
sg24
I0
sbssg25
S'u\xbf\xb7\xcf\xa9\xff\x88m\xfd\xa5\xf2>\xd4\xf4\x19\xb4'
p197
ssS'src_rockstor_storageadmin_views_rockon_volume'
p198
(dp199
g6
(dp200
g8
S'src_rockstor_storageadmin_views_rockon_volume.html'
p201
sg10
S'src/rockstor/storageadmin/views/rockon_volume'
p202
sg12
g13
(g14
g15
NtRp203
(dp204
g18
I1
sg19
I0
sg20
I14
sg21
I0
sg22
I0
sg23
I7
sg24
I0
sbssg25
S'\x83:\x8e\x86\xe0\x89\x8e-#\xaa}Hs\xf3N\x04'
p205
ssS'src_rockstor_storageadmin_views_network'
p206
(dp207
g6
(dp208
g8
S'src_rockstor_storageadmin_views_network.html'
p209
sg10
S'src/rockstor/storageadmin/views/network'
p210
sg12
g13
(g14
g15
NtRp211
(dp212
g18
I1
sg19
I0
sg20
I148
sg21
I0
sg22
I0
sg23
I29
sg24
I0
sbssg25
S'\x1b6@\xed\x82\x9f5\xcc\xc5\xc3\xeeHNl\\y'
p213
ssS'src_rockstor_storageadmin_views_command'
p214
(dp215
g6
(dp216
g8
S'src_rockstor_storageadmin_views_command.html'
p217
sg10
S'src/rockstor/storageadmin/views/command'
p218
sg12
g13
(g14
g15
NtRp219
(dp220
g18
I1
sg19
I0
sg20
I190
sg21
I0
sg22
I0
sg23
I79
sg24
I0
sbssg25
S'\xff\x0b\x9e\x1e\xea$k\xd7\xb8\xe6\x8dgB\xa0\xf8\xdd'
p221
ssS'src_rockstor_storageadmin_views_disk'
p222
(dp223
g6
(dp224
g8
S'src_rockstor_storageadmin_views_disk.html'
p225
sg10
S'src/rockstor/storageadmin/views/disk'
p226
sg12
g13
(g14
g15
NtRp227
(dp228
g18
I1
sg19
I0
sg20
I188
sg21
I0
sg22
I0
sg23
I84
sg24
I0
sbssg25
S';\x12Gz"\xc4\xd4\xc4\x0e\xd5\xa5\x1bk\xc5\xae='
p229
ssS'src_rockstor_storageadmin_views_share_helpers'
p230
(dp231
g6
(dp232
g8
S'src_rockstor_storageadmin_views_share_helpers.html'
p233
sg10
S'src/rockstor/storageadmin/views/share_helpers'
p234
sg12
g13
(g14
g15
NtRp235
(dp236
g18
I1
sg19
I0
sg20
I106
sg21
I0
sg22
I0
sg23
I86
sg24
I0
sbssg25
S'qc\xdaM\x02\x06\xea:\xe2\xb46\xa9\x0f\xb6\x0c\xdc'
p237
ssS'src_rockstor_storageadmin_views_rockon_custom_config'
p238
(dp239
g6
(dp240
g8
S'src_rockstor_storageadmin_views_rockon_custom_config.html'
p241
sg10
S'src/rockstor/storageadmin/views/rockon_custom_config'
p242
sg12
g13
(g14
g15
NtRp243
(dp244
g18
I1
sg19
I0
sg20
I13
sg21
I0
sg22
I0
sg23
I6
sg24
I0
sbssg25
S'\x89e\x0f\xa0\xdb\x8b$\x9bzVpm8r\x06\t'
p245
ssS'src_rockstor_storageadmin_views_rockon_port'
p246
(dp247
g6
(dp248
g8
S'src_rockstor_storageadmin_views_rockon_port.html'
p249
sg10
S'src/rockstor/storageadmin/views/rockon_port'
p250
sg12
g13
(g14
g15
NtRp251
(dp252
g18
I1
sg19
I0
sg20
I14
sg21
I0
sg22
I0
sg23
I7
sg24
I0
sbssg25
S'\xc8\xe4\xd9fY\x7f?\xad\xa7\xbc\x1c\r\xf1\x11\xd5c'
p253
ssS'src_rockstor_storageadmin_views_login'
p254
(dp255
g6
(dp256
g8
S'src_rockstor_storageadmin_views_login.html'
p257
sg10
S'src/rockstor/storageadmin/views/login'
p258
sg12
g13
(g14
g15
NtRp259
(dp260
g18
I1
sg19
I0
sg20
I19
sg21
I0
sg22
I0
sg23
I2
sg24
I0
sbssg25
S'w\xe0UfT\x8d\x89\xe8XlG\xed\xa4\xb9\x97,'
p261
ssS'src_rockstor_storageadmin_views_appliances'
p262
(dp263
g6
(dp264
S'html_filename'
p265
S'src_rockstor_storageadmin_views_appliances.html'
p266
sS'name'
p267
S'src/rockstor/storageadmin/views/appliances'
p268
sS'nums'
p269
g13
(g14
g15
NtRp270
(dp271
g18
I1
sg19
I0
sg20
I117
sg21
I0
sg22
I0
sg23
I44
sg24
I0
sbssg25
S'\x18x\xd6"\xf7\xda[\xf1\xe8\x1bu\x1b\x8a\x08\xa7\x1d'
p272
ssS'src_rockstor_storageadmin_views_dashboardconfig'
p273
(dp274
g6
(dp275
g8
S'src_rockstor_storageadmin_views_dashboardconfig.html'
p276
sg10
S'src/rockstor/storageadmin/views/dashboardconfig'
p277
sg12
g13
(g14
g15
NtRp278
(dp279
g18
I1
sg19
I0
sg20
I54
sg21
I0
sg22
I0
sg23
I12
sg24
I0
sbssg25
S"\xeb\xca%\xbfhE\xdc\xef\x18<\x7fP\xd7]'\xa9"
p280
ssS'src_rockstor_storageadmin_views_rockon_utils'
p281
(dp282
g6
(dp283
g8
S'src_rockstor_storageadmin_views_rockon_utils.html'
p284
sg10
S'src/rockstor/storageadmin/views/rockon_utils'
p285
sg12
g13
(g14
g15
NtRp286
(dp287
g18
I1
sg19
I0
sg20
I25
sg21
I0
sg22
I0
sg23
I20
sg24
I0
sbssg25
S"\xbd\x9b\xf2\xa2\x13\xaa\xec')\xd0&\xb4\xe3\x8d\xaa="
p288
ssS'src_rockstor_storageadmin_views_samba'
p289
(dp290
g6
(dp291
g8
S'src_rockstor_storageadmin_views_samba.html'
p292
sg10
S'src/rockstor/storageadmin/views/samba'
p293
sg12
g13
(g14
g15
NtRp294
(dp295
g18
I1
sg19
I0
sg20
I153
sg21
I0
sg22
I0
sg23
I5
sg24
I0
sbssg25
S'E\x913NM\xfb\x01\xfd\x1a\xa8i\xbc\x03\x89\x0e3'
p296
ssS'src_rockstor_storageadmin_views_config_backup'
p297
(dp298
g6
(dp299
g8
S'src_rockstor_storageadmin_views_config_backup.html'
p300
sg10
S'src/rockstor/storageadmin/views/config_backup'
p301
sg12
g13
(g14
g15
NtRp302
(dp303
g18
I1
sg19
I0
sg20
I206
sg21
I0
sg22
I0
sg23
I121
sg24
I0
sbssg25
S'\xef$@\x01\xc0\xcc\xe8]\xaa\x80?$\xc5\xc3\x0f5'
p304
ssS'src_rockstor_storageadmin_views_group'
p305
(dp306
g6
(dp307
g8
S'src_rockstor_storageadmin_views_group.html'
p308
sg10
S'src/rockstor/storageadmin/views/group'
p309
sg12
g13
(g14
g15
NtRp310
(dp311
g18
I1
sg19
I0
sg20
I72
sg21
I0
sg22
I0
sg23
I7
sg24
I0
sbssg25
S'\xf1\x1e}+]\x15.\xb4\xffm}\xef\xe8;Y\x04'
p312
ssS'src_rockstor_storageadmin_views_rockon_environment'
p313
(dp314
g6
(dp315
g8
S'src_rockstor_storageadmin_views_rockon_environment.html'
p316
sg10
S'src/rockstor/storageadmin/views/rockon_environment'
p317
sg12
g13
(g14
g15
NtRp318
(dp319
g18
I1
sg19
I0
sg20
I14
sg21
I0
sg22
I0
sg23
I7
sg24
I0
sbssg25
S'\xca\xd7\x11i\xf0\xf6\xf8/Z\x14\x8e\xaa^\x9dB\x0f'
p320
ssS'src_rockstor_storageadmin_views_share_command'
p321
(dp322
g6
(dp323
g8
S'src_rockstor_storageadmin_views_share_command.html'
p324
sg10
S'src/rockstor/storageadmin/views/share_command'
p325
sg12
g13
(g14
g15
NtRp326
(dp327
g18
I1
sg19
I0
sg20
I49
sg21
I0
sg22
I0
sg23
I0
sg24
I0
sbssg25
S'\xb2)\x13\xb7*q\x1e\xc5EN\x86\xc9D\xa8~v'
p328
ssS'src_rockstor_storageadmin_views_share_acl'
p329
(dp330
g6
(dp331
g8
S'src_rockstor_storageadmin_views_share_acl.html'
p332
sg10
S'src/rockstor/storageadmin/views/share_acl'
p333
sg12
g13
(g14
g15
NtRp334
(dp335
g18
I1
sg19
I0
sg20
I34
sg21
I0
sg22
I0
sg23
I4
sg24
I0
sbssg25
S'\xc4>\x1a\xbeq\x00Id\xf8\x17\x04V\xe5e\xed:'
p336
ssS'src_rockstor_storageadmin_views_nfs_exports'
p337
(dp338
g6
(dp339
g8
S'src_rockstor_storageadmin_views_nfs_exports.html'
p340
sg10
S'src/rockstor/storageadmin/views/nfs_exports'
p341
sg12
g13
(g14
g15
NtRp342
(dp343
g18
I1
sg19
I0
sg20
I216
sg21
I0
sg22
I0
sg23
I5
sg24
I0
sbssg25
S'\xa9\xb0:\xd6\xfb\xc4r\x84\xd5\xb1\xba\xde\xccx\xdd\x9f'
p344
ssS'src_rockstor_storageadmin_views_rockon_discourse'
p345
(dp346
g6
(dp347
g8
S'src_rockstor_storageadmin_views_rockon_discourse.html'
p348
sg10
S'src/rockstor/storageadmin/views/rockon_discourse'
p349
sg12
g13
(g14
g15
NtRp350
(dp351
g18
I1
sg19
I0
sg20
I74
sg21
I0
sg22
I0
sg23
I57
sg24
I0
sbssg25
S"\xf7\xb5\xcer\xef\xdb'b[\n\xb0R\x97\x1c\x1e\xbb"
p352
ssS'src_rockstor_storageadmin_views_home'
p353
(dp354
g6
(dp355
g8
S'src_rockstor_storageadmin_views_home.html'
p356
sg10
S'src/rockstor/storageadmin/views/home'
p357
sg12
g13
(g14
g15
NtRp358
(dp359
g18
I1
sg19
I0
sg20
I36
sg21
I0
sg22
I0
sg23
I24
sg24
I0
sbssg25
S'\x0b\x8c\xa5KzED\xa8\xda\t@\x8a\xf7\xab\x01\xd5'
p360
sssS'version'
p361
S'3.7.1'
p362
sS'settings'
p363
S'\x1bY\x01"\x1f\xb58h\xf7\xec\xe5Y\x18\xa5\x1b\xf6'
p364
sS'format'
p365
I1
s.