(dp1
S'files'
p2
(dp3
S'src_rockstor_storageadmin_views_rockon_id'
p4
(dp5
S'index'
p6
(dp7
S'html_filename'
p8
S'src_rockstor_storageadmin_views_rockon_id.html'
p9
sS'name'
p10
S'src/rockstor/storageadmin/views/rockon_id'
p11
sS'nums'
p12
ccopy_reg
_reconstructor
p13
(ccoverage.results
Numbers
p14
c__builtin__
object
p15
NtRp16
(dp17
S'n_files'
p18
I1
sS'n_branches'
p19
I0
sS'n_statements'
p20
I142
sS'n_excluded'
p21
I0
sS'n_partial_branches'
p22
I0
sS'n_missing'
p23
I142
sS'n_missing_branches'
p24
I0
sbssS'hash'
p25
S'GS\x14\x06\xcf`[\x94\xa1s\xdc\xea\x963\xe4\xd4'
p26
ssS'src_rockstor_storageadmin_views___init__'
p27
(dp28
g6
(dp29
g8
S'src_rockstor_storageadmin_views___init__.html'
p30
sg10
S'src/rockstor/storageadmin/views/__init__'
p31
sg12
g13
(g14
g15
NtRp32
(dp33
g18
I1
sg19
I0
sg20
I36
sg21
I0
sg22
I0
sg23
I36
sg24
I0
sbssg25
S'\xbbEQ\xc8!\xe7\xd9\x1c\x13\x88\xe3\x8a\xc0\xa7\xc4\x03'
p34
ssS'src_rockstor_storageadmin_views_ug_helpers'
p35
(dp36
g6
(dp37
g8
S'src_rockstor_storageadmin_views_ug_helpers.html'
p38
sg10
S'src/rockstor/storageadmin/views/ug_helpers'
p39
sg12
g13
(g14
g15
NtRp40
(dp41
g18
I1
sg19
I0
sg20
I63
sg21
I0
sg22
I0
sg23
I63
sg24
I0
sbssg25
S'\xb4\xa2C\xad-\x11\xbb\xc6k@t>\xefm, '
p42
ssS'src_rockstor_storageadmin_views_adv_nfs_exports'
p43
(dp44
g6
(dp45
g8
S'src_rockstor_storageadmin_views_adv_nfs_exports.html'
p46
sg10
S'src/rockstor/storageadmin/views/adv_nfs_exports'
p47
sg12
g13
(g14
g15
NtRp48
(dp49
g18
I1
sg19
I0
sg20
I44
sg21
I0
sg22
I0
sg23
I44
sg24
I0
sbssg25
S'3\xa64.\xe8S!3k.1\x04<\xf9\xb0\\'
p50
ssS'src_rockstor_storageadmin_views_tls_certificate'
p51
(dp52
g6
(dp53
g8
S'src_rockstor_storageadmin_views_tls_certificate.html'
p54
sg10
S'src/rockstor/storageadmin/views/tls_certificate'
p55
sg12
g13
(g14
g15
NtRp56
(dp57
g18
I1
sg19
I0
sg20
I53
sg21
I0
sg22
I0
sg23
I53
sg24
I0
sbssg25
S"?'TIc\x177\x1c\x98X0\xde\xb9\x0e\x83\xac"
p58
ssS'src_rockstor_storageadmin_views_oauth_app'
p59
(dp60
g6
(dp61
g8
S'src_rockstor_storageadmin_views_oauth_app.html'
p62
sg10
S'src/rockstor/storageadmin/views/oauth_app'
p63
sg12
g13
(g14
g15
NtRp64
(dp65
g18
I1
sg19
I0
sg20
I47
sg21
I0
sg22
I0
sg23
I47
sg24
I0
sbssg25
S'\xab\xd5\xdfi!y{>&\xe40\x16\xd6\xc4>\xb2'
p66
ssS'src_rockstor_storageadmin_views_netatalk'
p67
(dp68
g6
(dp69
g8
S'src_rockstor_storageadmin_views_netatalk.html'
p70
sg10
S'src/rockstor/storageadmin/views/netatalk'
p71
sg12
g13
(g14
g15
NtRp72
(dp73
g18
I1
sg19
I0
sg20
I94
sg21
I0
sg22
I0
sg23
I94
sg24
I0
sbssg25
S'\x93\xc5|"\x97H\xfbt\xf5\x0c\x14\xa2;\xd2\x90\x10'
p74
ssS'src_rockstor_storageadmin_views_disk'
p75
(dp76
g6
(dp77
g8
S'src_rockstor_storageadmin_views_disk.html'
p78
sg10
S'src/rockstor/storageadmin/views/disk'
p79
sg12
g13
(g14
g15
NtRp80
(dp81
g18
I1
sg19
I0
sg20
I163
sg21
I0
sg22
I0
sg23
I163
sg24
I0
sbssg25
S'"M\xba\x8e\xee\xfc\xd5.\x8a\xa0\xb9\x04\x03y\x89\xf7'
p82
ssS'src_rockstor_storageadmin_views_clone_helpers'
p83
(dp84
g6
(dp85
g8
S'src_rockstor_storageadmin_views_clone_helpers.html'
p86
sg10
S'src/rockstor/storageadmin/views/clone_helpers'
p87
sg12
g13
(g14
g15
NtRp88
(dp89
g18
I1
sg19
I0
sg20
I31
sg21
I0
sg22
I0
sg23
I31
sg24
I0
sbssg25
S'H\xf6\x04\xa3\x1e4\xbd\xb7\xd5\xcb+U\xefj\xe4\x08'
p90
ssS'src_rockstor_storageadmin_views_rockon_json'
p91
(dp92
g6
(dp93
g8
S'src_rockstor_storageadmin_views_rockon_json.html'
p94
sg10
S'src/rockstor/storageadmin/views/rockon_json'
p95
sg12
g13
(g14
g15
NtRp96
(dp97
g18
I1
sg19
I0
sg20
I10
sg21
I0
sg22
I0
sg23
I10
sg24
I0
sbssg25
S'\xdb&\x14\xd7\x1cP\x82\xa2\x10\xd3TM\r\xa9TP'
p98
ssS'src_rockstor_storageadmin_views_snapshot'
p99
(dp100
g6
(dp101
g8
S'src_rockstor_storageadmin_views_snapshot.html'
p102
sg10
S'src/rockstor/storageadmin/views/snapshot'
p103
sg12
g13
(g14
g15
NtRp104
(dp105
g18
I1
sg19
I0
sg20
I157
sg21
I0
sg22
I0
sg23
I157
sg24
I0
sbssg25
S'S\xa7\xc2\xf8\x0f\\\x02:\xfa\x1a5\xcf\xf1\x0e\x0b\xae'
p106
ssS'src_rockstor_storageadmin_views_user'
p107
(dp108
g6
(dp109
g8
S'src_rockstor_storageadmin_views_user.html'
p110
sg10
S'src/rockstor/storageadmin/views/user'
p111
sg12
g13
(g14
g15
NtRp112
(dp113
g18
I1
sg19
I0
sg20
I206
sg21
I0
sg22
I0
sg23
I206
sg24
I0
sbssg25
S"7toH_\xac\xa5\xf0w\x10\xd7.\xa0'\x1a1"
p114
ssS'src_rockstor_storageadmin_views_views'
p115
(dp116
g6
(dp117
g8
S'src_rockstor_storageadmin_views_views.html'
p118
sg10
S'src/rockstor/storageadmin/views/views'
p119
sg12
g13
(g14
g15
NtRp120
(dp121
g18
I1
sg19
I0
sg20
I0
sg21
I0
sg22
I0
sg23
I0
sg24
I0
sbssg25
S'{\xd99q\x98)\xfekT\xb8H7M\x1c\x94\xba'
p122
ssS'src_rockstor_storageadmin_views_rockon_helpers'
p123
(dp124
g6
(dp125
g8
S'src_rockstor_storageadmin_views_rockon_helpers.html'
p126
sg10
S'src/rockstor/storageadmin/views/rockon_helpers'
p127
sg12
g13
(g14
g15
NtRp128
(dp129
g18
I1
sg19
I0
sg20
I195
sg21
I0
sg22
I0
sg23
I195
sg24
I0
sbssg25
S'1\xcbb\xb8\x87\x1b\xeak\xbap\\\x0f.\x0e\x91\x12'
p130
ssS'src_rockstor_storageadmin_views_share_iscsi'
p131
(dp132
g6
(dp133
g8
S'src_rockstor_storageadmin_views_share_iscsi.html'
p134
sg10
S'src/rockstor/storageadmin/views/share_iscsi'
p135
sg12
g13
(g14
g15
NtRp136
(dp137
g18
I1
sg19
I0
sg20
I58
sg21
I0
sg22
I0
sg23
I58
sg24
I0
sbssg25
S'\x80\x1e;\xe3\x06\x87\xad\x99\xb9\x86\xbd\x00\xbc#=R'
p138
ssS'src_rockstor_storageadmin_views_setup_user'
p139
(dp140
g6
(dp141
g8
S'src_rockstor_storageadmin_views_setup_user.html'
p142
sg10
S'src/rockstor/storageadmin/views/setup_user'
p143
sg12
g13
(g14
g15
NtRp144
(dp145
g18
I1
sg19
I0
sg20
I32
sg21
I0
sg22
I0
sg23
I32
sg24
I0
sbssg25
S'P[/\x9dk2\x85o\xfe\xf1\xe5^Z\x89\xfe!'
p146
ssS'src_rockstor_storageadmin_views_pool_balance'
p147
(dp148
g6
(dp149
g8
S'src_rockstor_storageadmin_views_pool_balance.html'
p150
sg10
S'src/rockstor/storageadmin/views/pool_balance'
p151
sg12
g13
(g14
g15
NtRp152
(dp153
g18
I1
sg19
I0
sg20
I67
sg21
I0
sg22
I0
sg23
I67
sg24
I0
sbssg25
S"s`)\xad\xb4\xe6\x1a\x93\x1f\xdf\xce\r\xc0'PC"
p154
ssS'src_rockstor_storageadmin_views_rockon_volume'
p155
(dp156
g6
(dp157
g8
S'src_rockstor_storageadmin_views_rockon_volume.html'
p158
sg10
S'src/rockstor/storageadmin/views/rockon_volume'
p159
sg12
g13
(g14
g15
NtRp160
(dp161
g18
I1
sg19
I0
sg20
I14
sg21
I0
sg22
I0
sg23
I14
sg24
I0
sbssg25
S'\xe1+l\xe8\xce\xe2\xf2\xd8]\xc5\x9d6\x86C\x86Z'
p162
ssS'src_rockstor_storageadmin_views_pool_scrub'
p163
(dp164
g6
(dp165
g8
S'src_rockstor_storageadmin_views_pool_scrub.html'
p166
sg10
S'src/rockstor/storageadmin/views/pool_scrub'
p167
sg12
g13
(g14
g15
NtRp168
(dp169
g18
I1
sg19
I0
sg20
I58
sg21
I0
sg22
I0
sg23
I58
sg24
I0
sbssg25
S'@\xd0\xbc\xec\x9d\x9a\x9ev\xbe\xc0\xc7\xe3.\xbc\x94\xb5'
p170
ssS'src_rockstor_storageadmin_views_email'
p171
(dp172
g6
(dp173
g8
S'src_rockstor_storageadmin_views_email.html'
p174
sg10
S'src/rockstor/storageadmin/views/email'
p175
sg12
g13
(g14
g15
NtRp176
(dp177
g18
I1
sg19
I0
sg20
I79
sg21
I0
sg22
I0
sg23
I79
sg24
I0
sbssg25
S'\xbf\xdcO1\x8d\xc6\x16\xc83Q\xad7\x8bg\xf2\x9e'
p178
ssS'src_rockstor_storageadmin_views_rockon'
p179
(dp180
g6
(dp181
g8
S'src_rockstor_storageadmin_views_rockon.html'
p182
sg10
S'src/rockstor/storageadmin/views/rockon'
p183
sg12
g13
(g14
g15
NtRp184
(dp185
g18
I1
sg19
I0
sg20
I166
sg21
I0
sg22
I0
sg23
I166
sg24
I0
sbssg25
S'\x0b\xa1\xc94\x1e@xG\x90\xfd\x15{d\x19\xe34'
p186
ssS'src_rockstor_storageadmin_views_sftp'
p187
(dp188
g6
(dp189
g8
S'src_rockstor_storageadmin_views_sftp.html'
p190
sg10
S'src/rockstor/storageadmin/views/sftp'
p191
sg12
g13
(g14
g15
NtRp192
(dp193
g18
I1
sg19
I0
sg20
I79
sg21
I0
sg22
I0
sg23
I79
sg24
I0
sbssg25
S'\xc4\xb3\x1f\x15K\xb6k\xe8; \xa7\xb9\xdeC\xda\xc1'
p194
ssS'src_rockstor_storageadmin_views_pool'
p195
(dp196
g6
(dp197
S'html_filename'
p198
S'src_rockstor_storageadmin_views_pool.html'
p199
sS'name'
p200
S'src/rockstor/storageadmin/views/pool'
p201
sS'nums'
p202
g13
(g14
g15
NtRp203
(dp204
g18
I1
sg19
I0
sg20
I268
sg21
I0
sg22
I0
sg23
I268
sg24
I0
sbssg25
S'\xcb\xfc\xf5V&\xa1\x9eq\x7f\xae\xbe\x05%\x11\x12\xcf'
p205
ssS'src_rockstor_storageadmin_views_network'
p206
(dp207
g6
(dp208
g8
S'src_rockstor_storageadmin_views_network.html'
p209
sg10
S'src/rockstor/storageadmin/views/network'
p210
sg12
g13
(g14
g15
NtRp211
(dp212
g18
I1
sg19
I0
sg20
I122
sg21
I0
sg22
I0
sg23
I122
sg24
I0
sbssg25
S'\xe2\xd0\xf7t\x1e\xa6\xf9L\x99\x1a^\x97\xe3&\xd4$'
p213
ssS'src_rockstor_storageadmin_views_command'
p214
(dp215
g6
(dp216
S'html_filename'
p217
S'src_rockstor_storageadmin_views_command.html'
p218
sS'name'
p219
S'src/rockstor/storageadmin/views/command'
p220
sS'nums'
p221
g13
(g14
g15
NtRp222
(dp223
g18
I1
sg19
I0
sg20
I253
sg21
I0
sg22
I0
sg23
I253
sg24
I0
sbssg25
S'\x90w\x8d\xcdD@\xcf\x9f\xae\x1c\xe48\xd2\x95\x9d1'
p224
ssS'src_rockstor_storageadmin_views_support'
p225
(dp226
g6
(dp227
g8
S'src_rockstor_storageadmin_views_support.html'
p228
sg10
S'src/rockstor/storageadmin/views/support'
p229
sg12
g13
(g14
g15
NtRp230
(dp231
g18
I1
sg19
I0
sg20
I74
sg21
I0
sg22
I0
sg23
I74
sg24
I0
sbssg25
S'P\xea\xcdP\x0c\xf5\x9e\xda^\x92\xf4\xbd\xff\x03=\xef'
p232
ssS'src_rockstor_storageadmin_views_disk_smart'
p233
(dp234
g6
(dp235
g8
S'src_rockstor_storageadmin_views_disk_smart.html'
p236
sg10
S'src/rockstor/storageadmin/views/disk_smart'
p237
sg12
g13
(g14
g15
NtRp238
(dp239
g18
I1
sg19
I0
sg20
I86
sg21
I0
sg22
I0
sg23
I86
sg24
I0
sbssg25
S"(k#\x9flz'\x81\xde(D\xf1\xd9\x00H\xf0"
p240
ssS'src_rockstor_storageadmin_views_share_helpers'
p241
(dp242
g6
(dp243
g8
S'src_rockstor_storageadmin_views_share_helpers.html'
p244
sg10
S'src/rockstor/storageadmin/views/share_helpers'
p245
sg12
g13
(g14
g15
NtRp246
(dp247
g18
I1
sg19
I0
sg20
I34
sg21
I0
sg22
I0
sg23
I34
sg24
I0
sbssg25
S'\x0c\x96\x89G{z\xe2\xa8\xd3\x95\xc3m\x04R\xd3\xb0'
p248
ssS'src_rockstor_storageadmin_views_rockon_custom_config'
p249
(dp250
g6
(dp251
g8
S'src_rockstor_storageadmin_views_rockon_custom_config.html'
p252
sg10
S'src/rockstor/storageadmin/views/rockon_custom_config'
p253
sg12
g13
(g14
g15
NtRp254
(dp255
g18
I1
sg19
I0
sg20
I13
sg21
I0
sg22
I0
sg23
I13
sg24
I0
sbssg25
S"\x1f5m\x11\xca O\x06'>\x80\n\xe8\xc1\x15B"
p256
ssS'src_rockstor_storageadmin_views_share_nfs'
p257
(dp258
g6
(dp259
g8
S'src_rockstor_storageadmin_views_share_nfs.html'
p260
sg10
S'src/rockstor/storageadmin/views/share_nfs'
p261
sg12
g13
(g14
g15
NtRp262
(dp263
g18
I1
sg19
I0
sg20
I81
sg21
I0
sg22
I0
sg23
I81
sg24
I0
sbssg25
S'\xde\xb2\t2\xa4S6;\\\xcal\x00\x08PT\xc1'
p264
ssS'src_rockstor_storageadmin_views_rockon_port'
p265
(dp266
g6
(dp267
g8
S'src_rockstor_storageadmin_views_rockon_port.html'
p268
sg10
S'src/rockstor/storageadmin/views/rockon_port'
p269
sg12
g13
(g14
g15
NtRp270
(dp271
g18
I1
sg19
I0
sg20
I14
sg21
I0
sg22
I0
sg23
I14
sg24
I0
sbssg25
S'\xce\x1a\x1b\xe2\x8b\x08\xc8W~\x92\xbcD\xe8\x13\xd7h'
p272
ssS'src_rockstor_storageadmin_views_login'
p273
(dp274
g6
(dp275
g8
S'src_rockstor_storageadmin_views_login.html'
p276
sg10
S'src/rockstor/storageadmin/views/login'
p277
sg12
g13
(g14
g15
NtRp278
(dp279
g18
I1
sg19
I0
sg20
I19
sg21
I0
sg22
I0
sg23
I19
sg24
I0
sbssg25
S'\x98\x1d=q\xb7\x1cuMJ0\xfa\xb7P\xfa\x8c;'
p280
ssS'src_rockstor_storageadmin_views_appliances'
p281
(dp282
g6
(dp283
g8
S'src_rockstor_storageadmin_views_appliances.html'
p284
sg10
S'src/rockstor/storageadmin/views/appliances'
p285
sg12
g13
(g14
g15
NtRp286
(dp287
g18
I1
sg19
I0
sg20
I114
sg21
I0
sg22
I0
sg23
I114
sg24
I0
sbssg25
S'\x95\x93\xab(\x11\xdf\xf8X\xc4\x8e\xee:\x1f\xfd\x08e'
p288
ssS'src_rockstor_storageadmin_views_nfs_helpers'
p289
(dp290
g6
(dp291
S'html_filename'
p292
S'src_rockstor_storageadmin_views_nfs_helpers.html'
p293
sS'name'
p294
S'src/rockstor/storageadmin/views/nfs_helpers'
p295
sS'nums'
p296
g13
(g14
g15
NtRp297
(dp298
g18
I1
sg19
I0
sg20
I76
sg21
I0
sg22
I0
sg23
I76
sg24
I0
sbssg25
S'q\xfa\xbf\xa8~\x01\x0f\xc3Z>\x01\x18\xb2\x0c\xab\x1e'
p299
ssS'src_rockstor_storageadmin_views_share'
p300
(dp301
g6
(dp302
g8
S'src_rockstor_storageadmin_views_share.html'
p303
sg10
S'src/rockstor/storageadmin/views/share'
p304
sg12
g13
(g14
g15
NtRp305
(dp306
g18
I1
sg19
I0
sg20
I169
sg21
I0
sg22
I0
sg23
I169
sg24
I0
sbssg25
S'6u\x0cb\x9c\xa5x\xdc\xb7\x05\xa1K\xa3\xdb\xaf)'
p307
ssS'src_rockstor_storageadmin_views_samba'
p308
(dp309
g6
(dp310
g8
S'src_rockstor_storageadmin_views_samba.html'
p311
sg10
S'src/rockstor/storageadmin/views/samba'
p312
sg12
g13
(g14
g15
NtRp313
(dp314
g18
I1
sg19
I0
sg20
I146
sg21
I0
sg22
I0
sg23
I146
sg24
I0
sbssg25
S'\xd6\xde\x9e\x0e)\xff\x94\xe3\x04I\\\\(\xd6%V'
p315
ssS'src_rockstor_storageadmin_views_config_backup'
p316
(dp317
g6
(dp318
g8
S'src_rockstor_storageadmin_views_config_backup.html'
p319
sg10
S'src/rockstor/storageadmin/views/config_backup'
p320
sg12
g13
(g14
g15
NtRp321
(dp322
g18
I1
sg19
I0
sg20
I206
sg21
I0
sg22
I0
sg23
I206
sg24
I0
sbssg25
S'\x86\x02Nq\x9c\x9a\t\x14\xc8\x95\xe4N\xb8bgq'
p323
ssS'src_rockstor_storageadmin_views_group'
p324
(dp325
g6
(dp326
g8
S'src_rockstor_storageadmin_views_group.html'
p327
sg10
S'src/rockstor/storageadmin/views/group'
p328
sg12
g13
(g14
g15
NtRp329
(dp330
g18
I1
sg19
I0
sg20
I72
sg21
I0
sg22
I0
sg23
I72
sg24
I0
sbssg25
S'1*\xff\xf8[\x1b]\x8a8\x04\xf5\xb7\\SD\x11'
p331
ssS'src_rockstor_storageadmin_views_share_command'
p332
(dp333
g6
(dp334
g8
S'src_rockstor_storageadmin_views_share_command.html'
p335
sg10
S'src/rockstor/storageadmin/views/share_command'
p336
sg12
g13
(g14
g15
NtRp337
(dp338
g18
I1
sg19
I0
sg20
I49
sg21
I0
sg22
I0
sg23
I49
sg24
I0
sbssg25
S'\x1dq?\xe6\xd1.AC\xb1\xa9\x0e\x0f\xfa\xc3\xedn'
p339
ssS'src_rockstor_storageadmin_views_share_acl'
p340
(dp341
g6
(dp342
g8
S'src_rockstor_storageadmin_views_share_acl.html'
p343
sg10
S'src/rockstor/storageadmin/views/share_acl'
p344
sg12
g13
(g14
g15
NtRp345
(dp346
g18
I1
sg19
I0
sg20
I34
sg21
I0
sg22
I0
sg23
I34
sg24
I0
sbssg25
S'\xae\xba(\x9b\x80jF\xf8dn\xb6 \xafl\x04\xcc'
p347
ssS'src_rockstor_storageadmin_views_dashboardconfig'
p348
(dp349
g6
(dp350
g8
S'src_rockstor_storageadmin_views_dashboardconfig.html'
p351
sg10
S'src/rockstor/storageadmin/views/dashboardconfig'
p352
sg12
g13
(g14
g15
NtRp353
(dp354
g18
I1
sg19
I0
sg20
I54
sg21
I0
sg22
I0
sg23
I54
sg24
I0
sbssg25
S'\x9fu\t\xf5\x92\x7f9X\x06\xb6c\xc5;2:\xf0'
p355
ssS'src_rockstor_storageadmin_views_nfs_exports'
p356
(dp357
g6
(dp358
g292
S'src_rockstor_storageadmin_views_nfs_exports.html'
p359
sg294
S'src/rockstor/storageadmin/views/nfs_exports'
p360
sg296
g13
(g14
g15
NtRp361
(dp362
g18
I1
sg19
I0
sg20
I106
sg21
I0
sg22
I0
sg23
I106
sg24
I0
sbssg25
S'\x0c"\xd3sg\x9aF\xd0}\xb3_\x84\x97\xa4p\x84'
p363
ssS'src_rockstor_storageadmin_views_home'
p364
(dp365
g6
(dp366
g8
S'src_rockstor_storageadmin_views_home.html'
p367
sg10
S'src/rockstor/storageadmin/views/home'
p368
sg12
g13
(g14
g15
NtRp369
(dp370
g18
I1
sg19
I0
sg20
I36
sg21
I0
sg22
I0
sg23
I36
sg24
I0
sbssg25
S'8\xc1q.\x93\xe3Y\xcf\x15Z\xc3\xcfa\x91\xb4\x11'
p371
sssS'version'
p372
S'3.7.1'
p373
sS'settings'
p374
S':p%\x01\\ge\xf9nK\x873s\xbe\xd2\x01'
p375
sS'format'
p376
I1
s.