(dp1
S'files'
p2
(dp3
S'src_rockstor_storageadmin_views_rockon_id'
p4
(dp5
S'index'
p6
(dp7
S'html_filename'
p8
S'src_rockstor_storageadmin_views_rockon_id.html'
p9
sS'name'
p10
S'src/rockstor/storageadmin/views/rockon_id'
p11
sS'nums'
p12
ccopy_reg
_reconstructor
p13
(ccoverage.results
Numbers
p14
c__builtin__
object
p15
NtRp16
(dp17
S'n_files'
p18
I1
sS'n_branches'
p19
I0
sS'n_statements'
p20
I142
sS'n_excluded'
p21
I0
sS'n_partial_branches'
p22
I0
sS'n_missing'
p23
I125
sS'n_missing_branches'
p24
I0
sbssS'hash'
p25
S'Q*\x06\xf1;yM\xf1\x8e\x89\xe6\xed\xd31\x14{'
p26
ssS'src_rockstor_storageadmin_views___init__'
p27
(dp28
g6
(dp29
S'html_filename'
p30
S'src_rockstor_storageadmin_views___init__.html'
p31
sS'name'
p32
S'src/rockstor/storageadmin/views/__init__'
p33
sS'nums'
p34
g13
(g14
g15
NtRp35
(dp36
g18
I1
sg19
I0
sg20
I34
sg21
I0
sg22
I0
sg23
I0
sg24
I0
sbssg25
S'\xfas\x16#Tc\xc4\xffm\x17\xcah\xed\xd9\x98\xfa'
p37
ssS'src_rockstor_storageadmin_views_ug_helpers'
p38
(dp39
g6
(dp40
g8
S'src_rockstor_storageadmin_views_ug_helpers.html'
p41
sg10
S'src/rockstor/storageadmin/views/ug_helpers'
p42
sg12
g13
(g14
g15
NtRp43
(dp44
g18
I1
sg19
I0
sg20
I63
sg21
I0
sg22
I0
sg23
I57
sg24
I0
sbssg25
S'\xeb\x07m\x0c~i\xa82\x999U\x84\xa9\xb7\xab\xcb'
p45
ssS'src_rockstor_storageadmin_views_adv_nfs_exports'
p46
(dp47
g6
(dp48
g8
S'src_rockstor_storageadmin_views_adv_nfs_exports.html'
p49
sg10
S'src/rockstor/storageadmin/views/adv_nfs_exports'
p50
sg12
g13
(g14
g15
NtRp51
(dp52
g18
I1
sg19
I0
sg20
I44
sg21
I0
sg22
I0
sg23
I31
sg24
I0
sbssg25
S"\r\xb9\xa4\x8dp\x15'\xb2\x91\xa5\xa96\xe6\x92\t\xd5"
p53
ssS'src_rockstor_storageadmin_views_tls_certificate'
p54
(dp55
g6
(dp56
g8
S'src_rockstor_storageadmin_views_tls_certificate.html'
p57
sg10
S'src/rockstor/storageadmin/views/tls_certificate'
p58
sg12
g13
(g14
g15
NtRp59
(dp60
g18
I1
sg19
I0
sg20
I53
sg21
I0
sg22
I0
sg23
I35
sg24
I0
sbssg25
S'#\xeb[\x90\x1f\xb65\xd6\x0b\xeb}\x97\x8e\x85S\x82'
p61
ssS'src_rockstor_storageadmin_views_oauth_app'
p62
(dp63
g6
(dp64
g8
S'src_rockstor_storageadmin_views_oauth_app.html'
p65
sg10
S'src/rockstor/storageadmin/views/oauth_app'
p66
sg12
g13
(g14
g15
NtRp67
(dp68
g18
I1
sg19
I0
sg20
I47
sg21
I0
sg22
I0
sg23
I34
sg24
I0
sbssg25
S'[wL2V{j=$\xb6t\xc2\x80\x82)\xcf'
p69
ssS'src_rockstor_storageadmin_views_netatalk'
p70
(dp71
g6
(dp72
g8
S'src_rockstor_storageadmin_views_netatalk.html'
p73
sg10
S'src/rockstor/storageadmin/views/netatalk'
p74
sg12
g13
(g14
g15
NtRp75
(dp76
g18
I1
sg19
I0
sg20
I94
sg21
I0
sg22
I0
sg23
I69
sg24
I0
sbssg25
S'\x7f$#\xdf\x98\xb4\xdd\xe3\xe3\x13\xcf\x84\xe5j\xeb\xd8'
p77
ssS'src_rockstor_storageadmin_views_disk'
p78
(dp79
g6
(dp80
g8
S'src_rockstor_storageadmin_views_disk.html'
p81
sg10
S'src/rockstor/storageadmin/views/disk'
p82
sg12
g13
(g14
g15
NtRp83
(dp84
g18
I1
sg19
I0
sg20
I170
sg21
I0
sg22
I0
sg23
I138
sg24
I0
sbssg25
S't\xde\xa8T&\x9a~\x0c\xe7<\xbb\x10\xf3\t\x8a\xef'
p85
ssS'src_rockstor_storageadmin_views_clone_helpers'
p86
(dp87
g6
(dp88
g8
S'src_rockstor_storageadmin_views_clone_helpers.html'
p89
sg10
S'src/rockstor/storageadmin/views/clone_helpers'
p90
sg12
g13
(g14
g15
NtRp91
(dp92
g18
I1
sg19
I0
sg20
I31
sg21
I0
sg22
I0
sg23
I23
sg24
I0
sbssg25
S'\x07\x18\x1d\x01\x19s\xd9\x9f/\xe5\xe9\xb4P\x80\xd2m'
p93
ssS'src_rockstor_storageadmin_views_rockon_json'
p94
(dp95
g6
(dp96
S'html_filename'
p97
S'src_rockstor_storageadmin_views_rockon_json.html'
p98
sS'name'
p99
S'src/rockstor/storageadmin/views/rockon_json'
p100
sS'nums'
p101
g13
(g14
g15
NtRp102
(dp103
g18
I1
sg19
I0
sg20
I10
sg21
I0
sg22
I0
sg23
I10
sg24
I0
sbssg25
S'\xdb&\x14\xd7\x1cP\x82\xa2\x10\xd3TM\r\xa9TP'
p104
ssS'src_rockstor_storageadmin_views_snapshot'
p105
(dp106
g6
(dp107
g30
S'src_rockstor_storageadmin_views_snapshot.html'
p108
sg32
S'src/rockstor/storageadmin/views/snapshot'
p109
sg34
g13
(g14
g15
NtRp110
(dp111
g18
I1
sg19
I0
sg20
I157
sg21
I0
sg22
I0
sg23
I129
sg24
I0
sbssg25
S'\xfc\x1f\xd3\n\xf1,w\xa2h}\x10\xffj\x04\xb6\xc8'
p112
ssS'src_rockstor_storageadmin_views_user'
p113
(dp114
g6
(dp115
g8
S'src_rockstor_storageadmin_views_user.html'
p116
sg10
S'src/rockstor/storageadmin/views/user'
p117
sg12
g13
(g14
g15
NtRp118
(dp119
g18
I1
sg19
I0
sg20
I214
sg21
I0
sg22
I0
sg23
I186
sg24
I0
sbssg25
S'\xb9\rid\xc2%$M\xe3\x05>w\xe12\xc6\xa0'
p120
ssS'src_rockstor_storageadmin_views_views'
p121
(dp122
g6
(dp123
g97
S'src_rockstor_storageadmin_views_views.html'
p124
sg99
S'src/rockstor/storageadmin/views/views'
p125
sg101
g13
(g14
g15
NtRp126
(dp127
g18
I1
sg19
I0
sg20
I0
sg21
I0
sg22
I0
sg23
I0
sg24
I0
sbssg25
S'{\xd99q\x98)\xfekT\xb8H7M\x1c\x94\xba'
p128
ssS'src_rockstor_storageadmin_views_rockon_helpers'
p129
(dp130
g6
(dp131
g8
S'src_rockstor_storageadmin_views_rockon_helpers.html'
p132
sg10
S'src/rockstor/storageadmin/views/rockon_helpers'
p133
sg12
g13
(g14
g15
NtRp134
(dp135
g18
I1
sg19
I0
sg20
I195
sg21
I0
sg22
I0
sg23
I160
sg24
I0
sbssg25
S'I\xb1\xb0f\x95\xf0\x8dm\xad\xd7\xec\xe1C\xe5\x00\x9d'
p136
ssS'src_rockstor_storageadmin_views_share_iscsi'
p137
(dp138
g6
(dp139
g8
S'src_rockstor_storageadmin_views_share_iscsi.html'
p140
sg10
S'src/rockstor/storageadmin/views/share_iscsi'
p141
sg12
g13
(g14
g15
NtRp142
(dp143
g18
I1
sg19
I0
sg20
I58
sg21
I0
sg22
I0
sg23
I42
sg24
I0
sbssg25
S'\xa1\x18T\xa1\x93\xf1\xac\xc8-\xa5H\xac\x12 \x8aO'
p144
ssS'src_rockstor_storageadmin_views_setup_user'
p145
(dp146
g6
(dp147
g8
S'src_rockstor_storageadmin_views_setup_user.html'
p148
sg10
S'src/rockstor/storageadmin/views/setup_user'
p149
sg12
g13
(g14
g15
NtRp150
(dp151
g18
I1
sg19
I0
sg20
I32
sg21
I0
sg22
I0
sg23
I20
sg24
I0
sbssg25
S'\xec\x94\x84\x1a\x9aM2\xb5p\xca\xa2\x96\x95\x1cq\n'
p152
ssS'src_rockstor_storageadmin_views_pool_balance'
p153
(dp154
g6
(dp155
g8
S'src_rockstor_storageadmin_views_pool_balance.html'
p156
sg10
S'src/rockstor/storageadmin/views/pool_balance'
p157
sg12
g13
(g14
g15
NtRp158
(dp159
g18
I1
sg19
I0
sg20
I67
sg21
I0
sg22
I0
sg23
I47
sg24
I0
sbssg25
S'9x\xa8\xcf\x0f\xaa\xf9\xbf\x81\xed\xc1TJ\xf8\xff='
p160
ssS'src_rockstor_storageadmin_views_rockon_volume'
p161
(dp162
g6
(dp163
g8
S'src_rockstor_storageadmin_views_rockon_volume.html'
p164
sg10
S'src/rockstor/storageadmin/views/rockon_volume'
p165
sg12
g13
(g14
g15
NtRp166
(dp167
g18
I1
sg19
I0
sg20
I14
sg21
I0
sg22
I0
sg23
I7
sg24
I0
sbssg25
S'\xf9\x1eb\xf5\x1c\x14\xfbh-\xd2\x9fJ\x90=\xafH'
p168
ssS'src_rockstor_storageadmin_views_pool_scrub'
p169
(dp170
g6
(dp171
g8
S'src_rockstor_storageadmin_views_pool_scrub.html'
p172
sg10
S'src/rockstor/storageadmin/views/pool_scrub'
p173
sg12
g13
(g14
g15
NtRp174
(dp175
g18
I1
sg19
I0
sg20
I58
sg21
I0
sg22
I0
sg23
I41
sg24
I0
sbssg25
S'\x9a\xef\xa4\x9f\x7f\xb4\xf4\xbeo\xca\x8e\xbeG\xd1N\xae'
p176
ssS'src_rockstor_storageadmin_views_email'
p177
(dp178
g6
(dp179
g8
S'src_rockstor_storageadmin_views_email.html'
p180
sg10
S'src/rockstor/storageadmin/views/email'
p181
sg12
g13
(g14
g15
NtRp182
(dp183
g18
I1
sg19
I0
sg20
I79
sg21
I0
sg22
I0
sg23
I52
sg24
I0
sbssg25
S'\xc8\xf24\x98\x7f\xa1u\x86\x80\x9c\x7fg\xc2\xc8\xd7\xcb'
p184
ssS'src_rockstor_storageadmin_views_rockon'
p185
(dp186
g6
(dp187
g8
S'src_rockstor_storageadmin_views_rockon.html'
p188
sg10
S'src/rockstor/storageadmin/views/rockon'
p189
sg12
g13
(g14
g15
NtRp190
(dp191
g18
I1
sg19
I0
sg20
I166
sg21
I0
sg22
I0
sg23
I145
sg24
I0
sbssg25
S'G<i\x8e\xb8p\xcf#\xec\x9f+\xf89\xc9\xb1\xf5'
p192
ssS'src_rockstor_storageadmin_views_sftp'
p193
(dp194
g6
(dp195
g8
S'src_rockstor_storageadmin_views_sftp.html'
p196
sg10
S'src/rockstor/storageadmin/views/sftp'
p197
sg12
g13
(g14
g15
NtRp198
(dp199
g18
I1
sg19
I0
sg20
I79
sg21
I0
sg22
I0
sg23
I58
sg24
I0
sbssg25
S'\xb9\xf7gA\x0f\x0b\xa9\xe0\xf5\x89\xa2\xf0V\xde\x82\xf6'
p200
ssS'src_rockstor_storageadmin_views_pool'
p201
(dp202
g6
(dp203
g8
S'src_rockstor_storageadmin_views_pool.html'
p204
sg10
S'src/rockstor/storageadmin/views/pool'
p205
sg12
g13
(g14
g15
NtRp206
(dp207
g18
I1
sg19
I0
sg20
I289
sg21
I0
sg22
I0
sg23
I259
sg24
I0
sbssg25
S'\xb5\xbe\xa0\x96\xf6X\r\xe4\x81\xa7\x8f&\xf0\xa3\xe4\xf4'
p208
ssS'src_rockstor_storageadmin_views_network'
p209
(dp210
g6
(dp211
g8
S'src_rockstor_storageadmin_views_network.html'
p212
sg10
S'src/rockstor/storageadmin/views/network'
p213
sg12
g13
(g14
g15
NtRp214
(dp215
g18
I1
sg19
I0
sg20
I157
sg21
I0
sg22
I0
sg23
I126
sg24
I0
sbssg25
S'\xcb~\xbc\x88\x7f\xb3/\x8b\xa4.\x1e\xc1#=m:'
p216
ssS'src_rockstor_storageadmin_views_command'
p217
(dp218
g6
(dp219
g30
S'src_rockstor_storageadmin_views_command.html'
p220
sg32
S'src/rockstor/storageadmin/views/command'
p221
sg34
g13
(g14
g15
NtRp222
(dp223
g18
I1
sg19
I0
sg20
I185
sg21
I0
sg22
I0
sg23
I159
sg24
I0
sbssg25
S'\xc0\x01\xf9\x01\x17\x19\xbb\x0fk\x12\xdc+\xe8$\xc8v'
p224
ssS'src_rockstor_storageadmin_views_support'
p225
(dp226
g6
(dp227
g8
S'src_rockstor_storageadmin_views_support.html'
p228
sg10
S'src/rockstor/storageadmin/views/support'
p229
sg12
g13
(g14
g15
NtRp230
(dp231
g18
I1
sg19
I0
sg20
I74
sg21
I0
sg22
I0
sg23
I49
sg24
I0
sbssg25
S'\xbdKJ\xfd\x10d\xf2\xd6&%\x7f!\x19w\x14\xe2'
p232
ssS'src_rockstor_storageadmin_views_disk_smart'
p233
(dp234
g6
(dp235
g8
S'src_rockstor_storageadmin_views_disk_smart.html'
p236
sg10
S'src/rockstor/storageadmin/views/disk_smart'
p237
sg12
g13
(g14
g15
NtRp238
(dp239
g18
I1
sg19
I0
sg20
I86
sg21
I0
sg22
I0
sg23
I64
sg24
I0
sbssg25
S'\x9e\x82\x0f\x03)\x90|\xf1Z\xf2\x0b\xe7\xa0#\x93)'
p240
ssS'src_rockstor_storageadmin_views_share_helpers'
p241
(dp242
g6
(dp243
g30
S'src_rockstor_storageadmin_views_share_helpers.html'
p244
sg32
S'src/rockstor/storageadmin/views/share_helpers'
p245
sg34
g13
(g14
g15
NtRp246
(dp247
g18
I1
sg19
I0
sg20
I108
sg21
I0
sg22
I0
sg23
I91
sg24
I0
sbssg25
S'\xb6\x8dJt\x95*\x8a\xeb;\xf3Q%\xba9\x9c\x1a'
p248
ssS'src_rockstor_storageadmin_views_rockon_custom_config'
p249
(dp250
g6
(dp251
g8
S'src_rockstor_storageadmin_views_rockon_custom_config.html'
p252
sg10
S'src/rockstor/storageadmin/views/rockon_custom_config'
p253
sg12
g13
(g14
g15
NtRp254
(dp255
g18
I1
sg19
I0
sg20
I13
sg21
I0
sg22
I0
sg23
I6
sg24
I0
sbssg25
S'\x94V\xf46\xb3\xb9\x15\x8b*~\xddTb\xcb\xe8='
p256
ssS'src_rockstor_storageadmin_views_share_nfs'
p257
(dp258
g6
(dp259
g8
S'src_rockstor_storageadmin_views_share_nfs.html'
p260
sg10
S'src/rockstor/storageadmin/views/share_nfs'
p261
sg12
g13
(g14
g15
NtRp262
(dp263
g18
I1
sg19
I0
sg20
I81
sg21
I0
sg22
I0
sg23
I60
sg24
I0
sbssg25
S'\x8f\xea\x0e\x1e/\x07S]A\x9a\xab\xad\x1au\xf2\xfb'
p264
ssS'src_rockstor_storageadmin_views_rockon_port'
p265
(dp266
g6
(dp267
g8
S'src_rockstor_storageadmin_views_rockon_port.html'
p268
sg10
S'src/rockstor/storageadmin/views/rockon_port'
p269
sg12
g13
(g14
g15
NtRp270
(dp271
g18
I1
sg19
I0
sg20
I14
sg21
I0
sg22
I0
sg23
I7
sg24
I0
sbssg25
S'=\xe8\x94\x1e\xce\xb5*f\xad\x8f\xba\x14\x922M\xb0'
p272
ssS'src_rockstor_storageadmin_views_login'
p273
(dp274
g6
(dp275
g8
S'src_rockstor_storageadmin_views_login.html'
p276
sg10
S'src/rockstor/storageadmin/views/login'
p277
sg12
g13
(g14
g15
NtRp278
(dp279
g18
I1
sg19
I0
sg20
I19
sg21
I0
sg22
I0
sg23
I10
sg24
I0
sbssg25
S'\xaa\x82\x89\x0f\x9c\xecAJX\x02\x7f\xd4H \xa7r'
p280
ssS'src_rockstor_storageadmin_views_appliances'
p281
(dp282
g6
(dp283
g8
S'src_rockstor_storageadmin_views_appliances.html'
p284
sg10
S'src/rockstor/storageadmin/views/appliances'
p285
sg12
g13
(g14
g15
NtRp286
(dp287
g18
I1
sg19
I0
sg20
I114
sg21
I0
sg22
I0
sg23
I90
sg24
I0
sbssg25
S'\t\xf6\x94\xad\x1dZ`v\x9a\x01m\x1e6\xacV\xbb'
p288
ssS'src_rockstor_storageadmin_views_nfs_helpers'
p289
(dp290
g6
(dp291
g8
S'src_rockstor_storageadmin_views_nfs_helpers.html'
p292
sg10
S'src/rockstor/storageadmin/views/nfs_helpers'
p293
sg12
g13
(g14
g15
NtRp294
(dp295
g18
I1
sg19
I0
sg20
I76
sg21
I0
sg22
I0
sg23
I63
sg24
I0
sbssg25
S'\x99\xbb\x0b\x13(\x1f\xb6|\xd2\xc8~\xdb\xcem\xcc\x89'
p296
ssS'src_rockstor_storageadmin_views_share'
p297
(dp298
g6
(dp299
g8
S'src_rockstor_storageadmin_views_share.html'
p300
sg10
S'src/rockstor/storageadmin/views/share'
p301
sg12
g13
(g14
g15
NtRp302
(dp303
g18
I1
sg19
I0
sg20
I172
sg21
I0
sg22
I0
sg23
I140
sg24
I0
sbssg25
S'`\xdd\x9e\x96I\x1a\x01\xe6\xa6\x1c\xdb\xe5\x82\xf2\x80)'
p304
ssS'src_rockstor_storageadmin_views_samba'
p305
(dp306
g6
(dp307
g8
S'src_rockstor_storageadmin_views_samba.html'
p308
sg10
S'src/rockstor/storageadmin/views/samba'
p309
sg12
g13
(g14
g15
NtRp310
(dp311
g18
I1
sg19
I0
sg20
I146
sg21
I0
sg22
I0
sg23
I119
sg24
I0
sbssg25
S'Tt\x04w<\x08\xc7\x1f\x8fW<\x11Q1\xcdH'
p312
ssS'src_rockstor_storageadmin_views_config_backup'
p313
(dp314
g6
(dp315
g8
S'src_rockstor_storageadmin_views_config_backup.html'
p316
sg10
S'src/rockstor/storageadmin/views/config_backup'
p317
sg12
g13
(g14
g15
NtRp318
(dp319
g18
I1
sg19
I0
sg20
I206
sg21
I0
sg22
I0
sg23
I163
sg24
I0
sbssg25
S"\xbaZ\x17'9(\xe2\xf8\xd4\xca\x9bp\xf3\xf7{\xc5"
p320
ssS'src_rockstor_storageadmin_views_group'
p321
(dp322
g6
(dp323
g8
S'src_rockstor_storageadmin_views_group.html'
p324
sg10
S'src/rockstor/storageadmin/views/group'
p325
sg12
g13
(g14
g15
NtRp326
(dp327
g18
I1
sg19
I0
sg20
I72
sg21
I0
sg22
I0
sg23
I50
sg24
I0
sbssg25
S'\xe1\xae\x1a,~\x8f\x94\xdcB\xb4\x06,\x0cKp\x03'
p328
ssS'src_rockstor_storageadmin_views_share_command'
p329
(dp330
g6
(dp331
g8
S'src_rockstor_storageadmin_views_share_command.html'
p332
sg10
S'src/rockstor/storageadmin/views/share_command'
p333
sg12
g13
(g14
g15
NtRp334
(dp335
g18
I1
sg19
I0
sg20
I49
sg21
I0
sg22
I0
sg23
I30
sg24
I0
sbssg25
S'\xfb{\xe8P\xc1w\xc5\x9b\xe2\xad\xf4\x0cdq\xf6q'
p336
ssS'src_rockstor_storageadmin_views_share_acl'
p337
(dp338
g6
(dp339
g8
S'src_rockstor_storageadmin_views_share_acl.html'
p340
sg10
S'src/rockstor/storageadmin/views/share_acl'
p341
sg12
g13
(g14
g15
NtRp342
(dp343
g18
I1
sg19
I0
sg20
I34
sg21
I0
sg22
I0
sg23
I22
sg24
I0
sbssg25
S'Ag\xdb\r\x7f\xe7\xa8rK,h8\xcb\xb8yQ'
p344
ssS'src_rockstor_storageadmin_views_dashboardconfig'
p345
(dp346
g6
(dp347
g8
S'src_rockstor_storageadmin_views_dashboardconfig.html'
p348
sg10
S'src/rockstor/storageadmin/views/dashboardconfig'
p349
sg12
g13
(g14
g15
NtRp350
(dp351
g18
I1
sg19
I0
sg20
I54
sg21
I0
sg22
I0
sg23
I35
sg24
I0
sbssg25
S'*\x0c\xc7l\x84t\xd59R\xb1\x0b\xe7Fsk\xd7'
p352
ssS'src_rockstor_storageadmin_views_nfs_exports'
p353
(dp354
g6
(dp355
g30
S'src_rockstor_storageadmin_views_nfs_exports.html'
p356
sg32
S'src/rockstor/storageadmin/views/nfs_exports'
p357
sg34
g13
(g14
g15
NtRp358
(dp359
g18
I1
sg19
I0
sg20
I214
sg21
I0
sg22
I0
sg23
I7
sg24
I0
sbssg25
S']\x9c\x8d\xeb\xbf\xc0eW\xaf\xa9}~\xe7\xd1\xdf\xfe'
p360
ssS'src_rockstor_storageadmin_views_home'
p361
(dp362
g6
(dp363
g8
S'src_rockstor_storageadmin_views_home.html'
p364
sg10
S'src/rockstor/storageadmin/views/home'
p365
sg12
g13
(g14
g15
NtRp366
(dp367
g18
I1
sg19
I0
sg20
I36
sg21
I0
sg22
I0
sg23
I24
sg24
I0
sbssg25
S'\xff\xed\xfb\x960(\x82Q\x9dp\xcd\x1a{o\x8d\x0f'
p368
sssS'version'
p369
S'3.7.1'
p370
sS'settings'
p371
S'\xe1At\xd4r\xde\x87\xd4\xaet\xa3\x86\xe2\x14\xba.'
p372
sS'format'
p373
I1
s.