(dp1
S'files'
p2
(dp3
S'src_rockstor_storageadmin_views_rockon_id'
p4
(dp5
S'index'
p6
(dp7
S'html_filename'
p8
S'src_rockstor_storageadmin_views_rockon_id.html'
p9
sS'name'
p10
S'src/rockstor/storageadmin/views/rockon_id'
p11
sS'nums'
p12
ccopy_reg
_reconstructor
p13
(ccoverage.results
Numbers
p14
c__builtin__
object
p15
NtRp16
(dp17
S'n_files'
p18
I1
sS'n_branches'
p19
I0
sS'n_statements'
p20
I130
sS'n_excluded'
p21
I0
sS'n_partial_branches'
p22
I0
sS'n_missing'
p23
I115
sS'n_missing_branches'
p24
I0
sbssS'hash'
p25
S'\xc7\x1a\xef\xd6\xd2\x07=\x89\xd5\xd5\xbb\xb7\x0f\xa4\xb6\x97'
p26
ssS'src_rockstor_storageadmin_views___init__'
p27
(dp28
g6
(dp29
g8
S'src_rockstor_storageadmin_views___init__.html'
p30
sg10
S'src/rockstor/storageadmin/views/__init__'
p31
sg12
g13
(g14
g15
NtRp32
(dp33
g18
I1
sg19
I0
sg20
I36
sg21
I0
sg22
I0
sg23
I0
sg24
I0
sbssg25
S'\xfc\x13\x81\xe6\xfb\xf7\x91/\x06Q\xcd\xd8\x02N,\xba'
p34
ssS'src_rockstor_storageadmin_views_ug_helpers'
p35
(dp36
g6
(dp37
S'html_filename'
p38
S'src_rockstor_storageadmin_views_ug_helpers.html'
p39
sS'name'
p40
S'src/rockstor/storageadmin/views/ug_helpers'
p41
sS'nums'
p42
g13
(g14
g15
NtRp43
(dp44
g18
I1
sg19
I0
sg20
I61
sg21
I0
sg22
I0
sg23
I33
sg24
I0
sbssg25
S'\xf0\xb4*\x06\xfewa\xc4\xbe\xbd\x1c\xbf%k\xb5\\'
p45
ssS'src_rockstor_storageadmin_views_serializers'
p46
(dp47
g6
(dp48
g8
S'src_rockstor_storageadmin_views_serializers.html'
p49
sg10
S'src/rockstor/storageadmin/views/serializers'
p50
sg12
g13
(g14
g15
NtRp51
(dp52
g18
I1
sg19
I0
sg20
I8
sg21
I0
sg22
I0
sg23
I8
sg24
I0
sbssg25
S'B\x91_\xf9\x1d\x8bsBs\xff\xce\xc0\x83[cn'
p53
ssS'src_rockstor_storageadmin_views_plugin'
p54
(dp55
g6
(dp56
g8
S'src_rockstor_storageadmin_views_plugin.html'
p57
sg10
S'src/rockstor/storageadmin/views/plugin'
p58
sg12
g13
(g14
g15
NtRp59
(dp60
g18
I1
sg19
I0
sg20
I13
sg21
I0
sg22
I0
sg23
I1
sg24
I0
sbssg25
S'\xa8\x12\xe6\xde@G<\xff\xe96\xc1av/l*'
p61
ssS'src_rockstor_storageadmin_views_adv_nfs_exports'
p62
(dp63
g6
(dp64
g8
S'src_rockstor_storageadmin_views_adv_nfs_exports.html'
p65
sg10
S'src/rockstor/storageadmin/views/adv_nfs_exports'
p66
sg12
g13
(g14
g15
NtRp67
(dp68
g18
I1
sg19
I0
sg20
I45
sg21
I0
sg22
I0
sg23
I32
sg24
I0
sbssg25
S'7\xe6\xbc\xce\xb4\xe1\xc6\xeb\r\xfe\x9f`\xfc\xbbe\x7f'
p69
ssS'src_rockstor_storageadmin_views_tls_certificate'
p70
(dp71
g6
(dp72
g8
S'src_rockstor_storageadmin_views_tls_certificate.html'
p73
sg10
S'src/rockstor/storageadmin/views/tls_certificate'
p74
sg12
g13
(g14
g15
NtRp75
(dp76
g18
I1
sg19
I0
sg20
I53
sg21
I0
sg22
I0
sg23
I35
sg24
I0
sbssg25
S'\xa8\x16s \x96\xe9\x9b\xb5\xbd\xa9_9X\xbc\xd3C'
p77
ssS'src_rockstor_storageadmin_views_oauth_app'
p78
(dp79
g6
(dp80
g8
S'src_rockstor_storageadmin_views_oauth_app.html'
p81
sg10
S'src/rockstor/storageadmin/views/oauth_app'
p82
sg12
g13
(g14
g15
NtRp83
(dp84
g18
I1
sg19
I0
sg20
I47
sg21
I0
sg22
I0
sg23
I34
sg24
I0
sbssg25
S'\te\xa1#\x04\xe9;\xf7\x05\xaf\xea\xcc\x13*7S'
p85
ssS'src_rockstor_storageadmin_views_share_command'
p86
(dp87
g6
(dp88
S'html_filename'
p89
S'src_rockstor_storageadmin_views_share_command.html'
p90
sS'name'
p91
S'src/rockstor/storageadmin/views/share_command'
p92
sS'nums'
p93
g13
(g14
g15
NtRp94
(dp95
g18
I1
sg19
I0
sg20
I63
sg21
I0
sg22
I0
sg23
I45
sg24
I0
sbssg25
S'x\x80\xea\xf6\x94iQmo5dn\xfb\x02\xe4\x8f'
p96
ssS'src_rockstor_storageadmin_views_clone_helpers'
p97
(dp98
g6
(dp99
g8
S'src_rockstor_storageadmin_views_clone_helpers.html'
p100
sg10
S'src/rockstor/storageadmin/views/clone_helpers'
p101
sg12
g13
(g14
g15
NtRp102
(dp103
g18
I1
sg19
I0
sg20
I32
sg21
I0
sg22
I0
sg23
I24
sg24
I0
sbssg25
S'\x80\x18|U\xe2\xa5\x999\xef\xb8G\xc2\xbf\xe2\x0c\x88'
p104
ssS'src_rockstor_storageadmin_views_netatalk'
p105
(dp106
g6
(dp107
g8
S'src_rockstor_storageadmin_views_netatalk.html'
p108
sg10
S'src/rockstor/storageadmin/views/netatalk'
p109
sg12
g13
(g14
g15
NtRp110
(dp111
g18
I1
sg19
I0
sg20
I95
sg21
I0
sg22
I0
sg23
I70
sg24
I0
sbssg25
S'e\xd6\t\xa02J\xc2\xe6d\xd8\t%\xf1\xc5}\xe2'
p112
ssS'src_rockstor_storageadmin_views_snapshot'
p113
(dp114
g6
(dp115
g8
S'src_rockstor_storageadmin_views_snapshot.html'
p116
sg10
S'src/rockstor/storageadmin/views/snapshot'
p117
sg12
g13
(g14
g15
NtRp118
(dp119
g18
I1
sg19
I0
sg20
I152
sg21
I0
sg22
I0
sg23
I127
sg24
I0
sbssg25
S'\xa2t\xc4\xe7t\xce)\xeb{n\xe9\x88>\xb8G\x80'
p120
ssS'src_rockstor_storageadmin_views_pool_import'
p121
(dp122
g6
(dp123
g8
S'src_rockstor_storageadmin_views_pool_import.html'
p124
sg10
S'src/rockstor/storageadmin/views/pool_import'
p125
sg12
g13
(g14
g15
NtRp126
(dp127
g18
I1
sg19
I0
sg20
I70
sg21
I0
sg22
I0
sg23
I70
sg24
I0
sbssg25
S'\x91\xaa\x7f2\xef\xcb\xf3M\xec\xacoM%C\x12\xda'
p128
ssS'src_rockstor_storageadmin_views_user'
p129
(dp130
g6
(dp131
g38
S'src_rockstor_storageadmin_views_user.html'
p132
sg40
S'src/rockstor/storageadmin/views/user'
p133
sg42
g13
(g14
g15
NtRp134
(dp135
g18
I1
sg19
I0
sg20
I208
sg21
I0
sg22
I0
sg23
I115
sg24
I0
sbssg25
S'\x84\xef0Y\xa1#\x8e~5\xf2\xed\xe3\x155\xf4~'
p136
ssS'src_rockstor_storageadmin_views_views'
p137
(dp138
g6
(dp139
g8
S'src_rockstor_storageadmin_views_views.html'
p140
sg10
S'src/rockstor/storageadmin/views/views'
p141
sg12
g13
(g14
g15
NtRp142
(dp143
g18
I1
sg19
I0
sg20
I0
sg21
I0
sg22
I0
sg23
I0
sg24
I0
sbssg25
S'{\xd99q\x98)\xfekT\xb8H7M\x1c\x94\xba'
p144
ssS'src_rockstor_storageadmin_views_rockon_helpers'
p145
(dp146
g6
(dp147
g8
S'src_rockstor_storageadmin_views_rockon_helpers.html'
p148
sg10
S'src/rockstor/storageadmin/views/rockon_helpers'
p149
sg12
g13
(g14
g15
NtRp150
(dp151
g18
I1
sg19
I0
sg20
I121
sg21
I0
sg22
I0
sg23
I103
sg24
I0
sbssg25
S'\xd4\x04Vr\rG\xf9\x1e\xf3I\x01E4k\xda_'
p152
ssS'src_rockstor_storageadmin_views_disk_smart'
p153
(dp154
g6
(dp155
g8
S'src_rockstor_storageadmin_views_disk_smart.html'
p156
sg10
S'src/rockstor/storageadmin/views/disk_smart'
p157
sg12
g13
(g14
g15
NtRp158
(dp159
g18
I1
sg19
I0
sg20
I78
sg21
I0
sg22
I0
sg23
I56
sg24
I0
sbssg25
S'j\xf6]\xd4\xd3\x1d\xd6\xf4f\xd2\x047\x02Oq\x82'
p160
ssS'src_rockstor_storageadmin_views_share_iscsi'
p161
(dp162
g6
(dp163
g8
S'src_rockstor_storageadmin_views_share_iscsi.html'
p164
sg10
S'src/rockstor/storageadmin/views/share_iscsi'
p165
sg12
g13
(g14
g15
NtRp166
(dp167
g18
I1
sg19
I0
sg20
I59
sg21
I0
sg22
I0
sg23
I43
sg24
I0
sbssg25
S'0\x04\xd3SN\x0c\xa6\x96\xadx^\xa1\xaa\xd8 \x0b'
p168
ssS'src_rockstor_storageadmin_views_setup_user'
p169
(dp170
g6
(dp171
g8
S'src_rockstor_storageadmin_views_setup_user.html'
p172
sg10
S'src/rockstor/storageadmin/views/setup_user'
p173
sg12
g13
(g14
g15
NtRp174
(dp175
g18
I1
sg19
I0
sg20
I32
sg21
I0
sg22
I0
sg23
I20
sg24
I0
sbssg25
S'\xec\x94\x84\x1a\x9aM2\xb5p\xca\xa2\x96\x95\x1cq\n'
p176
ssS'src_rockstor_storageadmin_views_pool_balance'
p177
(dp178
g6
(dp179
g8
S'src_rockstor_storageadmin_views_pool_balance.html'
p180
sg10
S'src/rockstor/storageadmin/views/pool_balance'
p181
sg12
g13
(g14
g15
NtRp182
(dp183
g18
I1
sg19
I0
sg20
I56
sg21
I0
sg22
I0
sg23
I39
sg24
I0
sbssg25
S'\x07\x17\x19.?\x9aP=[\xe8\xad\x88\x8a\xc7\xfeB'
p184
ssS'src_rockstor_storageadmin_views_pool'
p185
(dp186
g6
(dp187
g38
S'src_rockstor_storageadmin_views_pool.html'
p188
sg40
S'src/rockstor/storageadmin/views/pool'
p189
sg42
g13
(g14
g15
NtRp190
(dp191
g18
I1
sg19
I0
sg20
I279
sg21
I0
sg22
I0
sg23
I44
sg24
I0
sbssg25
S'\xca\xf33\xf0\xab\xd08=\xdd\xe8\xffG\x08\xcf\x02X'
p192
ssS'src_rockstor_storageadmin_views_pool_scrub'
p193
(dp194
g6
(dp195
g8
S'src_rockstor_storageadmin_views_pool_scrub.html'
p196
sg10
S'src/rockstor/storageadmin/views/pool_scrub'
p197
sg12
g13
(g14
g15
NtRp198
(dp199
g18
I1
sg19
I0
sg20
I60
sg21
I0
sg22
I0
sg23
I43
sg24
I0
sbssg25
S'\xfe\xf2\x8c\xe6Q\x0f\x9b\xdd\x00dX|\x003\x87w'
p200
ssS'src_rockstor_storageadmin_views_rockon'
p201
(dp202
g6
(dp203
g8
S'src_rockstor_storageadmin_views_rockon.html'
p204
sg10
S'src/rockstor/storageadmin/views/rockon'
p205
sg12
g13
(g14
g15
NtRp206
(dp207
g18
I1
sg19
I0
sg20
I107
sg21
I0
sg22
I0
sg23
I89
sg24
I0
sbssg25
S'\x161@{\\oB\xc2\xf6\xb7\xa80\xe6\xe4\xcf+'
p208
ssS'src_rockstor_storageadmin_views_sftp'
p209
(dp210
g6
(dp211
g8
S'src_rockstor_storageadmin_views_sftp.html'
p212
sg10
S'src/rockstor/storageadmin/views/sftp'
p213
sg12
g13
(g14
g15
NtRp214
(dp215
g18
I1
sg19
I0
sg20
I79
sg21
I0
sg22
I0
sg23
I58
sg24
I0
sbssg25
S'\xb9\xf7gA\x0f\x0b\xa9\xe0\xf5\x89\xa2\xf0V\xde\x82\xf6'
p216
ssS'src_rockstor_storageadmin_views_rockon_volume'
p217
(dp218
g6
(dp219
g8
S'src_rockstor_storageadmin_views_rockon_volume.html'
p220
sg10
S'src/rockstor/storageadmin/views/rockon_volume'
p221
sg12
g13
(g14
g15
NtRp222
(dp223
g18
I1
sg19
I0
sg20
I14
sg21
I0
sg22
I0
sg23
I7
sg24
I0
sbssg25
S"b\x81\xfc:\xc84|\xeb1\x9bHb'R\xe8K"
p224
ssS'src_rockstor_storageadmin_views_network'
p225
(dp226
g6
(dp227
g38
S'src_rockstor_storageadmin_views_network.html'
p228
sg40
S'src/rockstor/storageadmin/views/network'
p229
sg42
g13
(g14
g15
NtRp230
(dp231
g18
I1
sg19
I0
sg20
I122
sg21
I0
sg22
I0
sg23
I94
sg24
I0
sbssg25
S'\x15Z\x11"O7Tn\xd4\x95c6\xd2\xac\xef\xd6'
p232
ssS'src_rockstor_storageadmin_views_command'
p233
(dp234
g6
(dp235
g8
S'src_rockstor_storageadmin_views_command.html'
p236
sg10
S'src/rockstor/storageadmin/views/command'
p237
sg12
g13
(g14
g15
NtRp238
(dp239
g18
I1
sg19
I0
sg20
I185
sg21
I0
sg22
I0
sg23
I160
sg24
I0
sbssg25
S'\xd7\x82J\x92\xec\x81\xe8;\xf7\xda\xf9\x987\xffZh'
p240
ssS'src_rockstor_storageadmin_views_support'
p241
(dp242
g6
(dp243
g8
S'src_rockstor_storageadmin_views_support.html'
p244
sg10
S'src/rockstor/storageadmin/views/support'
p245
sg12
g13
(g14
g15
NtRp246
(dp247
g18
I1
sg19
I0
sg20
I74
sg21
I0
sg22
I0
sg23
I49
sg24
I0
sbssg25
S'\xbdKJ\xfd\x10d\xf2\xd6&%\x7f!\x19w\x14\xe2'
p248
ssS'src_rockstor_storageadmin_views_disk'
p249
(dp250
g6
(dp251
g38
S'src_rockstor_storageadmin_views_disk.html'
p252
sg40
S'src/rockstor/storageadmin/views/disk'
p253
sg42
g13
(g14
g15
NtRp254
(dp255
g18
I1
sg19
I0
sg20
I147
sg21
I0
sg22
I0
sg23
I72
sg24
I0
sbssg25
S'\x14\x90I\xd7\xc9h[\x96\x18^\xaa(\xaf\xac\xfb}'
p256
ssS'src_rockstor_storageadmin_views_share_helpers'
p257
(dp258
g6
(dp259
g38
S'src_rockstor_storageadmin_views_share_helpers.html'
p260
sg40
S'src/rockstor/storageadmin/views/share_helpers'
p261
sg42
g13
(g14
g15
NtRp262
(dp263
g18
I1
sg19
I0
sg20
I35
sg21
I0
sg22
I0
sg23
I20
sg24
I0
sbssg25
S'\x18J\xf0\x1a\xf8#c\xf7\x04\x92\xa7\xb0\xe8\x9a\x01S'
p264
ssS'src_rockstor_storageadmin_views_rockon_custom_config'
p265
(dp266
g6
(dp267
g8
S'src_rockstor_storageadmin_views_rockon_custom_config.html'
p268
sg10
S'src/rockstor/storageadmin/views/rockon_custom_config'
p269
sg12
g13
(g14
g15
NtRp270
(dp271
g18
I1
sg19
I0
sg20
I13
sg21
I0
sg22
I0
sg23
I6
sg24
I0
sbssg25
S'r\xd7n\x99\x11GR\xa3\x19v\xd9\x16\xcf\xb1V\xe6'
p272
ssS'src_rockstor_storageadmin_views_installed_plugin'
p273
(dp274
g6
(dp275
g8
S'src_rockstor_storageadmin_views_installed_plugin.html'
p276
sg10
S'src/rockstor/storageadmin/views/installed_plugin'
p277
sg12
g13
(g14
g15
NtRp278
(dp279
g18
I1
sg19
I0
sg20
I26
sg21
I0
sg22
I0
sg23
I12
sg24
I0
sbssg25
S'\x1f\xbe\xf7\xf2Bv\x8e\x0b}\x1b\xde\x1d\xb1\xa0P\x94'
p280
ssS'src_rockstor_storageadmin_views_share_nfs'
p281
(dp282
g6
(dp283
g8
S'src_rockstor_storageadmin_views_share_nfs.html'
p284
sg10
S'src/rockstor/storageadmin/views/share_nfs'
p285
sg12
g13
(g14
g15
NtRp286
(dp287
g18
I1
sg19
I0
sg20
I81
sg21
I0
sg22
I0
sg23
I61
sg24
I0
sbssg25
S'\x00|\x02fu\x1a\xcbr\xf3\xaco}\xfa\xe5\xc0\xb5'
p288
ssS'src_rockstor_storageadmin_views_rockon_port'
p289
(dp290
g6
(dp291
g8
S'src_rockstor_storageadmin_views_rockon_port.html'
p292
sg10
S'src/rockstor/storageadmin/views/rockon_port'
p293
sg12
g13
(g14
g15
NtRp294
(dp295
g18
I1
sg19
I0
sg20
I14
sg21
I0
sg22
I0
sg23
I7
sg24
I0
sbssg25
S'\xda\xe3\x0f@\xd0sN\x8au\xb5\x9a\x15=\xee(R'
p296
ssS'src_rockstor_storageadmin_views_login'
p297
(dp298
g6
(dp299
g8
S'src_rockstor_storageadmin_views_login.html'
p300
sg10
S'src/rockstor/storageadmin/views/login'
p301
sg12
g13
(g14
g15
NtRp302
(dp303
g18
I1
sg19
I0
sg20
I19
sg21
I0
sg22
I0
sg23
I10
sg24
I0
sbssg25
S'\xaa\x82\x89\x0f\x9c\xecAJX\x02\x7f\xd4H \xa7r'
p304
ssS'src_rockstor_storageadmin_views_appliances'
p305
(dp306
g6
(dp307
g8
S'src_rockstor_storageadmin_views_appliances.html'
p308
sg10
S'src/rockstor/storageadmin/views/appliances'
p309
sg12
g13
(g14
g15
NtRp310
(dp311
g18
I1
sg19
I0
sg20
I114
sg21
I0
sg22
I0
sg23
I90
sg24
I0
sbssg25
S'\t\xf6\x94\xad\x1dZ`v\x9a\x01m\x1e6\xacV\xbb'
p312
ssS'src_rockstor_storageadmin_views_nfs_helpers'
p313
(dp314
g6
(dp315
g8
S'src_rockstor_storageadmin_views_nfs_helpers.html'
p316
sg10
S'src/rockstor/storageadmin/views/nfs_helpers'
p317
sg12
g13
(g14
g15
NtRp318
(dp319
g18
I1
sg19
I0
sg20
I87
sg21
I0
sg22
I0
sg23
I73
sg24
I0
sbssg25
S'\x9c\xa3\x89Z\x91R\xb8u\xeb\x17\\\xce[\xbamR'
p320
ssS'src_rockstor_storageadmin_views_share'
p321
(dp322
g6
(dp323
S'html_filename'
p324
S'src_rockstor_storageadmin_views_share.html'
p325
sS'name'
p326
S'src/rockstor/storageadmin/views/share'
p327
sS'nums'
p328
g13
(g14
g15
NtRp329
(dp330
g18
I1
sg19
I0
sg20
I150
sg21
I0
sg22
I0
sg23
I17
sg24
I0
sbssg25
S'\xe2`Q\xa4\x7f\xd9=\x9d2#\xd7\\\xe1\x99=\x91'
p331
ssS'src_rockstor_storageadmin_views_samba'
p332
(dp333
g6
(dp334
g38
S'src_rockstor_storageadmin_views_samba.html'
p335
sg40
S'src/rockstor/storageadmin/views/samba'
p336
sg42
g13
(g14
g15
NtRp337
(dp338
g18
I1
sg19
I0
sg20
I154
sg21
I0
sg22
I0
sg23
I91
sg24
I0
sbssg25
S'x\t\xb3\xdb\xb7\xccB\xc7:m\x80\x13\xf4"[\x1c'
p339
ssS'src_rockstor_storageadmin_views_group'
p340
(dp341
g6
(dp342
g38
S'src_rockstor_storageadmin_views_group.html'
p343
sg40
S'src/rockstor/storageadmin/views/group'
p344
sg42
g13
(g14
g15
NtRp345
(dp346
g18
I1
sg19
I0
sg20
I71
sg21
I0
sg22
I0
sg23
I24
sg24
I0
sbssg25
S'`\x98\n#\x8d\x0b_\xfd\x99]Egi\xb2\x83\xb3'
p347
ssS'src_rockstor_storageadmin_views_share_acl'
p348
(dp349
g6
(dp350
g8
S'src_rockstor_storageadmin_views_share_acl.html'
p351
sg10
S'src/rockstor/storageadmin/views/share_acl'
p352
sg12
g13
(g14
g15
NtRp353
(dp354
g18
I1
sg19
I0
sg20
I35
sg21
I0
sg22
I0
sg23
I23
sg24
I0
sbssg25
S'\xaa\xa4I\xa2\xfd!W\xc4\xc9\xdfc\x9cRX4\x89'
p355
ssS'src_rockstor_storageadmin_views_dashboardconfig'
p356
(dp357
g6
(dp358
g8
S'src_rockstor_storageadmin_views_dashboardconfig.html'
p359
sg10
S'src/rockstor/storageadmin/views/dashboardconfig'
p360
sg12
g13
(g14
g15
NtRp361
(dp362
g18
I1
sg19
I0
sg20
I54
sg21
I0
sg22
I0
sg23
I35
sg24
I0
sbssg25
S'*\x0c\xc7l\x84t\xd59R\xb1\x0b\xe7Fsk\xd7'
p363
ssS'src_rockstor_storageadmin_views_nfs_exports'
p364
(dp365
g6
(dp366
g8
S'src_rockstor_storageadmin_views_nfs_exports.html'
p367
sg10
S'src/rockstor/storageadmin/views/nfs_exports'
p368
sg12
g13
(g14
g15
NtRp369
(dp370
g18
I1
sg19
I0
sg20
I108
sg21
I0
sg22
I0
sg23
I87
sg24
I0
sbssg25
S'\xa5\x04\x8e\x19\xc1\xd7\xfc\x18\x85\xcf\xae\xea\x15\xcc8}'
p371
ssS'src_rockstor_storageadmin_views_home'
p372
(dp373
g6
(dp374
g8
S'src_rockstor_storageadmin_views_home.html'
p375
sg10
S'src/rockstor/storageadmin/views/home'
p376
sg12
g13
(g14
g15
NtRp377
(dp378
g18
I1
sg19
I0
sg20
I37
sg21
I0
sg22
I0
sg23
I24
sg24
I0
sbssg25
S'oy\x89\x93\xae\xdd\xefTuZM\x7f\xcc\x11y\xe4'
p379
sssS'version'
p380
S'3.7.1'
p381
sS'settings'
p382
S'7J`\x1e\x88\xff\x15\xc7h\x066\x98{#f\xef'
p383
sS'format'
p384
I1
s.