(dp1
S'files'
p2
(dp3
S'src_rockstor_storageadmin_views_rockon_id'
p4
(dp5
S'index'
p6
(dp7
S'html_filename'
p8
S'src_rockstor_storageadmin_views_rockon_id.html'
p9
sS'name'
p10
S'src/rockstor/storageadmin/views/rockon_id'
p11
sS'nums'
p12
ccopy_reg
_reconstructor
p13
(ccoverage.results
Numbers
p14
c__builtin__
object
p15
NtRp16
(dp17
S'n_files'
p18
I1
sS'n_branches'
p19
I0
sS'n_statements'
p20
I148
sS'n_excluded'
p21
I0
sS'n_partial_branches'
p22
I0
sS'n_missing'
p23
I131
sS'n_missing_branches'
p24
I0
sbssS'hash'
p25
S"@\xab'\x8cbGt\x101\x06U\xe6z\xebJ_"
p26
ssS'src_rockstor_storageadmin_views___init__'
p27
(dp28
g6
(dp29
g8
S'src_rockstor_storageadmin_views___init__.html'
p30
sg10
S'src/rockstor/storageadmin/views/__init__'
p31
sg12
g13
(g14
g15
NtRp32
(dp33
g18
I1
sg19
I0
sg20
I36
sg21
I0
sg22
I0
sg23
I0
sg24
I0
sbssg25
S'\xfc\x13\x81\xe6\xfb\xf7\x91/\x06Q\xcd\xd8\x02N,\xba'
p34
ssS'src_rockstor_storageadmin_views_ug_helpers'
p35
(dp36
g6
(dp37
S'html_filename'
p38
S'src_rockstor_storageadmin_views_ug_helpers.html'
p39
sS'name'
p40
S'src/rockstor/storageadmin/views/ug_helpers'
p41
sS'nums'
p42
g13
(g14
g15
NtRp43
(dp44
g18
I1
sg19
I0
sg20
I61
sg21
I0
sg22
I0
sg23
I33
sg24
I0
sbssg25
S'E\x9f{\x89\x1f%\xe2\xd1_!vq\xec\xd7F='
p45
ssS'src_rockstor_storageadmin_views_plugin'
p46
(dp47
g6
(dp48
g8
S'src_rockstor_storageadmin_views_plugin.html'
p49
sg10
S'src/rockstor/storageadmin/views/plugin'
p50
sg12
g13
(g14
g15
NtRp51
(dp52
g18
I1
sg19
I0
sg20
I13
sg21
I0
sg22
I0
sg23
I1
sg24
I0
sbssg25
S'\xa8\x12\xe6\xde@G<\xff\xe96\xc1av/l*'
p53
ssS'src_rockstor_storageadmin_views_adv_nfs_exports'
p54
(dp55
g6
(dp56
g8
S'src_rockstor_storageadmin_views_adv_nfs_exports.html'
p57
sg10
S'src/rockstor/storageadmin/views/adv_nfs_exports'
p58
sg12
g13
(g14
g15
NtRp59
(dp60
g18
I1
sg19
I0
sg20
I45
sg21
I0
sg22
I0
sg23
I32
sg24
I0
sbssg25
S'7\xe6\xbc\xce\xb4\xe1\xc6\xeb\r\xfe\x9f`\xfc\xbbe\x7f'
p61
ssS'src_rockstor_storageadmin_views_tls_certificate'
p62
(dp63
g6
(dp64
g8
S'src_rockstor_storageadmin_views_tls_certificate.html'
p65
sg10
S'src/rockstor/storageadmin/views/tls_certificate'
p66
sg12
g13
(g14
g15
NtRp67
(dp68
g18
I1
sg19
I0
sg20
I53
sg21
I0
sg22
I0
sg23
I35
sg24
I0
sbssg25
S'\xa8\x16s \x96\xe9\x9b\xb5\xbd\xa9_9X\xbc\xd3C'
p69
ssS'src_rockstor_storageadmin_views_oauth_app'
p70
(dp71
g6
(dp72
g8
S'src_rockstor_storageadmin_views_oauth_app.html'
p73
sg10
S'src/rockstor/storageadmin/views/oauth_app'
p74
sg12
g13
(g14
g15
NtRp75
(dp76
g18
I1
sg19
I0
sg20
I47
sg21
I0
sg22
I0
sg23
I34
sg24
I0
sbssg25
S'\te\xa1#\x04\xe9;\xf7\x05\xaf\xea\xcc\x13*7S'
p77
ssS'src_rockstor_storageadmin_views_netatalk'
p78
(dp79
g6
(dp80
g8
S'src_rockstor_storageadmin_views_netatalk.html'
p81
sg10
S'src/rockstor/storageadmin/views/netatalk'
p82
sg12
g13
(g14
g15
NtRp83
(dp84
g18
I1
sg19
I0
sg20
I95
sg21
I0
sg22
I0
sg23
I70
sg24
I0
sbssg25
S'e\xd6\t\xa02J\xc2\xe6d\xd8\t%\xf1\xc5}\xe2'
p85
ssS'src_rockstor_storageadmin_views_clone_helpers'
p86
(dp87
g6
(dp88
g8
S'src_rockstor_storageadmin_views_clone_helpers.html'
p89
sg10
S'src/rockstor/storageadmin/views/clone_helpers'
p90
sg12
g13
(g14
g15
NtRp91
(dp92
g18
I1
sg19
I0
sg20
I32
sg21
I0
sg22
I0
sg23
I24
sg24
I0
sbssg25
S'\x80\x18|U\xe2\xa5\x999\xef\xb8G\xc2\xbf\xe2\x0c\x88'
p93
ssS'src_rockstor_storageadmin_views_share_command'
p94
(dp95
g6
(dp96
g8
S'src_rockstor_storageadmin_views_share_command.html'
p97
sg10
S'src/rockstor/storageadmin/views/share_command'
p98
sg12
g13
(g14
g15
NtRp99
(dp100
g18
I1
sg19
I0
sg20
I50
sg21
I0
sg22
I0
sg23
I0
sg24
I0
sbssg25
S'\x19;\xce\xa0x\xcc\xa6\x9cm\x8c\x0c\x0bh\x15\xed/'
p101
ssS'src_rockstor_storageadmin_views_snapshot'
p102
(dp103
g6
(dp104
g8
S'src_rockstor_storageadmin_views_snapshot.html'
p105
sg10
S'src/rockstor/storageadmin/views/snapshot'
p106
sg12
g13
(g14
g15
NtRp107
(dp108
g18
I1
sg19
I0
sg20
I166
sg21
I0
sg22
I0
sg23
I140
sg24
I0
sbssg25
S'b5\x1en%\xf1\xfd2`\xe5kN\xaf\x8b=\x11'
p109
ssS'src_rockstor_storageadmin_views_pool_import'
p110
(dp111
g6
(dp112
g8
S'src_rockstor_storageadmin_views_pool_import.html'
p113
sg10
S'src/rockstor/storageadmin/views/pool_import'
p114
sg12
g13
(g14
g15
NtRp115
(dp116
g18
I1
sg19
I0
sg20
I70
sg21
I0
sg22
I0
sg23
I70
sg24
I0
sbssg25
S'\x91\xaa\x7f2\xef\xcb\xf3M\xec\xacoM%C\x12\xda'
p117
ssS'src_rockstor_storageadmin_views_user'
p118
(dp119
g6
(dp120
g8
S'src_rockstor_storageadmin_views_user.html'
p121
sg10
S'src/rockstor/storageadmin/views/user'
p122
sg12
g13
(g14
g15
NtRp123
(dp124
g18
I1
sg19
I0
sg20
I214
sg21
I0
sg22
I0
sg23
I113
sg24
I0
sbssg25
S'\xd6\xa6\x92X9\x87&\xfaZ\xdb\xb5mI,\xfe\xbb'
p125
ssS'src_rockstor_storageadmin_views_views'
p126
(dp127
g6
(dp128
g8
S'src_rockstor_storageadmin_views_views.html'
p129
sg10
S'src/rockstor/storageadmin/views/views'
p130
sg12
g13
(g14
g15
NtRp131
(dp132
g18
I1
sg19
I0
sg20
I0
sg21
I0
sg22
I0
sg23
I0
sg24
I0
sbssg25
S'{\xd99q\x98)\xfekT\xb8H7M\x1c\x94\xba'
p133
ssS'src_rockstor_storageadmin_views_rockon_helpers'
p134
(dp135
g6
(dp136
g8
S'src_rockstor_storageadmin_views_rockon_helpers.html'
p137
sg10
S'src/rockstor/storageadmin/views/rockon_helpers'
p138
sg12
g13
(g14
g15
NtRp139
(dp140
g18
I1
sg19
I0
sg20
I195
sg21
I0
sg22
I0
sg23
I170
sg24
I0
sbssg25
S'\xfb\xe3\xb0\xd0]v5\xba/c\xe53\\\xd02\xeb'
p141
ssS'src_rockstor_storageadmin_views_share_iscsi'
p142
(dp143
g6
(dp144
g8
S'src_rockstor_storageadmin_views_share_iscsi.html'
p145
sg10
S'src/rockstor/storageadmin/views/share_iscsi'
p146
sg12
g13
(g14
g15
NtRp147
(dp148
g18
I1
sg19
I0
sg20
I59
sg21
I0
sg22
I0
sg23
I43
sg24
I0
sbssg25
S'0\x04\xd3SN\x0c\xa6\x96\xadx^\xa1\xaa\xd8 \x0b'
p149
ssS'src_rockstor_storageadmin_views_setup_user'
p150
(dp151
g6
(dp152
g8
S'src_rockstor_storageadmin_views_setup_user.html'
p153
sg10
S'src/rockstor/storageadmin/views/setup_user'
p154
sg12
g13
(g14
g15
NtRp155
(dp156
g18
I1
sg19
I0
sg20
I32
sg21
I0
sg22
I0
sg23
I20
sg24
I0
sbssg25
S'\xec\x94\x84\x1a\x9aM2\xb5p\xca\xa2\x96\x95\x1cq\n'
p157
ssS'src_rockstor_storageadmin_views_pool_balance'
p158
(dp159
g6
(dp160
g8
S'src_rockstor_storageadmin_views_pool_balance.html'
p161
sg10
S'src/rockstor/storageadmin/views/pool_balance'
p162
sg12
g13
(g14
g15
NtRp163
(dp164
g18
I1
sg19
I0
sg20
I56
sg21
I0
sg22
I0
sg23
I39
sg24
I0
sbssg25
S'\x07\x17\x19.?\x9aP=[\xe8\xad\x88\x8a\xc7\xfeB'
p165
ssS'src_rockstor_storageadmin_views_pool'
p166
(dp167
g6
(dp168
g8
S'src_rockstor_storageadmin_views_pool.html'
p169
sg10
S'src/rockstor/storageadmin/views/pool'
p170
sg12
g13
(g14
g15
NtRp171
(dp172
g18
I1
sg19
I0
sg20
I279
sg21
I0
sg22
I0
sg23
I44
sg24
I0
sbssg25
S'\xca\xf33\xf0\xab\xd08=\xdd\xe8\xffG\x08\xcf\x02X'
p173
ssS'src_rockstor_storageadmin_views_pool_scrub'
p174
(dp175
g6
(dp176
g8
S'src_rockstor_storageadmin_views_pool_scrub.html'
p177
sg10
S'src/rockstor/storageadmin/views/pool_scrub'
p178
sg12
g13
(g14
g15
NtRp179
(dp180
g18
I1
sg19
I0
sg20
I60
sg21
I0
sg22
I0
sg23
I43
sg24
I0
sbssg25
S'\xfe\xf2\x8c\xe6Q\x0f\x9b\xdd\x00dX|\x003\x87w'
p181
ssS'src_rockstor_storageadmin_views_rockon'
p182
(dp183
g6
(dp184
g8
S'src_rockstor_storageadmin_views_rockon.html'
p185
sg10
S'src/rockstor/storageadmin/views/rockon'
p186
sg12
g13
(g14
g15
NtRp187
(dp188
g18
I1
sg19
I0
sg20
I126
sg21
I0
sg22
I0
sg23
I105
sg24
I0
sbssg25
S"\xa0\x08^\xbe\xa2\xa8O\xd9\xb5\xca\x18'\xd6\xa19\xb4"
p189
ssS'src_rockstor_storageadmin_views_sftp'
p190
(dp191
g6
(dp192
g8
S'src_rockstor_storageadmin_views_sftp.html'
p193
sg10
S'src/rockstor/storageadmin/views/sftp'
p194
sg12
g13
(g14
g15
NtRp195
(dp196
g18
I1
sg19
I0
sg20
I79
sg21
I0
sg22
I0
sg23
I58
sg24
I0
sbssg25
S'\xb9\xf7gA\x0f\x0b\xa9\xe0\xf5\x89\xa2\xf0V\xde\x82\xf6'
p197
ssS'src_rockstor_storageadmin_views_rockon_volume'
p198
(dp199
g6
(dp200
g8
S'src_rockstor_storageadmin_views_rockon_volume.html'
p201
sg10
S'src/rockstor/storageadmin/views/rockon_volume'
p202
sg12
g13
(g14
g15
NtRp203
(dp204
g18
I1
sg19
I0
sg20
I14
sg21
I0
sg22
I0
sg23
I7
sg24
I0
sbssg25
S"b\x81\xfc:\xc84|\xeb1\x9bHb'R\xe8K"
p205
ssS'src_rockstor_storageadmin_views_network'
p206
(dp207
g6
(dp208
g8
S'src_rockstor_storageadmin_views_network.html'
p209
sg10
S'src/rockstor/storageadmin/views/network'
p210
sg12
g13
(g14
g15
NtRp211
(dp212
g18
I1
sg19
I0
sg20
I122
sg21
I0
sg22
I0
sg23
I94
sg24
I0
sbssg25
S'\x15Z\x11"O7Tn\xd4\x95c6\xd2\xac\xef\xd6'
p213
ssS'src_rockstor_storageadmin_views_command'
p214
(dp215
g6
(dp216
g8
S'src_rockstor_storageadmin_views_command.html'
p217
sg10
S'src/rockstor/storageadmin/views/command'
p218
sg12
g13
(g14
g15
NtRp219
(dp220
g18
I1
sg19
I0
sg20
I185
sg21
I0
sg22
I0
sg23
I160
sg24
I0
sbssg25
S'\xd7\x82J\x92\xec\x81\xe8;\xf7\xda\xf9\x987\xffZh'
p221
ssS'src_rockstor_storageadmin_views_support'
p222
(dp223
g6
(dp224
g8
S'src_rockstor_storageadmin_views_support.html'
p225
sg10
S'src/rockstor/storageadmin/views/support'
p226
sg12
g13
(g14
g15
NtRp227
(dp228
g18
I1
sg19
I0
sg20
I74
sg21
I0
sg22
I0
sg23
I49
sg24
I0
sbssg25
S'\xbdKJ\xfd\x10d\xf2\xd6&%\x7f!\x19w\x14\xe2'
p229
ssS'src_rockstor_storageadmin_views_disk'
p230
(dp231
g6
(dp232
g8
S'src_rockstor_storageadmin_views_disk.html'
p233
sg10
S'src/rockstor/storageadmin/views/disk'
p234
sg12
g13
(g14
g15
NtRp235
(dp236
g18
I1
sg19
I0
sg20
I161
sg21
I0
sg22
I0
sg23
I86
sg24
I0
sbssg25
S'\r\xaa\x93\xd5\xe3\xed\xa7\xdc\x94\x06E\x9d\x08\x8aAR'
p237
ssS'src_rockstor_storageadmin_views_share_helpers'
p238
(dp239
g6
(dp240
g38
S'src_rockstor_storageadmin_views_share_helpers.html'
p241
sg40
S'src/rockstor/storageadmin/views/share_helpers'
p242
sg42
g13
(g14
g15
NtRp243
(dp244
g18
I1
sg19
I0
sg20
I35
sg21
I0
sg22
I0
sg23
I25
sg24
I0
sbssg25
S'I\x81\xcfL\xfa\x9a\xf3\x03\xd4/\x0e\xa0/J\xa1{'
p245
ssS'src_rockstor_storageadmin_views_rockon_custom_config'
p246
(dp247
g6
(dp248
g8
S'src_rockstor_storageadmin_views_rockon_custom_config.html'
p249
sg10
S'src/rockstor/storageadmin/views/rockon_custom_config'
p250
sg12
g13
(g14
g15
NtRp251
(dp252
g18
I1
sg19
I0
sg20
I13
sg21
I0
sg22
I0
sg23
I6
sg24
I0
sbssg25
S'r\xd7n\x99\x11GR\xa3\x19v\xd9\x16\xcf\xb1V\xe6'
p253
ssS'src_rockstor_storageadmin_views_installed_plugin'
p254
(dp255
g6
(dp256
g8
S'src_rockstor_storageadmin_views_installed_plugin.html'
p257
sg10
S'src/rockstor/storageadmin/views/installed_plugin'
p258
sg12
g13
(g14
g15
NtRp259
(dp260
g18
I1
sg19
I0
sg20
I26
sg21
I0
sg22
I0
sg23
I12
sg24
I0
sbssg25
S'\x1f\xbe\xf7\xf2Bv\x8e\x0b}\x1b\xde\x1d\xb1\xa0P\x94'
p261
ssS'src_rockstor_storageadmin_views_appliances'
p262
(dp263
g6
(dp264
g8
S'src_rockstor_storageadmin_views_appliances.html'
p265
sg10
S'src/rockstor/storageadmin/views/appliances'
p266
sg12
g13
(g14
g15
NtRp267
(dp268
g18
I1
sg19
I0
sg20
I114
sg21
I0
sg22
I0
sg23
I90
sg24
I0
sbssg25
S'\t\xf6\x94\xad\x1dZ`v\x9a\x01m\x1e6\xacV\xbb'
p269
ssS'src_rockstor_storageadmin_views_share_nfs'
p270
(dp271
g6
(dp272
g8
S'src_rockstor_storageadmin_views_share_nfs.html'
p273
sg10
S'src/rockstor/storageadmin/views/share_nfs'
p274
sg12
g13
(g14
g15
NtRp275
(dp276
g18
I1
sg19
I0
sg20
I81
sg21
I0
sg22
I0
sg23
I61
sg24
I0
sbssg25
S'\x00|\x02fu\x1a\xcbr\xf3\xaco}\xfa\xe5\xc0\xb5'
p277
ssS'src_rockstor_storageadmin_views_rockon_port'
p278
(dp279
g6
(dp280
g8
S'src_rockstor_storageadmin_views_rockon_port.html'
p281
sg10
S'src/rockstor/storageadmin/views/rockon_port'
p282
sg12
g13
(g14
g15
NtRp283
(dp284
g18
I1
sg19
I0
sg20
I14
sg21
I0
sg22
I0
sg23
I7
sg24
I0
sbssg25
S'\xda\xe3\x0f@\xd0sN\x8au\xb5\x9a\x15=\xee(R'
p285
ssS'src_rockstor_storageadmin_views_login'
p286
(dp287
g6
(dp288
g8
S'src_rockstor_storageadmin_views_login.html'
p289
sg10
S'src/rockstor/storageadmin/views/login'
p290
sg12
g13
(g14
g15
NtRp291
(dp292
g18
I1
sg19
I0
sg20
I19
sg21
I0
sg22
I0
sg23
I10
sg24
I0
sbssg25
S'\xaa\x82\x89\x0f\x9c\xecAJX\x02\x7f\xd4H \xa7r'
p293
ssS'src_rockstor_storageadmin_views_disk_smart'
p294
(dp295
g6
(dp296
g8
S'src_rockstor_storageadmin_views_disk_smart.html'
p297
sg10
S'src/rockstor/storageadmin/views/disk_smart'
p298
sg12
g13
(g14
g15
NtRp299
(dp300
g18
I1
sg19
I0
sg20
I86
sg21
I0
sg22
I0
sg23
I64
sg24
I0
sbssg25
S'_\xbe\x00\xa6\xb4Z1\x1c:\x12J\xd8\x05\xa6\xf0&'
p301
ssS'src_rockstor_storageadmin_views_dashboardconfig'
p302
(dp303
g6
(dp304
g8
S'src_rockstor_storageadmin_views_dashboardconfig.html'
p305
sg10
S'src/rockstor/storageadmin/views/dashboardconfig'
p306
sg12
g13
(g14
g15
NtRp307
(dp308
g18
I1
sg19
I0
sg20
I54
sg21
I0
sg22
I0
sg23
I35
sg24
I0
sbssg25
S'*\x0c\xc7l\x84t\xd59R\xb1\x0b\xe7Fsk\xd7'
p309
ssS'src_rockstor_storageadmin_views_nfs_helpers'
p310
(dp311
g6
(dp312
g8
S'src_rockstor_storageadmin_views_nfs_helpers.html'
p313
sg10
S'src/rockstor/storageadmin/views/nfs_helpers'
p314
sg12
g13
(g14
g15
NtRp315
(dp316
g18
I1
sg19
I0
sg20
I87
sg21
I0
sg22
I0
sg23
I73
sg24
I0
sbssg25
S'\x9c\xa3\x89Z\x91R\xb8u\xeb\x17\\\xce[\xbamR'
p317
ssS'src_rockstor_storageadmin_views_share'
p318
(dp319
g6
(dp320
g8
S'src_rockstor_storageadmin_views_share.html'
p321
sg10
S'src/rockstor/storageadmin/views/share'
p322
sg12
g13
(g14
g15
NtRp323
(dp324
g18
I1
sg19
I0
sg20
I193
sg21
I0
sg22
I0
sg23
I61
sg24
I0
sbssg25
S'\x91\xe9\xf8\xc6\xb03\xf4\x12a(z$\xe8\x9f\n\x00'
p325
ssS'src_rockstor_storageadmin_views_samba'
p326
(dp327
g6
(dp328
g38
S'src_rockstor_storageadmin_views_samba.html'
p329
sg40
S'src/rockstor/storageadmin/views/samba'
p330
sg42
g13
(g14
g15
NtRp331
(dp332
g18
I1
sg19
I0
sg20
I148
sg21
I0
sg22
I0
sg23
I0
sg24
I0
sbssg25
S'Bc\x92\x1fws7\xads\xfe\xaa>\xa4\x95\xacc'
p333
ssS'src_rockstor_storageadmin_views_group'
p334
(dp335
g6
(dp336
g8
S'src_rockstor_storageadmin_views_group.html'
p337
sg10
S'src/rockstor/storageadmin/views/group'
p338
sg12
g13
(g14
g15
NtRp339
(dp340
g18
I1
sg19
I0
sg20
I71
sg21
I0
sg22
I0
sg23
I24
sg24
I0
sbssg25
S'`\x98\n#\x8d\x0b_\xfd\x99]Egi\xb2\x83\xb3'
p341
ssS'src_rockstor_storageadmin_views_share_acl'
p342
(dp343
g6
(dp344
g8
S'src_rockstor_storageadmin_views_share_acl.html'
p345
sg10
S'src/rockstor/storageadmin/views/share_acl'
p346
sg12
g13
(g14
g15
NtRp347
(dp348
g18
I1
sg19
I0
sg20
I35
sg21
I0
sg22
I0
sg23
I23
sg24
I0
sbssg25
S'\xaa\xa4I\xa2\xfd!W\xc4\xc9\xdfc\x9cRX4\x89'
p349
ssS'src_rockstor_storageadmin_views_nfs_exports'
p350
(dp351
g6
(dp352
g8
S'src_rockstor_storageadmin_views_nfs_exports.html'
p353
sg10
S'src/rockstor/storageadmin/views/nfs_exports'
p354
sg12
g13
(g14
g15
NtRp355
(dp356
g18
I1
sg19
I0
sg20
I108
sg21
I0
sg22
I0
sg23
I87
sg24
I0
sbssg25
S'\xa5\x04\x8e\x19\xc1\xd7\xfc\x18\x85\xcf\xae\xea\x15\xcc8}'
p357
ssS'src_rockstor_storageadmin_views_serializers'
p358
(dp359
g6
(dp360
g8
S'src_rockstor_storageadmin_views_serializers.html'
p361
sg10
S'src/rockstor/storageadmin/views/serializers'
p362
sg12
g13
(g14
g15
NtRp363
(dp364
g18
I1
sg19
I0
sg20
I8
sg21
I0
sg22
I0
sg23
I8
sg24
I0
sbssg25
S'B\x91_\xf9\x1d\x8bsBs\xff\xce\xc0\x83[cn'
p365
ssS'src_rockstor_storageadmin_views_home'
p366
(dp367
g6
(dp368
g8
S'src_rockstor_storageadmin_views_home.html'
p369
sg10
S'src/rockstor/storageadmin/views/home'
p370
sg12
g13
(g14
g15
NtRp371
(dp372
g18
I1
sg19
I0
sg20
I37
sg21
I0
sg22
I0
sg23
I24
sg24
I0
sbssg25
S'oy\x89\x93\xae\xdd\xefTuZM\x7f\xcc\x11y\xe4'
p373
sssS'version'
p374
S'3.7.1'
p375
sS'settings'
p376
S'\xec\xf5\xad\xbc\xc4XOQl\xafY\xf3E\xa1\xd0n'
p377
sS'format'
p378
I1
s.