(dp1
S'files'
p2
(dp3
S'src_rockstor_storageadmin_views_rockon_id'
p4
(dp5
S'index'
p6
(dp7
S'html_filename'
p8
S'src_rockstor_storageadmin_views_rockon_id.html'
p9
sS'name'
p10
S'src/rockstor/storageadmin/views/rockon_id'
p11
sS'nums'
p12
ccopy_reg
_reconstructor
p13
(ccoverage.results
Numbers
p14
c__builtin__
object
p15
NtRp16
(dp17
S'n_files'
p18
I1
sS'n_branches'
p19
I0
sS'n_statements'
p20
I142
sS'n_excluded'
p21
I0
sS'n_partial_branches'
p22
I0
sS'n_missing'
p23
I125
sS'n_missing_branches'
p24
I0
sbssS'hash'
p25
S'Q*\x06\xf1;yM\xf1\x8e\x89\xe6\xed\xd31\x14{'
p26
ssS'src_rockstor_storageadmin_views___init__'
p27
(dp28
g6
(dp29
g8
S'src_rockstor_storageadmin_views___init__.html'
p30
sg10
S'src/rockstor/storageadmin/views/__init__'
p31
sg12
g13
(g14
g15
NtRp32
(dp33
g18
I1
sg19
I0
sg20
I34
sg21
I0
sg22
I0
sg23
I0
sg24
I0
sbssg25
S'\xfas\x16#Tc\xc4\xffm\x17\xcah\xed\xd9\x98\xfa'
p34
ssS'src_rockstor_storageadmin_views_ug_helpers'
p35
(dp36
g6
(dp37
g8
S'src_rockstor_storageadmin_views_ug_helpers.html'
p38
sg10
S'src/rockstor/storageadmin/views/ug_helpers'
p39
sg12
g13
(g14
g15
NtRp40
(dp41
g18
I1
sg19
I0
sg20
I63
sg21
I0
sg22
I0
sg23
I57
sg24
I0
sbssg25
S'\xeb\x07m\x0c~i\xa82\x999U\x84\xa9\xb7\xab\xcb'
p42
ssS'src_rockstor_storageadmin_views_tls_certificate'
p43
(dp44
g6
(dp45
g8
S'src_rockstor_storageadmin_views_tls_certificate.html'
p46
sg10
S'src/rockstor/storageadmin/views/tls_certificate'
p47
sg12
g13
(g14
g15
NtRp48
(dp49
g18
I1
sg19
I0
sg20
I53
sg21
I0
sg22
I0
sg23
I35
sg24
I0
sbssg25
S'#\xeb[\x90\x1f\xb65\xd6\x0b\xeb}\x97\x8e\x85S\x82'
p50
ssS'src_rockstor_storageadmin_views_oauth_app'
p51
(dp52
g6
(dp53
g8
S'src_rockstor_storageadmin_views_oauth_app.html'
p54
sg10
S'src/rockstor/storageadmin/views/oauth_app'
p55
sg12
g13
(g14
g15
NtRp56
(dp57
g18
I1
sg19
I0
sg20
I47
sg21
I0
sg22
I0
sg23
I34
sg24
I0
sbssg25
S'[wL2V{j=$\xb6t\xc2\x80\x82)\xcf'
p58
ssS'src_rockstor_storageadmin_views_rockon_helpers'
p59
(dp60
g6
(dp61
g8
S'src_rockstor_storageadmin_views_rockon_helpers.html'
p62
sg10
S'src/rockstor/storageadmin/views/rockon_helpers'
p63
sg12
g13
(g14
g15
NtRp64
(dp65
g18
I1
sg19
I0
sg20
I195
sg21
I0
sg22
I0
sg23
I160
sg24
I0
sbssg25
S'I\xb1\xb0f\x95\xf0\x8dm\xad\xd7\xec\xe1C\xe5\x00\x9d'
p66
ssS'src_rockstor_storageadmin_views_clone_helpers'
p67
(dp68
g6
(dp69
g8
S'src_rockstor_storageadmin_views_clone_helpers.html'
p70
sg10
S'src/rockstor/storageadmin/views/clone_helpers'
p71
sg12
g13
(g14
g15
NtRp72
(dp73
g18
I1
sg19
I0
sg20
I31
sg21
I0
sg22
I0
sg23
I23
sg24
I0
sbssg25
S'\x07\x18\x1d\x01\x19s\xd9\x9f/\xe5\xe9\xb4P\x80\xd2m'
p74
ssS'src_rockstor_storageadmin_views_netatalk'
p75
(dp76
g6
(dp77
S'html_filename'
p78
S'src_rockstor_storageadmin_views_netatalk.html'
p79
sS'name'
p80
S'src/rockstor/storageadmin/views/netatalk'
p81
sS'nums'
p82
g13
(g14
g15
NtRp83
(dp84
g18
I1
sg19
I0
sg20
I93
sg21
I0
sg22
I0
sg23
I13
sg24
I0
sbssg25
S'vH\xe2\xee\xf2$\x02`\xc5N\x84\xfa\x8f\x81\x84k'
p85
ssS'src_rockstor_storageadmin_views_snapshot'
p86
(dp87
g6
(dp88
g8
S'src_rockstor_storageadmin_views_snapshot.html'
p89
sg10
S'src/rockstor/storageadmin/views/snapshot'
p90
sg12
g13
(g14
g15
NtRp91
(dp92
g18
I1
sg19
I0
sg20
I157
sg21
I0
sg22
I0
sg23
I129
sg24
I0
sbssg25
S'\xfc\x1f\xd3\n\xf1,w\xa2h}\x10\xffj\x04\xb6\xc8'
p93
ssS'src_rockstor_storageadmin_views_user'
p94
(dp95
g6
(dp96
g8
S'src_rockstor_storageadmin_views_user.html'
p97
sg10
S'src/rockstor/storageadmin/views/user'
p98
sg12
g13
(g14
g15
NtRp99
(dp100
g18
I1
sg19
I0
sg20
I214
sg21
I0
sg22
I0
sg23
I186
sg24
I0
sbssg25
S'\xb9\rid\xc2%$M\xe3\x05>w\xe12\xc6\xa0'
p101
ssS'src_rockstor_storageadmin_views_views'
p102
(dp103
g6
(dp104
g8
S'src_rockstor_storageadmin_views_views.html'
p105
sg10
S'src/rockstor/storageadmin/views/views'
p106
sg12
g13
(g14
g15
NtRp107
(dp108
g18
I1
sg19
I0
sg20
I0
sg21
I0
sg22
I0
sg23
I0
sg24
I0
sbssg25
S'{\xd99q\x98)\xfekT\xb8H7M\x1c\x94\xba'
p109
ssS'src_rockstor_storageadmin_views_support'
p110
(dp111
g6
(dp112
g8
S'src_rockstor_storageadmin_views_support.html'
p113
sg10
S'src/rockstor/storageadmin/views/support'
p114
sg12
g13
(g14
g15
NtRp115
(dp116
g18
I1
sg19
I0
sg20
I74
sg21
I0
sg22
I0
sg23
I49
sg24
I0
sbssg25
S'\xbdKJ\xfd\x10d\xf2\xd6&%\x7f!\x19w\x14\xe2'
p117
ssS'src_rockstor_storageadmin_views_share_iscsi'
p118
(dp119
g6
(dp120
g8
S'src_rockstor_storageadmin_views_share_iscsi.html'
p121
sg10
S'src/rockstor/storageadmin/views/share_iscsi'
p122
sg12
g13
(g14
g15
NtRp123
(dp124
g18
I1
sg19
I0
sg20
I58
sg21
I0
sg22
I0
sg23
I42
sg24
I0
sbssg25
S'\xa1\x18T\xa1\x93\xf1\xac\xc8-\xa5H\xac\x12 \x8aO'
p125
ssS'src_rockstor_storageadmin_views_setup_user'
p126
(dp127
g6
(dp128
g8
S'src_rockstor_storageadmin_views_setup_user.html'
p129
sg10
S'src/rockstor/storageadmin/views/setup_user'
p130
sg12
g13
(g14
g15
NtRp131
(dp132
g18
I1
sg19
I0
sg20
I32
sg21
I0
sg22
I0
sg23
I20
sg24
I0
sbssg25
S'\xec\x94\x84\x1a\x9aM2\xb5p\xca\xa2\x96\x95\x1cq\n'
p133
ssS'src_rockstor_storageadmin_views_pool_balance'
p134
(dp135
g6
(dp136
g8
S'src_rockstor_storageadmin_views_pool_balance.html'
p137
sg10
S'src/rockstor/storageadmin/views/pool_balance'
p138
sg12
g13
(g14
g15
NtRp139
(dp140
g18
I1
sg19
I0
sg20
I67
sg21
I0
sg22
I0
sg23
I47
sg24
I0
sbssg25
S'9x\xa8\xcf\x0f\xaa\xf9\xbf\x81\xed\xc1TJ\xf8\xff='
p141
ssS'src_rockstor_storageadmin_views_pool'
p142
(dp143
g6
(dp144
g8
S'src_rockstor_storageadmin_views_pool.html'
p145
sg10
S'src/rockstor/storageadmin/views/pool'
p146
sg12
g13
(g14
g15
NtRp147
(dp148
g18
I1
sg19
I0
sg20
I289
sg21
I0
sg22
I0
sg23
I259
sg24
I0
sbssg25
S'\xb5\xbe\xa0\x96\xf6X\r\xe4\x81\xa7\x8f&\xf0\xa3\xe4\xf4'
p149
ssS'src_rockstor_storageadmin_views_pool_scrub'
p150
(dp151
g6
(dp152
g8
S'src_rockstor_storageadmin_views_pool_scrub.html'
p153
sg10
S'src/rockstor/storageadmin/views/pool_scrub'
p154
sg12
g13
(g14
g15
NtRp155
(dp156
g18
I1
sg19
I0
sg20
I58
sg21
I0
sg22
I0
sg23
I41
sg24
I0
sbssg25
S'\x9a\xef\xa4\x9f\x7f\xb4\xf4\xbeo\xca\x8e\xbeG\xd1N\xae'
p157
ssS'src_rockstor_storageadmin_views_email'
p158
(dp159
g6
(dp160
g8
S'src_rockstor_storageadmin_views_email.html'
p161
sg10
S'src/rockstor/storageadmin/views/email'
p162
sg12
g13
(g14
g15
NtRp163
(dp164
g18
I1
sg19
I0
sg20
I79
sg21
I0
sg22
I0
sg23
I52
sg24
I0
sbssg25
S'\xc8\xf24\x98\x7f\xa1u\x86\x80\x9c\x7fg\xc2\xc8\xd7\xcb'
p165
ssS'src_rockstor_storageadmin_views_rockon'
p166
(dp167
g6
(dp168
g8
S'src_rockstor_storageadmin_views_rockon.html'
p169
sg10
S'src/rockstor/storageadmin/views/rockon'
p170
sg12
g13
(g14
g15
NtRp171
(dp172
g18
I1
sg19
I0
sg20
I166
sg21
I0
sg22
I0
sg23
I145
sg24
I0
sbssg25
S'G<i\x8e\xb8p\xcf#\xec\x9f+\xf89\xc9\xb1\xf5'
p173
ssS'src_rockstor_storageadmin_views_sftp'
p174
(dp175
g6
(dp176
S'html_filename'
p177
S'src_rockstor_storageadmin_views_sftp.html'
p178
sS'name'
p179
S'src/rockstor/storageadmin/views/sftp'
p180
sS'nums'
p181
g13
(g14
g15
NtRp182
(dp183
g18
I1
sg19
I0
sg20
I79
sg21
I0
sg22
I0
sg23
I13
sg24
I0
sbssg25
S'u\xbf\xb7\xcf\xa9\xff\x88m\xfd\xa5\xf2>\xd4\xf4\x19\xb4'
p184
ssS'src_rockstor_storageadmin_views_rockon_json'
p185
(dp186
g6
(dp187
g8
S'src_rockstor_storageadmin_views_rockon_json.html'
p188
sg10
S'src/rockstor/storageadmin/views/rockon_json'
p189
sg12
g13
(g14
g15
NtRp190
(dp191
g18
I1
sg19
I0
sg20
I10
sg21
I0
sg22
I0
sg23
I10
sg24
I0
sbssg25
S'\xdb&\x14\xd7\x1cP\x82\xa2\x10\xd3TM\r\xa9TP'
p192
ssS'src_rockstor_storageadmin_views_rockon_volume'
p193
(dp194
g6
(dp195
g8
S'src_rockstor_storageadmin_views_rockon_volume.html'
p196
sg10
S'src/rockstor/storageadmin/views/rockon_volume'
p197
sg12
g13
(g14
g15
NtRp198
(dp199
g18
I1
sg19
I0
sg20
I14
sg21
I0
sg22
I0
sg23
I7
sg24
I0
sbssg25
S'\xf9\x1eb\xf5\x1c\x14\xfbh-\xd2\x9fJ\x90=\xafH'
p200
ssS'src_rockstor_storageadmin_views_network'
p201
(dp202
g6
(dp203
g8
S'src_rockstor_storageadmin_views_network.html'
p204
sg10
S'src/rockstor/storageadmin/views/network'
p205
sg12
g13
(g14
g15
NtRp206
(dp207
g18
I1
sg19
I0
sg20
I157
sg21
I0
sg22
I0
sg23
I126
sg24
I0
sbssg25
S'\xcb~\xbc\x88\x7f\xb3/\x8b\xa4.\x1e\xc1#=m:'
p208
ssS'src_rockstor_storageadmin_views_command'
p209
(dp210
g6
(dp211
g8
S'src_rockstor_storageadmin_views_command.html'
p212
sg10
S'src/rockstor/storageadmin/views/command'
p213
sg12
g13
(g14
g15
NtRp214
(dp215
g18
I1
sg19
I0
sg20
I185
sg21
I0
sg22
I0
sg23
I159
sg24
I0
sbssg25
S'\xc0\x01\xf9\x01\x17\x19\xbb\x0fk\x12\xdc+\xe8$\xc8v'
p216
ssS'src_rockstor_storageadmin_views_disk'
p217
(dp218
g6
(dp219
g8
S'src_rockstor_storageadmin_views_disk.html'
p220
sg10
S'src/rockstor/storageadmin/views/disk'
p221
sg12
g13
(g14
g15
NtRp222
(dp223
g18
I1
sg19
I0
sg20
I170
sg21
I0
sg22
I0
sg23
I138
sg24
I0
sbssg25
S't\xde\xa8T&\x9a~\x0c\xe7<\xbb\x10\xf3\t\x8a\xef'
p224
ssS'src_rockstor_storageadmin_views_share_helpers'
p225
(dp226
g6
(dp227
g177
S'src_rockstor_storageadmin_views_share_helpers.html'
p228
sg179
S'src/rockstor/storageadmin/views/share_helpers'
p229
sg181
g13
(g14
g15
NtRp230
(dp231
g18
I1
sg19
I0
sg20
I108
sg21
I0
sg22
I0
sg23
I89
sg24
I0
sbssg25
S'\x10\xc3\x82]\x8e0Dk\xfcl\xcf\x81\t\tfz'
p232
ssS'src_rockstor_storageadmin_views_rockon_custom_config'
p233
(dp234
g6
(dp235
g8
S'src_rockstor_storageadmin_views_rockon_custom_config.html'
p236
sg10
S'src/rockstor/storageadmin/views/rockon_custom_config'
p237
sg12
g13
(g14
g15
NtRp238
(dp239
g18
I1
sg19
I0
sg20
I13
sg21
I0
sg22
I0
sg23
I6
sg24
I0
sbssg25
S'\x94V\xf46\xb3\xb9\x15\x8b*~\xddTb\xcb\xe8='
p240
ssS'src_rockstor_storageadmin_views_appliances'
p241
(dp242
g6
(dp243
g8
S'src_rockstor_storageadmin_views_appliances.html'
p244
sg10
S'src/rockstor/storageadmin/views/appliances'
p245
sg12
g13
(g14
g15
NtRp246
(dp247
g18
I1
sg19
I0
sg20
I114
sg21
I0
sg22
I0
sg23
I90
sg24
I0
sbssg25
S'\t\xf6\x94\xad\x1dZ`v\x9a\x01m\x1e6\xacV\xbb'
p248
ssS'src_rockstor_storageadmin_views_rockon_port'
p249
(dp250
g6
(dp251
g8
S'src_rockstor_storageadmin_views_rockon_port.html'
p252
sg10
S'src/rockstor/storageadmin/views/rockon_port'
p253
sg12
g13
(g14
g15
NtRp254
(dp255
g18
I1
sg19
I0
sg20
I14
sg21
I0
sg22
I0
sg23
I7
sg24
I0
sbssg25
S'=\xe8\x94\x1e\xce\xb5*f\xad\x8f\xba\x14\x922M\xb0'
p256
ssS'src_rockstor_storageadmin_views_login'
p257
(dp258
g6
(dp259
g8
S'src_rockstor_storageadmin_views_login.html'
p260
sg10
S'src/rockstor/storageadmin/views/login'
p261
sg12
g13
(g14
g15
NtRp262
(dp263
g18
I1
sg19
I0
sg20
I19
sg21
I0
sg22
I0
sg23
I10
sg24
I0
sbssg25
S'\xaa\x82\x89\x0f\x9c\xecAJX\x02\x7f\xd4H \xa7r'
p264
ssS'src_rockstor_storageadmin_views_disk_smart'
p265
(dp266
g6
(dp267
g8
S'src_rockstor_storageadmin_views_disk_smart.html'
p268
sg10
S'src/rockstor/storageadmin/views/disk_smart'
p269
sg12
g13
(g14
g15
NtRp270
(dp271
g18
I1
sg19
I0
sg20
I86
sg21
I0
sg22
I0
sg23
I64
sg24
I0
sbssg25
S'\x9e\x82\x0f\x03)\x90|\xf1Z\xf2\x0b\xe7\xa0#\x93)'
p272
ssS'src_rockstor_storageadmin_views_dashboardconfig'
p273
(dp274
g6
(dp275
g8
S'src_rockstor_storageadmin_views_dashboardconfig.html'
p276
sg10
S'src/rockstor/storageadmin/views/dashboardconfig'
p277
sg12
g13
(g14
g15
NtRp278
(dp279
g18
I1
sg19
I0
sg20
I54
sg21
I0
sg22
I0
sg23
I35
sg24
I0
sbssg25
S'*\x0c\xc7l\x84t\xd59R\xb1\x0b\xe7Fsk\xd7'
p280
ssS'src_rockstor_storageadmin_views_share'
p281
(dp282
g6
(dp283
g8
S'src_rockstor_storageadmin_views_share.html'
p284
sg10
S'src/rockstor/storageadmin/views/share'
p285
sg12
g13
(g14
g15
NtRp286
(dp287
g18
I1
sg19
I0
sg20
I172
sg21
I0
sg22
I0
sg23
I140
sg24
I0
sbssg25
S'`\xdd\x9e\x96I\x1a\x01\xe6\xa6\x1c\xdb\xe5\x82\xf2\x80)'
p288
ssS'src_rockstor_storageadmin_views_samba'
p289
(dp290
g6
(dp291
g8
S'src_rockstor_storageadmin_views_samba.html'
p292
sg10
S'src/rockstor/storageadmin/views/samba'
p293
sg12
g13
(g14
g15
NtRp294
(dp295
g18
I1
sg19
I0
sg20
I146
sg21
I0
sg22
I0
sg23
I119
sg24
I0
sbssg25
S'Tt\x04w<\x08\xc7\x1f\x8fW<\x11Q1\xcdH'
p296
ssS'src_rockstor_storageadmin_views_config_backup'
p297
(dp298
g6
(dp299
g8
S'src_rockstor_storageadmin_views_config_backup.html'
p300
sg10
S'src/rockstor/storageadmin/views/config_backup'
p301
sg12
g13
(g14
g15
NtRp302
(dp303
g18
I1
sg19
I0
sg20
I206
sg21
I0
sg22
I0
sg23
I163
sg24
I0
sbssg25
S"\xbaZ\x17'9(\xe2\xf8\xd4\xca\x9bp\xf3\xf7{\xc5"
p304
ssS'src_rockstor_storageadmin_views_group'
p305
(dp306
g6
(dp307
g8
S'src_rockstor_storageadmin_views_group.html'
p308
sg10
S'src/rockstor/storageadmin/views/group'
p309
sg12
g13
(g14
g15
NtRp310
(dp311
g18
I1
sg19
I0
sg20
I72
sg21
I0
sg22
I0
sg23
I50
sg24
I0
sbssg25
S'\xe1\xae\x1a,~\x8f\x94\xdcB\xb4\x06,\x0cKp\x03'
p312
ssS'src_rockstor_storageadmin_views_share_command'
p313
(dp314
g6
(dp315
g8
S'src_rockstor_storageadmin_views_share_command.html'
p316
sg10
S'src/rockstor/storageadmin/views/share_command'
p317
sg12
g13
(g14
g15
NtRp318
(dp319
g18
I1
sg19
I0
sg20
I49
sg21
I0
sg22
I0
sg23
I30
sg24
I0
sbssg25
S'\xfb{\xe8P\xc1w\xc5\x9b\xe2\xad\xf4\x0cdq\xf6q'
p320
ssS'src_rockstor_storageadmin_views_share_acl'
p321
(dp322
g6
(dp323
g8
S'src_rockstor_storageadmin_views_share_acl.html'
p324
sg10
S'src/rockstor/storageadmin/views/share_acl'
p325
sg12
g13
(g14
g15
NtRp326
(dp327
g18
I1
sg19
I0
sg20
I34
sg21
I0
sg22
I0
sg23
I22
sg24
I0
sbssg25
S'Ag\xdb\r\x7f\xe7\xa8rK,h8\xcb\xb8yQ'
p328
ssS'src_rockstor_storageadmin_views_nfs_exports'
p329
(dp330
g6
(dp331
g8
S'src_rockstor_storageadmin_views_nfs_exports.html'
p332
sg10
S'src/rockstor/storageadmin/views/nfs_exports'
p333
sg12
g13
(g14
g15
NtRp334
(dp335
g18
I1
sg19
I0
sg20
I214
sg21
I0
sg22
I0
sg23
I7
sg24
I0
sbssg25
S']\x9c\x8d\xeb\xbf\xc0eW\xaf\xa9}~\xe7\xd1\xdf\xfe'
p336
ssS'src_rockstor_storageadmin_views_home'
p337
(dp338
g6
(dp339
g8
S'src_rockstor_storageadmin_views_home.html'
p340
sg10
S'src/rockstor/storageadmin/views/home'
p341
sg12
g13
(g14
g15
NtRp342
(dp343
g18
I1
sg19
I0
sg20
I36
sg21
I0
sg22
I0
sg23
I24
sg24
I0
sbssg25
S'\xff\xed\xfb\x960(\x82Q\x9dp\xcd\x1a{o\x8d\x0f'
p344
sssS'version'
p345
S'3.7.1'
p346
sS'settings'
p347
S'\xa49\xd6=eL\xa4m`He\x03\xdd\xe6\xd4\xa0'
p348
sS'format'
p349
I1
s.