(dp1
S'files'
p2
(dp3
S'src_rockstor_storageadmin_views_rockon_id'
p4
(dp5
S'index'
p6
(dp7
S'html_filename'
p8
S'src_rockstor_storageadmin_views_rockon_id.html'
p9
sS'name'
p10
S'src/rockstor/storageadmin/views/rockon_id'
p11
sS'nums'
p12
ccopy_reg
_reconstructor
p13
(ccoverage.results
Numbers
p14
c__builtin__
object
p15
NtRp16
(dp17
S'n_files'
p18
I1
sS'n_branches'
p19
I0
sS'n_statements'
p20
I142
sS'n_excluded'
p21
I0
sS'n_partial_branches'
p22
I0
sS'n_missing'
p23
I125
sS'n_missing_branches'
p24
I0
sbssS'hash'
p25
S'Q*\x06\xf1;yM\xf1\x8e\x89\xe6\xed\xd31\x14{'
p26
ssS'src_rockstor_storageadmin_views___init__'
p27
(dp28
g6
(dp29
S'html_filename'
p30
S'src_rockstor_storageadmin_views___init__.html'
p31
sS'name'
p32
S'src/rockstor/storageadmin/views/__init__'
p33
sS'nums'
p34
g13
(g14
g15
NtRp35
(dp36
g18
I1
sg19
I0
sg20
I34
sg21
I0
sg22
I0
sg23
I0
sg24
I0
sbssg25
S'S\xe7*\x96\xa1\xa3\xc0\xa8\xa4\xf6h\xf6?(\xee\x91'
p37
ssS'src_rockstor_storageadmin_views_ug_helpers'
p38
(dp39
g6
(dp40
g30
S'src_rockstor_storageadmin_views_ug_helpers.html'
p41
sg32
S'src/rockstor/storageadmin/views/ug_helpers'
p42
sg34
g13
(g14
g15
NtRp43
(dp44
g18
I1
sg19
I0
sg20
I63
sg21
I0
sg22
I0
sg23
I57
sg24
I0
sbssg25
S'\xeb\x07m\x0c~i\xa82\x999U\x84\xa9\xb7\xab\xcb'
p45
ssS'src_rockstor_storageadmin_views_command'
p46
(dp47
g6
(dp48
g8
S'src_rockstor_storageadmin_views_command.html'
p49
sg10
S'src/rockstor/storageadmin/views/command'
p50
sg12
g13
(g14
g15
NtRp51
(dp52
g18
I1
sg19
I0
sg20
I178
sg21
I0
sg22
I0
sg23
I152
sg24
I0
sbssg25
S'\x9e\x9dh\xcaV\xbd-\x91J\xbe\x94?\x0fqX\n'
p53
ssS'src_rockstor_storageadmin_views_tls_certificate'
p54
(dp55
g6
(dp56
g30
S'src_rockstor_storageadmin_views_tls_certificate.html'
p57
sg32
S'src/rockstor/storageadmin/views/tls_certificate'
p58
sg34
g13
(g14
g15
NtRp59
(dp60
g18
I1
sg19
I0
sg20
I53
sg21
I0
sg22
I0
sg23
I35
sg24
I0
sbssg25
S'#\xeb[\x90\x1f\xb65\xd6\x0b\xeb}\x97\x8e\x85S\x82'
p61
ssS'src_rockstor_storageadmin_views_oauth_app'
p62
(dp63
g6
(dp64
g30
S'src_rockstor_storageadmin_views_oauth_app.html'
p65
sg32
S'src/rockstor/storageadmin/views/oauth_app'
p66
sg34
g13
(g14
g15
NtRp67
(dp68
g18
I1
sg19
I0
sg20
I51
sg21
I0
sg22
I0
sg23
I37
sg24
I0
sbssg25
S'\x8c\xa7Ff\xe9us5b\xed,2\xc7\x88{\xf7'
p69
ssS'src_rockstor_storageadmin_views_rockon_helpers'
p70
(dp71
g6
(dp72
g8
S'src_rockstor_storageadmin_views_rockon_helpers.html'
p73
sg10
S'src/rockstor/storageadmin/views/rockon_helpers'
p74
sg12
g13
(g14
g15
NtRp75
(dp76
g18
I1
sg19
I0
sg20
I195
sg21
I0
sg22
I0
sg23
I160
sg24
I0
sbssg25
S'I\xb1\xb0f\x95\xf0\x8dm\xad\xd7\xec\xe1C\xe5\x00\x9d'
p77
ssS'src_rockstor_storageadmin_views_disk'
p78
(dp79
g6
(dp80
g30
S'src_rockstor_storageadmin_views_disk.html'
p81
sg32
S'src/rockstor/storageadmin/views/disk'
p82
sg34
g13
(g14
g15
NtRp83
(dp84
g18
I1
sg19
I0
sg20
I170
sg21
I0
sg22
I0
sg23
I136
sg24
I0
sbssg25
S'\x18\xd7g\xca#I\xfd\xdc\xf0h\xbe\xc9\x99\xda\xa0g'
p85
ssS'src_rockstor_storageadmin_views_nfs_exports'
p86
(dp87
g6
(dp88
g30
S'src_rockstor_storageadmin_views_nfs_exports.html'
p89
sg32
S'src/rockstor/storageadmin/views/nfs_exports'
p90
sg34
g13
(g14
g15
NtRp91
(dp92
g18
I1
sg19
I0
sg20
I214
sg21
I0
sg22
I0
sg23
I178
sg24
I0
sbssg25
S'\xa7\r\xd5\x02\x93\x06<\x82$)\xde\xe3\xc6s=\xc5'
p93
ssS'src_rockstor_storageadmin_views_netatalk'
p94
(dp95
g6
(dp96
g30
S'src_rockstor_storageadmin_views_netatalk.html'
p97
sg32
S'src/rockstor/storageadmin/views/netatalk'
p98
sg34
g13
(g14
g15
NtRp99
(dp100
g18
I1
sg19
I0
sg20
I93
sg21
I0
sg22
I0
sg23
I68
sg24
I0
sbssg25
S'\xe0)\x1fM,\xc5\xe7\x8bvAEl\xb1\xf3\xe5b'
p101
ssS'src_rockstor_storageadmin_views_snapshot'
p102
(dp103
g6
(dp104
g30
S'src_rockstor_storageadmin_views_snapshot.html'
p105
sg32
S'src/rockstor/storageadmin/views/snapshot'
p106
sg34
g13
(g14
g15
NtRp107
(dp108
g18
I1
sg19
I0
sg20
I156
sg21
I0
sg22
I0
sg23
I128
sg24
I0
sbssg25
S'[K>\xb7\xb2\xfe\x99\xb7l\xea\xfa%\xaf\xf0\xb4R'
p109
ssS'src_rockstor_storageadmin_views_user'
p110
(dp111
g6
(dp112
g30
S'src_rockstor_storageadmin_views_user.html'
p113
sg32
S'src/rockstor/storageadmin/views/user'
p114
sg34
g13
(g14
g15
NtRp115
(dp116
g18
I1
sg19
I0
sg20
I214
sg21
I0
sg22
I0
sg23
I186
sg24
I0
sbssg25
S'\xb9\rid\xc2%$M\xe3\x05>w\xe12\xc6\xa0'
p117
ssS'src_rockstor_storageadmin_views_views'
p118
(dp119
g6
(dp120
g8
S'src_rockstor_storageadmin_views_views.html'
p121
sg10
S'src/rockstor/storageadmin/views/views'
p122
sg12
g13
(g14
g15
NtRp123
(dp124
g18
I1
sg19
I0
sg20
I0
sg21
I0
sg22
I0
sg23
I0
sg24
I0
sbssg25
S'{\xd99q\x98)\xfekT\xb8H7M\x1c\x94\xba'
p125
ssS'src_rockstor_storageadmin_views_support'
p126
(dp127
g6
(dp128
g8
S'src_rockstor_storageadmin_views_support.html'
p129
sg10
S'src/rockstor/storageadmin/views/support'
p130
sg12
g13
(g14
g15
NtRp131
(dp132
g18
I1
sg19
I0
sg20
I74
sg21
I0
sg22
I0
sg23
I49
sg24
I0
sbssg25
S'\xbdKJ\xfd\x10d\xf2\xd6&%\x7f!\x19w\x14\xe2'
p133
ssS'src_rockstor_storageadmin_views_clone_helpers'
p134
(dp135
g6
(dp136
g8
S'src_rockstor_storageadmin_views_clone_helpers.html'
p137
sg10
S'src/rockstor/storageadmin/views/clone_helpers'
p138
sg12
g13
(g14
g15
NtRp139
(dp140
g18
I1
sg19
I0
sg20
I31
sg21
I0
sg22
I0
sg23
I23
sg24
I0
sbssg25
S'\x07\x18\x1d\x01\x19s\xd9\x9f/\xe5\xe9\xb4P\x80\xd2m'
p141
ssS'src_rockstor_storageadmin_views_share_iscsi'
p142
(dp143
g6
(dp144
g8
S'src_rockstor_storageadmin_views_share_iscsi.html'
p145
sg10
S'src/rockstor/storageadmin/views/share_iscsi'
p146
sg12
g13
(g14
g15
NtRp147
(dp148
g18
I1
sg19
I0
sg20
I58
sg21
I0
sg22
I0
sg23
I5
sg24
I0
sbssg25
S'\xaa\xf1\x00\xc0>\x0bz\xf8}\xa2P1\xf4\x07\x9d0'
p149
ssS'src_rockstor_storageadmin_views_setup_user'
p150
(dp151
g6
(dp152
g8
S'src_rockstor_storageadmin_views_setup_user.html'
p153
sg10
S'src/rockstor/storageadmin/views/setup_user'
p154
sg12
g13
(g14
g15
NtRp155
(dp156
g18
I1
sg19
I0
sg20
I32
sg21
I0
sg22
I0
sg23
I20
sg24
I0
sbssg25
S'\xec\x94\x84\x1a\x9aM2\xb5p\xca\xa2\x96\x95\x1cq\n'
p157
ssS'src_rockstor_storageadmin_views_update_subscription'
p158
(dp159
g6
(dp160
g30
S'src_rockstor_storageadmin_views_update_subscription.html'
p161
sg32
S'src/rockstor/storageadmin/views/update_subscription'
p162
sg34
g13
(g14
g15
NtRp163
(dp164
g18
I1
sg19
I0
sg20
I67
sg21
I0
sg22
I0
sg23
I46
sg24
I0
sbssg25
S'\xc07\xd45M\xa6\xcd^9\x14\x1e\xfb\x92t\x14P'
p165
ssS'src_rockstor_storageadmin_views_pool_balance'
p166
(dp167
g6
(dp168
g30
S'src_rockstor_storageadmin_views_pool_balance.html'
p169
sg32
S'src/rockstor/storageadmin/views/pool_balance'
p170
sg34
g13
(g14
g15
NtRp171
(dp172
g18
I1
sg19
I0
sg20
I67
sg21
I0
sg22
I0
sg23
I47
sg24
I0
sbssg25
S'9x\xa8\xcf\x0f\xaa\xf9\xbf\x81\xed\xc1TJ\xf8\xff='
p173
ssS'src_rockstor_storageadmin_views_pool'
p174
(dp175
g6
(dp176
g30
S'src_rockstor_storageadmin_views_pool.html'
p177
sg32
S'src/rockstor/storageadmin/views/pool'
p178
sg34
g13
(g14
g15
NtRp179
(dp180
g18
I1
sg19
I0
sg20
I294
sg21
I0
sg22
I0
sg23
I263
sg24
I0
sbssg25
S'K\xb8J0\x11Gb\xfb)\xc4\xb9\xde(\xfb\xb5\xa9'
p181
ssS'src_rockstor_storageadmin_views_pool_scrub'
p182
(dp183
g6
(dp184
g30
S'src_rockstor_storageadmin_views_pool_scrub.html'
p185
sg32
S'src/rockstor/storageadmin/views/pool_scrub'
p186
sg34
g13
(g14
g15
NtRp187
(dp188
g18
I1
sg19
I0
sg20
I58
sg21
I0
sg22
I0
sg23
I41
sg24
I0
sbssg25
S'\x9a\xef\xa4\x9f\x7f\xb4\xf4\xbeo\xca\x8e\xbeG\xd1N\xae'
p189
ssS'src_rockstor_storageadmin_views_rockon'
p190
(dp191
g6
(dp192
g8
S'src_rockstor_storageadmin_views_rockon.html'
p193
sg10
S'src/rockstor/storageadmin/views/rockon'
p194
sg12
g13
(g14
g15
NtRp195
(dp196
g18
I1
sg19
I0
sg20
I166
sg21
I0
sg22
I0
sg23
I145
sg24
I0
sbssg25
S'G<i\x8e\xb8p\xcf#\xec\x9f+\xf89\xc9\xb1\xf5'
p197
ssS'src_rockstor_storageadmin_views_sftp'
p198
(dp199
g6
(dp200
g30
S'src_rockstor_storageadmin_views_sftp.html'
p201
sg32
S'src/rockstor/storageadmin/views/sftp'
p202
sg34
g13
(g14
g15
NtRp203
(dp204
g18
I1
sg19
I0
sg20
I79
sg21
I0
sg22
I0
sg23
I58
sg24
I0
sbssg25
S'\xb9\xf7gA\x0f\x0b\xa9\xe0\xf5\x89\xa2\xf0V\xde\x82\xf6'
p205
ssS'src_rockstor_storageadmin_views_rockon_volume'
p206
(dp207
g6
(dp208
g8
S'src_rockstor_storageadmin_views_rockon_volume.html'
p209
sg10
S'src/rockstor/storageadmin/views/rockon_volume'
p210
sg12
g13
(g14
g15
NtRp211
(dp212
g18
I1
sg19
I0
sg20
I14
sg21
I0
sg22
I0
sg23
I7
sg24
I0
sbssg25
S'\xf9\x1eb\xf5\x1c\x14\xfbh-\xd2\x9fJ\x90=\xafH'
p213
ssS'src_rockstor_storageadmin_views_network'
p214
(dp215
g6
(dp216
g30
S'src_rockstor_storageadmin_views_network.html'
p217
sg32
S'src/rockstor/storageadmin/views/network'
p218
sg34
g13
(g14
g15
NtRp219
(dp220
g18
I1
sg19
I0
sg20
I158
sg21
I0
sg22
I0
sg23
I127
sg24
I0
sbssg25
S'EM\xbag("\xdb\xf0k\xca2q\x1evng'
p221
ssS'src_rockstor_storageadmin_views_email_client'
p222
(dp223
g6
(dp224
g8
S'src_rockstor_storageadmin_views_email_client.html'
p225
sg10
S'src/rockstor/storageadmin/views/email_client'
p226
sg12
g13
(g14
g15
NtRp227
(dp228
g18
I1
sg19
I0
sg20
I109
sg21
I0
sg22
I0
sg23
I78
sg24
I0
sbssg25
S'\xdbO\xf5\x8e\xba=P4\x02\x95wS\xfe\x9e#5'
p229
ssS'src_rockstor_storageadmin_views_disk_smart'
p230
(dp231
g6
(dp232
g30
S'src_rockstor_storageadmin_views_disk_smart.html'
p233
sg32
S'src/rockstor/storageadmin/views/disk_smart'
p234
sg34
g13
(g14
g15
NtRp235
(dp236
g18
I1
sg19
I0
sg20
I86
sg21
I0
sg22
I0
sg23
I64
sg24
I0
sbssg25
S'\x9e\x82\x0f\x03)\x90|\xf1Z\xf2\x0b\xe7\xa0#\x93)'
p237
ssS'src_rockstor_storageadmin_views_share_helpers'
p238
(dp239
g6
(dp240
g30
S'src_rockstor_storageadmin_views_share_helpers.html'
p241
sg32
S'src/rockstor/storageadmin/views/share_helpers'
p242
sg34
g13
(g14
g15
NtRp243
(dp244
g18
I1
sg19
I0
sg20
I106
sg21
I0
sg22
I0
sg23
I91
sg24
I0
sbssg25
S'\x86?\xa1\x8c\xaf\xf5\x7f\xdb[\xee\xba\xc9\xe3\xc8\xd4q'
p245
ssS'src_rockstor_storageadmin_views_rockon_custom_config'
p246
(dp247
g6
(dp248
g8
S'src_rockstor_storageadmin_views_rockon_custom_config.html'
p249
sg10
S'src/rockstor/storageadmin/views/rockon_custom_config'
p250
sg12
g13
(g14
g15
NtRp251
(dp252
g18
I1
sg19
I0
sg20
I13
sg21
I0
sg22
I0
sg23
I6
sg24
I0
sbssg25
S'\x94V\xf46\xb3\xb9\x15\x8b*~\xddTb\xcb\xe8='
p253
ssS'src_rockstor_storageadmin_views_rockon_port'
p254
(dp255
g6
(dp256
g8
S'src_rockstor_storageadmin_views_rockon_port.html'
p257
sg10
S'src/rockstor/storageadmin/views/rockon_port'
p258
sg12
g13
(g14
g15
NtRp259
(dp260
g18
I1
sg19
I0
sg20
I14
sg21
I0
sg22
I0
sg23
I7
sg24
I0
sbssg25
S'=\xe8\x94\x1e\xce\xb5*f\xad\x8f\xba\x14\x922M\xb0'
p261
ssS'src_rockstor_storageadmin_views_login'
p262
(dp263
g6
(dp264
g8
S'src_rockstor_storageadmin_views_login.html'
p265
sg10
S'src/rockstor/storageadmin/views/login'
p266
sg12
g13
(g14
g15
NtRp267
(dp268
g18
I1
sg19
I0
sg20
I19
sg21
I0
sg22
I0
sg23
I10
sg24
I0
sbssg25
S'\xaa\x82\x89\x0f\x9c\xecAJX\x02\x7f\xd4H \xa7r'
p269
ssS'src_rockstor_storageadmin_views_appliances'
p270
(dp271
g6
(dp272
g30
S'src_rockstor_storageadmin_views_appliances.html'
p273
sg32
S'src/rockstor/storageadmin/views/appliances'
p274
sg34
g13
(g14
g15
NtRp275
(dp276
g18
I1
sg19
I0
sg20
I121
sg21
I0
sg22
I0
sg23
I96
sg24
I0
sbssg25
S'\x95\x10\xafP\xcaV\xca\x0cm\xdcu,\x9d4_\x03'
p277
ssS'src_rockstor_storageadmin_views_dashboardconfig'
p278
(dp279
g6
(dp280
g8
S'src_rockstor_storageadmin_views_dashboardconfig.html'
p281
sg10
S'src/rockstor/storageadmin/views/dashboardconfig'
p282
sg12
g13
(g14
g15
NtRp283
(dp284
g18
I1
sg19
I0
sg20
I54
sg21
I0
sg22
I0
sg23
I35
sg24
I0
sbssg25
S'*\x0c\xc7l\x84t\xd59R\xb1\x0b\xe7Fsk\xd7'
p285
ssS'src_rockstor_storageadmin_views_share'
p286
(dp287
g6
(dp288
g30
S'src_rockstor_storageadmin_views_share.html'
p289
sg32
S'src/rockstor/storageadmin/views/share'
p290
sg34
g13
(g14
g15
NtRp291
(dp292
g18
I1
sg19
I0
sg20
I172
sg21
I0
sg22
I0
sg23
I140
sg24
I0
sbssg25
S'`\xdd\x9e\x96I\x1a\x01\xe6\xa6\x1c\xdb\xe5\x82\xf2\x80)'
p293
ssS'src_rockstor_storageadmin_views_samba'
p294
(dp295
g6
(dp296
g30
S'src_rockstor_storageadmin_views_samba.html'
p297
sg32
S'src/rockstor/storageadmin/views/samba'
p298
sg34
g13
(g14
g15
NtRp299
(dp300
g18
I1
sg19
I0
sg20
I153
sg21
I0
sg22
I0
sg23
I126
sg24
I0
sbssg25
S'\t\xe06@\xa2\xc3,\xe1s\xbfTL\x95q\xc4\x0f'
p301
ssS'src_rockstor_storageadmin_views_config_backup'
p302
(dp303
g6
(dp304
g8
S'src_rockstor_storageadmin_views_config_backup.html'
p305
sg10
S'src/rockstor/storageadmin/views/config_backup'
p306
sg12
g13
(g14
g15
NtRp307
(dp308
g18
I1
sg19
I0
sg20
I206
sg21
I0
sg22
I0
sg23
I163
sg24
I0
sbssg25
S'\xfc\x1d`j#\x118\xb0\x02\xf8@\xff)\xfe\x17?'
p309
ssS'src_rockstor_storageadmin_views_group'
p310
(dp311
g6
(dp312
g30
S'src_rockstor_storageadmin_views_group.html'
p313
sg32
S'src/rockstor/storageadmin/views/group'
p314
sg34
g13
(g14
g15
NtRp315
(dp316
g18
I1
sg19
I0
sg20
I72
sg21
I0
sg22
I0
sg23
I50
sg24
I0
sbssg25
S'\xe1\xae\x1a,~\x8f\x94\xdcB\xb4\x06,\x0cKp\x03'
p317
ssS'src_rockstor_storageadmin_views_share_command'
p318
(dp319
g6
(dp320
g30
S'src_rockstor_storageadmin_views_share_command.html'
p321
sg32
S'src/rockstor/storageadmin/views/share_command'
p322
sg34
g13
(g14
g15
NtRp323
(dp324
g18
I1
sg19
I0
sg20
I49
sg21
I0
sg22
I0
sg23
I30
sg24
I0
sbssg25
S'\xfb{\xe8P\xc1w\xc5\x9b\xe2\xad\xf4\x0cdq\xf6q'
p325
ssS'src_rockstor_storageadmin_views_share_acl'
p326
(dp327
g6
(dp328
g8
S'src_rockstor_storageadmin_views_share_acl.html'
p329
sg10
S'src/rockstor/storageadmin/views/share_acl'
p330
sg12
g13
(g14
g15
NtRp331
(dp332
g18
I1
sg19
I0
sg20
I34
sg21
I0
sg22
I0
sg23
I22
sg24
I0
sbssg25
S'Ag\xdb\r\x7f\xe7\xa8rK,h8\xcb\xb8yQ'
p333
ssS'src_rockstor_storageadmin_views_rockon_json'
p334
(dp335
g6
(dp336
g8
S'src_rockstor_storageadmin_views_rockon_json.html'
p337
sg10
S'src/rockstor/storageadmin/views/rockon_json'
p338
sg12
g13
(g14
g15
NtRp339
(dp340
g18
I1
sg19
I0
sg20
I10
sg21
I0
sg22
I0
sg23
I10
sg24
I0
sbssg25
S'\xdb&\x14\xd7\x1cP\x82\xa2\x10\xd3TM\r\xa9TP'
p341
ssS'src_rockstor_storageadmin_views_home'
p342
(dp343
g6
(dp344
g8
S'src_rockstor_storageadmin_views_home.html'
p345
sg10
S'src/rockstor/storageadmin/views/home'
p346
sg12
g13
(g14
g15
NtRp347
(dp348
g18
I1
sg19
I0
sg20
I36
sg21
I0
sg22
I0
sg23
I24
sg24
I0
sbssg25
S'\xff\xed\xfb\x960(\x82Q\x9dp\xcd\x1a{o\x8d\x0f'
p349
sssS'version'
p350
S'3.7.1'
p351
sS'settings'
p352
S'\xe6\xc5s\x1b\x94C\xf1\xcf\x9e\xf8\xb0S\xac18\xb6'
p353
sS'format'
p354
I1
s.