(dp1
S'files'
p2
(dp3
S'src_rockstor_storageadmin_views_rockon_id'
p4
(dp5
S'index'
p6
(dp7
S'html_filename'
p8
S'src_rockstor_storageadmin_views_rockon_id.html'
p9
sS'name'
p10
S'src/rockstor/storageadmin/views/rockon_id'
p11
sS'nums'
p12
ccopy_reg
_reconstructor
p13
(ccoverage.results
Numbers
p14
c__builtin__
object
p15
NtRp16
(dp17
S'n_files'
p18
I1
sS'n_branches'
p19
I0
sS'n_statements'
p20
I142
sS'n_excluded'
p21
I0
sS'n_partial_branches'
p22
I0
sS'n_missing'
p23
I125
sS'n_missing_branches'
p24
I0
sbssS'hash'
p25
S'Q*\x06\xf1;yM\xf1\x8e\x89\xe6\xed\xd31\x14{'
p26
ssS'src_rockstor_storageadmin_views___init__'
p27
(dp28
g6
(dp29
g8
S'src_rockstor_storageadmin_views___init__.html'
p30
sg10
S'src/rockstor/storageadmin/views/__init__'
p31
sg12
g13
(g14
g15
NtRp32
(dp33
g18
I1
sg19
I0
sg20
I33
sg21
I0
sg22
I0
sg23
I0
sg24
I0
sbssg25
S'\xd2Rn\xa1;\x08d4\x85a6\x82\x16\x80\x97\xa4'
p34
ssS'src_rockstor_storageadmin_views_ug_helpers'
p35
(dp36
g6
(dp37
g8
S'src_rockstor_storageadmin_views_ug_helpers.html'
p38
sg10
S'src/rockstor/storageadmin/views/ug_helpers'
p39
sg12
g13
(g14
g15
NtRp40
(dp41
g18
I1
sg19
I0
sg20
I63
sg21
I0
sg22
I0
sg23
I31
sg24
I0
sbssg25
S'\x19B~k\xfb\xa4\xefXr!\x99\xae\\\xfd\x9bu'
p42
ssS'src_rockstor_storageadmin_views_command'
p43
(dp44
g6
(dp45
g8
S'src_rockstor_storageadmin_views_command.html'
p46
sg10
S'src/rockstor/storageadmin/views/command'
p47
sg12
g13
(g14
g15
NtRp48
(dp49
g18
I1
sg19
I0
sg20
I190
sg21
I0
sg22
I0
sg23
I79
sg24
I0
sbssg25
S'\xff\x0b\x9e\x1e\xea$k\xd7\xb8\xe6\x8dgB\xa0\xf8\xdd'
p50
ssS'src_rockstor_storageadmin_views_rockon_utils'
p51
(dp52
S'index'
p53
(dp54
S'html_filename'
p55
S'src_rockstor_storageadmin_views_rockon_utils.html'
p56
sS'name'
p57
S'src/rockstor/storageadmin/views/rockon_utils'
p58
sS'nums'
p59
g13
(g14
g15
NtRp60
(dp61
g18
I1
sg19
I0
sg20
I25
sg21
I0
sg22
I0
sg23
I20
sg24
I0
sbssS'hash'
p62
S"\xbd\x9b\xf2\xa2\x13\xaa\xec')\xd0&\xb4\xe3\x8d\xaa="
p63
ssS'src_rockstor_storageadmin_views_tls_certificate'
p64
(dp65
g6
(dp66
g8
S'src_rockstor_storageadmin_views_tls_certificate.html'
p67
sg10
S'src/rockstor/storageadmin/views/tls_certificate'
p68
sg12
g13
(g14
g15
NtRp69
(dp70
g18
I1
sg19
I0
sg20
I53
sg21
I0
sg22
I0
sg23
I16
sg24
I0
sbssg25
S'\xf5\x9f\x80&\xaa\xba\xe5=\x8b\xdb\xab\x1b\x99\x84\xa9\xbe'
p71
ssS'src_rockstor_storageadmin_views_oauth_app'
p72
(dp73
g6
(dp74
g8
S'src_rockstor_storageadmin_views_oauth_app.html'
p75
sg10
S'src/rockstor/storageadmin/views/oauth_app'
p76
sg12
g13
(g14
g15
NtRp77
(dp78
g18
I1
sg19
I0
sg20
I51
sg21
I0
sg22
I0
sg23
I13
sg24
I0
sbssg25
S'l\x08f\xfe\xec+[\xaff\xbfp\x13q\xdbQ\xcc'
p79
ssS'src_rockstor_storageadmin_views_netatalk'
p80
(dp81
g6
(dp82
g8
S'src_rockstor_storageadmin_views_netatalk.html'
p83
sg10
S'src/rockstor/storageadmin/views/netatalk'
p84
sg12
g13
(g14
g15
NtRp85
(dp86
g18
I1
sg19
I0
sg20
I93
sg21
I0
sg22
I0
sg23
I13
sg24
I0
sbssg25
S'vH\xe2\xee\xf2$\x02`\xc5N\x84\xfa\x8f\x81\x84k'
p87
ssS'src_rockstor_storageadmin_views_nfs_exports'
p88
(dp89
g6
(dp90
g8
S'src_rockstor_storageadmin_views_nfs_exports.html'
p91
sg10
S'src/rockstor/storageadmin/views/nfs_exports'
p92
sg12
g13
(g14
g15
NtRp93
(dp94
g18
I1
sg19
I0
sg20
I216
sg21
I0
sg22
I0
sg23
I5
sg24
I0
sbssg25
S'\xa9\xb0:\xd6\xfb\xc4r\x84\xd5\xb1\xba\xde\xccx\xdd\x9f'
p95
ssS'src_rockstor_storageadmin_views_rockon_json'
p96
(dp97
g6
(dp98
g8
S'src_rockstor_storageadmin_views_rockon_json.html'
p99
sg10
S'src/rockstor/storageadmin/views/rockon_json'
p100
sg12
g13
(g14
g15
NtRp101
(dp102
g18
I1
sg19
I0
sg20
I10
sg21
I0
sg22
I0
sg23
I10
sg24
I0
sbssg25
S'\xdb&\x14\xd7\x1cP\x82\xa2\x10\xd3TM\r\xa9TP'
p103
ssS'src_rockstor_storageadmin_views_snapshot'
p104
(dp105
g6
(dp106
g8
S'src_rockstor_storageadmin_views_snapshot.html'
p107
sg10
S'src/rockstor/storageadmin/views/snapshot'
p108
sg12
g13
(g14
g15
NtRp109
(dp110
g18
I1
sg19
I0
sg20
I155
sg21
I0
sg22
I0
sg23
I37
sg24
I0
sbssg25
S'O\xf5m;\xd0.\xaa\x15\x9d\xf0pI]\xb2CY'
p111
ssS'src_rockstor_storageadmin_views_user'
p112
(dp113
g6
(dp114
g8
S'src_rockstor_storageadmin_views_user.html'
p115
sg10
S'src/rockstor/storageadmin/views/user'
p116
sg12
g13
(g14
g15
NtRp117
(dp118
g18
I1
sg19
I0
sg20
I214
sg21
I0
sg22
I0
sg23
I15
sg24
I0
sbssg25
S'\x7f\x87\xcf\xf6\x84\xd2\xdf\xfb\xb8\xcf~\xb8z[\xf0\xdb'
p119
ssS'src_rockstor_storageadmin_views_views'
p120
(dp121
g6
(dp122
g8
S'src_rockstor_storageadmin_views_views.html'
p123
sg10
S'src/rockstor/storageadmin/views/views'
p124
sg12
g13
(g14
g15
NtRp125
(dp126
g18
I1
sg19
I0
sg20
I0
sg21
I0
sg22
I0
sg23
I0
sg24
I0
sbssg25
S'{\xd99q\x98)\xfekT\xb8H7M\x1c\x94\xba'
p127
ssS'src_rockstor_storageadmin_views_rockon_helpers'
p128
(dp129
g6
(dp130
g55
S'src_rockstor_storageadmin_views_rockon_helpers.html'
p131
sg57
S'src/rockstor/storageadmin/views/rockon_helpers'
p132
sg59
g13
(g14
g15
NtRp133
(dp134
g18
I1
sg19
I0
sg20
I182
sg21
I0
sg22
I0
sg23
I140
sg24
I0
sbssg25
S'H\x8e\xccf=\x1fQ\xe2\xa6\xc1\xc5!o\xb0\x91\x1f'
p135
ssS'src_rockstor_storageadmin_views_clone_helpers'
p136
(dp137
g6
(dp138
g8
S'src_rockstor_storageadmin_views_clone_helpers.html'
p139
sg10
S'src/rockstor/storageadmin/views/clone_helpers'
p140
sg12
g13
(g14
g15
NtRp141
(dp142
g18
I1
sg19
I0
sg20
I31
sg21
I0
sg22
I0
sg23
I23
sg24
I0
sbssg25
S'\x07\x18\x1d\x01\x19s\xd9\x9f/\xe5\xe9\xb4P\x80\xd2m'
p143
ssS'src_rockstor_storageadmin_views_disk'
p144
(dp145
g6
(dp146
g8
S'src_rockstor_storageadmin_views_disk.html'
p147
sg10
S'src/rockstor/storageadmin/views/disk'
p148
sg12
g13
(g14
g15
NtRp149
(dp150
g18
I1
sg19
I0
sg20
I185
sg21
I0
sg22
I0
sg23
I81
sg24
I0
sbssg25
S'\x11J&b\x949\xfb\xa7\xed\x12l9\xc9MP\x07'
p151
ssS'src_rockstor_storageadmin_views_setup_user'
p152
(dp153
g6
(dp154
g8
S'src_rockstor_storageadmin_views_setup_user.html'
p155
sg10
S'src/rockstor/storageadmin/views/setup_user'
p156
sg12
g13
(g14
g15
NtRp157
(dp158
g18
I1
sg19
I0
sg20
I32
sg21
I0
sg22
I0
sg23
I20
sg24
I0
sbssg25
S'\xec\x94\x84\x1a\x9aM2\xb5p\xca\xa2\x96\x95\x1cq\n'
p159
ssS'src_rockstor_storageadmin_views_update_subscription'
p160
(dp161
g6
(dp162
g8
S'src_rockstor_storageadmin_views_update_subscription.html'
p163
sg10
S'src/rockstor/storageadmin/views/update_subscription'
p164
sg12
g13
(g14
g15
NtRp165
(dp166
g18
I1
sg19
I0
sg20
I67
sg21
I0
sg22
I0
sg23
I36
sg24
I0
sbssg25
S'xL"\xd3m\xf2\xbe\x9c\x0e\xe1\xff\x81\x0e\xf5\xe1\xb4'
p167
ssS'src_rockstor_storageadmin_views_pool_balance'
p168
(dp169
g6
(dp170
g8
S'src_rockstor_storageadmin_views_pool_balance.html'
p171
sg10
S'src/rockstor/storageadmin/views/pool_balance'
p172
sg12
g13
(g14
g15
NtRp173
(dp174
g18
I1
sg19
I0
sg20
I67
sg21
I0
sg22
I0
sg23
I23
sg24
I0
sbssg25
S'\x91\x9a\xb2\xb5!\x1f\x05\x8f\xd9\x11w3\x1c\x11$\xb2'
p175
ssS'src_rockstor_storageadmin_views_rockon_volume'
p176
(dp177
g6
(dp178
g8
S'src_rockstor_storageadmin_views_rockon_volume.html'
p179
sg10
S'src/rockstor/storageadmin/views/rockon_volume'
p180
sg12
g13
(g14
g15
NtRp181
(dp182
g18
I1
sg19
I0
sg20
I14
sg21
I0
sg22
I0
sg23
I7
sg24
I0
sbssg25
S'\x83:\x8e\x86\xe0\x89\x8e-#\xaa}Hs\xf3N\x04'
p183
ssS'src_rockstor_storageadmin_views_pool_scrub'
p184
(dp185
g6
(dp186
g8
S'src_rockstor_storageadmin_views_pool_scrub.html'
p187
sg10
S'src/rockstor/storageadmin/views/pool_scrub'
p188
sg12
g13
(g14
g15
NtRp189
(dp190
g18
I1
sg19
I0
sg20
I58
sg21
I0
sg22
I0
sg23
I6
sg24
I0
sbssg25
S'\xc3\xb6Af\x03\x0e\xbf\xf8R\x0b\xa9\xab\xc3\x1aw\xd2'
p191
ssS'src_rockstor_storageadmin_views_rockon'
p192
(dp193
g6
(dp194
g55
S'src_rockstor_storageadmin_views_rockon.html'
p195
sg57
S'src/rockstor/storageadmin/views/rockon'
p196
sg59
g13
(g14
g15
NtRp197
(dp198
g18
I1
sg19
I0
sg20
I228
sg21
I0
sg22
I0
sg23
I204
sg24
I0
sbssg25
S'\xafX\xe2\xa6\xbe\x1f=*5"\xfc\xcb\x04\x9e?\xab'
p199
ssS'src_rockstor_storageadmin_views_sftp'
p200
(dp201
g6
(dp202
g8
S'src_rockstor_storageadmin_views_sftp.html'
p203
sg10
S'src/rockstor/storageadmin/views/sftp'
p204
sg12
g13
(g14
g15
NtRp205
(dp206
g18
I1
sg19
I0
sg20
I79
sg21
I0
sg22
I0
sg23
I13
sg24
I0
sbssg25
S'u\xbf\xb7\xcf\xa9\xff\x88m\xfd\xa5\xf2>\xd4\xf4\x19\xb4'
p207
ssS'src_rockstor_storageadmin_views_pool'
p208
(dp209
g6
(dp210
g8
S'src_rockstor_storageadmin_views_pool.html'
p211
sg10
S'src/rockstor/storageadmin/views/pool'
p212
sg12
g13
(g14
g15
NtRp213
(dp214
g18
I1
sg19
I0
sg20
I294
sg21
I0
sg22
I0
sg23
I32
sg24
I0
sbssg25
S'N^\xa7\xc1\xce\xc0\x92\x1d\xefP\xbf\xe7\x90\x118\x83'
p215
ssS'src_rockstor_storageadmin_views_network'
p216
(dp217
g6
(dp218
g8
S'src_rockstor_storageadmin_views_network.html'
p219
sg10
S'src/rockstor/storageadmin/views/network'
p220
sg12
g13
(g14
g15
NtRp221
(dp222
g18
I1
sg19
I0
sg20
I156
sg21
I0
sg22
I0
sg23
I32
sg24
I0
sbssg25
S'\xf7\x94\xab\xe2(\xf0\xef\x05\xde\xdbd\xc9gD\xedr'
p223
ssS'src_rockstor_storageadmin_views_email_client'
p224
(dp225
g6
(dp226
g8
S'src_rockstor_storageadmin_views_email_client.html'
p227
sg10
S'src/rockstor/storageadmin/views/email_client'
p228
sg12
g13
(g14
g15
NtRp229
(dp230
g18
I1
sg19
I0
sg20
I109
sg21
I0
sg22
I0
sg23
I44
sg24
I0
sbssg25
S'\x94\x8cg\x81\xc7\x1a\x12\x7f\x82&\xa7C\xabm\xd81'
p231
ssS'src_rockstor_storageadmin_views_disk_smart'
p232
(dp233
g6
(dp234
g8
S'src_rockstor_storageadmin_views_disk_smart.html'
p235
sg10
S'src/rockstor/storageadmin/views/disk_smart'
p236
sg12
g13
(g14
g15
NtRp237
(dp238
g18
I1
sg19
I0
sg20
I86
sg21
I0
sg22
I0
sg23
I46
sg24
I0
sbssg25
S'Z\xbd\xacu\x9eG|\x95\x017\xaa\r\xd1\xabL\xb1'
p239
ssS'src_rockstor_storageadmin_views_share_helpers'
p240
(dp241
g6
(dp242
g8
S'src_rockstor_storageadmin_views_share_helpers.html'
p243
sg10
S'src/rockstor/storageadmin/views/share_helpers'
p244
sg12
g13
(g14
g15
NtRp245
(dp246
g18
I1
sg19
I0
sg20
I106
sg21
I0
sg22
I0
sg23
I86
sg24
I0
sbssg25
S'qc\xdaM\x02\x06\xea:\xe2\xb46\xa9\x0f\xb6\x0c\xdc'
p247
ssS'src_rockstor_storageadmin_views_rockon_custom_config'
p248
(dp249
g6
(dp250
g55
S'src_rockstor_storageadmin_views_rockon_custom_config.html'
p251
sg57
S'src/rockstor/storageadmin/views/rockon_custom_config'
p252
sg59
g13
(g14
g15
NtRp253
(dp254
g18
I1
sg19
I0
sg20
I13
sg21
I0
sg22
I0
sg23
I6
sg24
I0
sbssg25
S'\x89e\x0f\xa0\xdb\x8b$\x9bzVpm8r\x06\t'
p255
ssS'src_rockstor_storageadmin_views_rockon_port'
p256
(dp257
g6
(dp258
g8
S'src_rockstor_storageadmin_views_rockon_port.html'
p259
sg10
S'src/rockstor/storageadmin/views/rockon_port'
p260
sg12
g13
(g14
g15
NtRp261
(dp262
g18
I1
sg19
I0
sg20
I14
sg21
I0
sg22
I0
sg23
I7
sg24
I0
sbssg25
S'\xc8\xe4\xd9fY\x7f?\xad\xa7\xbc\x1c\r\xf1\x11\xd5c'
p263
ssS'src_rockstor_storageadmin_views_login'
p264
(dp265
g6
(dp266
g8
S'src_rockstor_storageadmin_views_login.html'
p267
sg10
S'src/rockstor/storageadmin/views/login'
p268
sg12
g13
(g14
g15
NtRp269
(dp270
g18
I1
sg19
I0
sg20
I19
sg21
I0
sg22
I0
sg23
I2
sg24
I0
sbssg25
S'w\xe0UfT\x8d\x89\xe8XlG\xed\xa4\xb9\x97,'
p271
ssS'src_rockstor_storageadmin_views_appliances'
p272
(dp273
g6
(dp274
g8
S'src_rockstor_storageadmin_views_appliances.html'
p275
sg10
S'src/rockstor/storageadmin/views/appliances'
p276
sg12
g13
(g14
g15
NtRp277
(dp278
g18
I1
sg19
I0
sg20
I105
sg21
I0
sg22
I0
sg23
I34
sg24
I0
sbssg25
S'q\xb3R\xb6;\x98\xde\xd1\xcd\x01W\x13\x01\xf6\x13\xcd'
p279
ssS'src_rockstor_storageadmin_views_share'
p280
(dp281
g6
(dp282
g8
S'src_rockstor_storageadmin_views_share.html'
p283
sg10
S'src/rockstor/storageadmin/views/share'
p284
sg12
g13
(g14
g15
NtRp285
(dp286
g18
I1
sg19
I0
sg20
I175
sg21
I0
sg22
I0
sg23
I9
sg24
I0
sbssg25
S'o;\xb2\xe5\xff\xaf[r\x03\x83A\xc1-@\x1e\xed'
p287
ssS'src_rockstor_storageadmin_views_samba'
p288
(dp289
g6
(dp290
g8
S'src_rockstor_storageadmin_views_samba.html'
p291
sg10
S'src/rockstor/storageadmin/views/samba'
p292
sg12
g13
(g14
g15
NtRp293
(dp294
g18
I1
sg19
I0
sg20
I153
sg21
I0
sg22
I0
sg23
I5
sg24
I0
sbssg25
S'E\x913NM\xfb\x01\xfd\x1a\xa8i\xbc\x03\x89\x0e3'
p295
ssS'src_rockstor_storageadmin_views_config_backup'
p296
(dp297
g6
(dp298
g8
S'src_rockstor_storageadmin_views_config_backup.html'
p299
sg10
S'src/rockstor/storageadmin/views/config_backup'
p300
sg12
g13
(g14
g15
NtRp301
(dp302
g18
I1
sg19
I0
sg20
I206
sg21
I0
sg22
I0
sg23
I121
sg24
I0
sbssg25
S'\xef$@\x01\xc0\xcc\xe8]\xaa\x80?$\xc5\xc3\x0f5'
p303
ssS'src_rockstor_storageadmin_views_group'
p304
(dp305
g6
(dp306
g8
S'src_rockstor_storageadmin_views_group.html'
p307
sg10
S'src/rockstor/storageadmin/views/group'
p308
sg12
g13
(g14
g15
NtRp309
(dp310
g18
I1
sg19
I0
sg20
I72
sg21
I0
sg22
I0
sg23
I7
sg24
I0
sbssg25
S'\xf1\x1e}+]\x15.\xb4\xffm}\xef\xe8;Y\x04'
p311
ssS'src_rockstor_storageadmin_views_share_command'
p312
(dp313
g6
(dp314
g8
S'src_rockstor_storageadmin_views_share_command.html'
p315
sg10
S'src/rockstor/storageadmin/views/share_command'
p316
sg12
g13
(g14
g15
NtRp317
(dp318
g18
I1
sg19
I0
sg20
I49
sg21
I0
sg22
I0
sg23
I0
sg24
I0
sbssg25
S'\xb2)\x13\xb7*q\x1e\xc5EN\x86\xc9D\xa8~v'
p319
ssS'src_rockstor_storageadmin_views_share_acl'
p320
(dp321
g6
(dp322
g8
S'src_rockstor_storageadmin_views_share_acl.html'
p323
sg10
S'src/rockstor/storageadmin/views/share_acl'
p324
sg12
g13
(g14
g15
NtRp325
(dp326
g18
I1
sg19
I0
sg20
I34
sg21
I0
sg22
I0
sg23
I4
sg24
I0
sbssg25
S'\xc4>\x1a\xbeq\x00Id\xf8\x17\x04V\xe5e\xed:'
p327
ssS'src_rockstor_storageadmin_views_dashboardconfig'
p328
(dp329
g6
(dp330
g8
S'src_rockstor_storageadmin_views_dashboardconfig.html'
p331
sg10
S'src/rockstor/storageadmin/views/dashboardconfig'
p332
sg12
g13
(g14
g15
NtRp333
(dp334
g18
I1
sg19
I0
sg20
I54
sg21
I0
sg22
I0
sg23
I12
sg24
I0
sbssg25
S"\xeb\xca%\xbfhE\xdc\xef\x18<\x7fP\xd7]'\xa9"
p335
ssS'src_rockstor_storageadmin_views_rockon_discourse'
p336
(dp337
g53
(dp338
g55
S'src_rockstor_storageadmin_views_rockon_discourse.html'
p339
sg57
S'src/rockstor/storageadmin/views/rockon_discourse'
p340
sg59
g13
(g14
g15
NtRp341
(dp342
g18
I1
sg19
I0
sg20
I73
sg21
I0
sg22
I0
sg23
I56
sg24
I0
sbssg62
S'\x9cJ\xcdF\xef\xfd\x8c\xf8Sb@\xff\x83b\xf0`'
p343
ssS'src_rockstor_storageadmin_views_home'
p344
(dp345
g6
(dp346
g8
S'src_rockstor_storageadmin_views_home.html'
p347
sg10
S'src/rockstor/storageadmin/views/home'
p348
sg12
g13
(g14
g15
NtRp349
(dp350
g18
I1
sg19
I0
sg20
I36
sg21
I0
sg22
I0
sg23
I24
sg24
I0
sbssg25
S'\x0b\x8c\xa5KzED\xa8\xda\t@\x8a\xf7\xab\x01\xd5'
p351
sssS'version'
p352
S'3.7.1'
p353
sS'settings'
p354
S'\xa2\x86\xcc\xad1,\x8f\xab;\xf6\x0b\x9d\x1b\xf8\x1d.'
p355
sS'format'
p356
I1
s.