(dp1
S'files'
p2
(dp3
S'src_rockstor_storageadmin_views_rockon_id'
p4
(dp5
S'index'
p6
(dp7
S'html_filename'
p8
S'src_rockstor_storageadmin_views_rockon_id.html'
p9
sS'name'
p10
S'src/rockstor/storageadmin/views/rockon_id'
p11
sS'nums'
p12
ccopy_reg
_reconstructor
p13
(ccoverage.results
Numbers
p14
c__builtin__
object
p15
NtRp16
(dp17
S'n_files'
p18
I1
sS'n_branches'
p19
I0
sS'n_statements'
p20
I148
sS'n_excluded'
p21
I0
sS'n_partial_branches'
p22
I0
sS'n_missing'
p23
I131
sS'n_missing_branches'
p24
I0
sbssS'hash'
p25
S"@\xab'\x8cbGt\x101\x06U\xe6z\xebJ_"
p26
ssS'src_rockstor_storageadmin_views___init__'
p27
(dp28
g6
(dp29
g8
S'src_rockstor_storageadmin_views___init__.html'
p30
sg10
S'src/rockstor/storageadmin/views/__init__'
p31
sg12
g13
(g14
g15
NtRp32
(dp33
g18
I1
sg19
I0
sg20
I34
sg21
I0
sg22
I0
sg23
I0
sg24
I0
sbssg25
S'5\x14\xe8\xa86\xffo\x13S\xfdH\xcf\xe1\xf4\x85\xba'
p34
ssS'src_rockstor_storageadmin_views_ug_helpers'
p35
(dp36
g6
(dp37
g8
S'src_rockstor_storageadmin_views_ug_helpers.html'
p38
sg10
S'src/rockstor/storageadmin/views/ug_helpers'
p39
sg12
g13
(g14
g15
NtRp40
(dp41
g18
I1
sg19
I0
sg20
I61
sg21
I0
sg22
I0
sg23
I33
sg24
I0
sbssg25
S'E\x9f{\x89\x1f%\xe2\xd1_!vq\xec\xd7F='
p42
ssS'src_rockstor_storageadmin_views_adv_nfs_exports'
p43
(dp44
g6
(dp45
g8
S'src_rockstor_storageadmin_views_adv_nfs_exports.html'
p46
sg10
S'src/rockstor/storageadmin/views/adv_nfs_exports'
p47
sg12
g13
(g14
g15
NtRp48
(dp49
g18
I1
sg19
I0
sg20
I45
sg21
I0
sg22
I0
sg23
I32
sg24
I0
sbssg25
S'7\xe6\xbc\xce\xb4\xe1\xc6\xeb\r\xfe\x9f`\xfc\xbbe\x7f'
p50
ssS'src_rockstor_storageadmin_views_rockon_helpers'
p51
(dp52
g6
(dp53
g8
S'src_rockstor_storageadmin_views_rockon_helpers.html'
p54
sg10
S'src/rockstor/storageadmin/views/rockon_helpers'
p55
sg12
g13
(g14
g15
NtRp56
(dp57
g18
I1
sg19
I0
sg20
I195
sg21
I0
sg22
I0
sg23
I170
sg24
I0
sbssg25
S'\xfb\xe3\xb0\xd0]v5\xba/c\xe53\\\xd02\xeb'
p58
ssS'src_rockstor_storageadmin_views_tls_certificate'
p59
(dp60
g6
(dp61
g8
S'src_rockstor_storageadmin_views_tls_certificate.html'
p62
sg10
S'src/rockstor/storageadmin/views/tls_certificate'
p63
sg12
g13
(g14
g15
NtRp64
(dp65
g18
I1
sg19
I0
sg20
I53
sg21
I0
sg22
I0
sg23
I35
sg24
I0
sbssg25
S'\xa8\x16s \x96\xe9\x9b\xb5\xbd\xa9_9X\xbc\xd3C'
p66
ssS'src_rockstor_storageadmin_views_oauth_app'
p67
(dp68
g6
(dp69
g8
S'src_rockstor_storageadmin_views_oauth_app.html'
p70
sg10
S'src/rockstor/storageadmin/views/oauth_app'
p71
sg12
g13
(g14
g15
NtRp72
(dp73
g18
I1
sg19
I0
sg20
I47
sg21
I0
sg22
I0
sg23
I34
sg24
I0
sbssg25
S'\te\xa1#\x04\xe9;\xf7\x05\xaf\xea\xcc\x13*7S'
p74
ssS'src_rockstor_storageadmin_views_netatalk'
p75
(dp76
g6
(dp77
g8
S'src_rockstor_storageadmin_views_netatalk.html'
p78
sg10
S'src/rockstor/storageadmin/views/netatalk'
p79
sg12
g13
(g14
g15
NtRp80
(dp81
g18
I1
sg19
I0
sg20
I95
sg21
I0
sg22
I0
sg23
I70
sg24
I0
sbssg25
S'e\xd6\t\xa02J\xc2\xe6d\xd8\t%\xf1\xc5}\xe2'
p82
ssS'src_rockstor_storageadmin_views_clone_helpers'
p83
(dp84
g6
(dp85
g8
S'src_rockstor_storageadmin_views_clone_helpers.html'
p86
sg10
S'src/rockstor/storageadmin/views/clone_helpers'
p87
sg12
g13
(g14
g15
NtRp88
(dp89
g18
I1
sg19
I0
sg20
I32
sg21
I0
sg22
I0
sg23
I24
sg24
I0
sbssg25
S'\x80\x18|U\xe2\xa5\x999\xef\xb8G\xc2\xbf\xe2\x0c\x88'
p90
ssS'src_rockstor_storageadmin_views_share_command'
p91
(dp92
g6
(dp93
g8
S'src_rockstor_storageadmin_views_share_command.html'
p94
sg10
S'src/rockstor/storageadmin/views/share_command'
p95
sg12
g13
(g14
g15
NtRp96
(dp97
g18
I1
sg19
I0
sg20
I50
sg21
I0
sg22
I0
sg23
I0
sg24
I0
sbssg25
S'\x19;\xce\xa0x\xcc\xa6\x9cm\x8c\x0c\x0bh\x15\xed/'
p98
ssS'src_rockstor_storageadmin_views_serializers'
p99
(dp100
g6
(dp101
g8
S'src_rockstor_storageadmin_views_serializers.html'
p102
sg10
S'src/rockstor/storageadmin/views/serializers'
p103
sg12
g13
(g14
g15
NtRp104
(dp105
g18
I1
sg19
I0
sg20
I8
sg21
I0
sg22
I0
sg23
I8
sg24
I0
sbssg25
S'B\x91_\xf9\x1d\x8bsBs\xff\xce\xc0\x83[cn'
p106
ssS'src_rockstor_storageadmin_views_pool_import'
p107
(dp108
g6
(dp109
g8
S'src_rockstor_storageadmin_views_pool_import.html'
p110
sg10
S'src/rockstor/storageadmin/views/pool_import'
p111
sg12
g13
(g14
g15
NtRp112
(dp113
g18
I1
sg19
I0
sg20
I70
sg21
I0
sg22
I0
sg23
I70
sg24
I0
sbssg25
S'\x91\xaa\x7f2\xef\xcb\xf3M\xec\xacoM%C\x12\xda'
p114
ssS'src_rockstor_storageadmin_views_snapshot'
p115
(dp116
g6
(dp117
g8
S'src_rockstor_storageadmin_views_snapshot.html'
p118
sg10
S'src/rockstor/storageadmin/views/snapshot'
p119
sg12
g13
(g14
g15
NtRp120
(dp121
g18
I1
sg19
I0
sg20
I185
sg21
I0
sg22
I0
sg23
I156
sg24
I0
sbssg25
S'\xd2t\xe9raL5\xe8\xe0\x80A\xdedE\x82x'
p122
ssS'src_rockstor_storageadmin_views_views'
p123
(dp124
g6
(dp125
g8
S'src_rockstor_storageadmin_views_views.html'
p126
sg10
S'src/rockstor/storageadmin/views/views'
p127
sg12
g13
(g14
g15
NtRp128
(dp129
g18
I1
sg19
I0
sg20
I0
sg21
I0
sg22
I0
sg23
I0
sg24
I0
sbssg25
S'{\xd99q\x98)\xfekT\xb8H7M\x1c\x94\xba'
p130
ssS'src_rockstor_storageadmin_views_nfs_exports'
p131
(dp132
g6
(dp133
g8
S'src_rockstor_storageadmin_views_nfs_exports.html'
p134
sg10
S'src/rockstor/storageadmin/views/nfs_exports'
p135
sg12
g13
(g14
g15
NtRp136
(dp137
g18
I1
sg19
I0
sg20
I108
sg21
I0
sg22
I0
sg23
I87
sg24
I0
sbssg25
S'\xa5\x04\x8e\x19\xc1\xd7\xfc\x18\x85\xcf\xae\xea\x15\xcc8}'
p138
ssS'src_rockstor_storageadmin_views_disk_smart'
p139
(dp140
g6
(dp141
g8
S'src_rockstor_storageadmin_views_disk_smart.html'
p142
sg10
S'src/rockstor/storageadmin/views/disk_smart'
p143
sg12
g13
(g14
g15
NtRp144
(dp145
g18
I1
sg19
I0
sg20
I86
sg21
I0
sg22
I0
sg23
I64
sg24
I0
sbssg25
S'_\xbe\x00\xa6\xb4Z1\x1c:\x12J\xd8\x05\xa6\xf0&'
p146
ssS'src_rockstor_storageadmin_views_setup_user'
p147
(dp148
g6
(dp149
g8
S'src_rockstor_storageadmin_views_setup_user.html'
p150
sg10
S'src/rockstor/storageadmin/views/setup_user'
p151
sg12
g13
(g14
g15
NtRp152
(dp153
g18
I1
sg19
I0
sg20
I32
sg21
I0
sg22
I0
sg23
I20
sg24
I0
sbssg25
S'\xec\x94\x84\x1a\x9aM2\xb5p\xca\xa2\x96\x95\x1cq\n'
p154
ssS'src_rockstor_storageadmin_views_share_iscsi'
p155
(dp156
g6
(dp157
g8
S'src_rockstor_storageadmin_views_share_iscsi.html'
p158
sg10
S'src/rockstor/storageadmin/views/share_iscsi'
p159
sg12
g13
(g14
g15
NtRp160
(dp161
g18
I1
sg19
I0
sg20
I59
sg21
I0
sg22
I0
sg23
I43
sg24
I0
sbssg25
S'0\x04\xd3SN\x0c\xa6\x96\xadx^\xa1\xaa\xd8 \x0b'
p162
ssS'src_rockstor_storageadmin_views_pool_balance'
p163
(dp164
g6
(dp165
g8
S'src_rockstor_storageadmin_views_pool_balance.html'
p166
sg10
S'src/rockstor/storageadmin/views/pool_balance'
p167
sg12
g13
(g14
g15
NtRp168
(dp169
g18
I1
sg19
I0
sg20
I56
sg21
I0
sg22
I0
sg23
I39
sg24
I0
sbssg25
S'\x07\x17\x19.?\x9aP=[\xe8\xad\x88\x8a\xc7\xfeB'
p170
ssS'src_rockstor_storageadmin_views_pool'
p171
(dp172
g6
(dp173
g8
S'src_rockstor_storageadmin_views_pool.html'
p174
sg10
S'src/rockstor/storageadmin/views/pool'
p175
sg12
g13
(g14
g15
NtRp176
(dp177
g18
I1
sg19
I0
sg20
I291
sg21
I0
sg22
I0
sg23
I57
sg24
I0
sbssg25
S'1\xbeQ2\\{\x19Sd\xc8R_\x1e\xd0\x95,'
p178
ssS'src_rockstor_storageadmin_views_pool_scrub'
p179
(dp180
g6
(dp181
g8
S'src_rockstor_storageadmin_views_pool_scrub.html'
p182
sg10
S'src/rockstor/storageadmin/views/pool_scrub'
p183
sg12
g13
(g14
g15
NtRp184
(dp185
g18
I1
sg19
I0
sg20
I60
sg21
I0
sg22
I0
sg23
I43
sg24
I0
sbssg25
S'\xfe\xf2\x8c\xe6Q\x0f\x9b\xdd\x00dX|\x003\x87w'
p186
ssS'src_rockstor_storageadmin_views_rockon'
p187
(dp188
g6
(dp189
g8
S'src_rockstor_storageadmin_views_rockon.html'
p190
sg10
S'src/rockstor/storageadmin/views/rockon'
p191
sg12
g13
(g14
g15
NtRp192
(dp193
g18
I1
sg19
I0
sg20
I126
sg21
I0
sg22
I0
sg23
I105
sg24
I0
sbssg25
S"\xa0\x08^\xbe\xa2\xa8O\xd9\xb5\xca\x18'\xd6\xa19\xb4"
p194
ssS'src_rockstor_storageadmin_views_sftp'
p195
(dp196
g6
(dp197
g8
S'src_rockstor_storageadmin_views_sftp.html'
p198
sg10
S'src/rockstor/storageadmin/views/sftp'
p199
sg12
g13
(g14
g15
NtRp200
(dp201
g18
I1
sg19
I0
sg20
I79
sg21
I0
sg22
I0
sg23
I58
sg24
I0
sbssg25
S'\xb9\xf7gA\x0f\x0b\xa9\xe0\xf5\x89\xa2\xf0V\xde\x82\xf6'
p202
ssS'src_rockstor_storageadmin_views_rockon_volume'
p203
(dp204
g6
(dp205
g8
S'src_rockstor_storageadmin_views_rockon_volume.html'
p206
sg10
S'src/rockstor/storageadmin/views/rockon_volume'
p207
sg12
g13
(g14
g15
NtRp208
(dp209
g18
I1
sg19
I0
sg20
I14
sg21
I0
sg22
I0
sg23
I7
sg24
I0
sbssg25
S"b\x81\xfc:\xc84|\xeb1\x9bHb'R\xe8K"
p210
ssS'src_rockstor_storageadmin_views_network'
p211
(dp212
g6
(dp213
g8
S'src_rockstor_storageadmin_views_network.html'
p214
sg10
S'src/rockstor/storageadmin/views/network'
p215
sg12
g13
(g14
g15
NtRp216
(dp217
g18
I1
sg19
I0
sg20
I122
sg21
I0
sg22
I0
sg23
I94
sg24
I0
sbssg25
S'\x15Z\x11"O7Tn\xd4\x95c6\xd2\xac\xef\xd6'
p218
ssS'src_rockstor_storageadmin_views_command'
p219
(dp220
g6
(dp221
g8
S'src_rockstor_storageadmin_views_command.html'
p222
sg10
S'src/rockstor/storageadmin/views/command'
p223
sg12
g13
(g14
g15
NtRp224
(dp225
g18
I1
sg19
I0
sg20
I184
sg21
I0
sg22
I0
sg23
I159
sg24
I0
sbssg25
S'\xb6\xeb\xbe\x8ef%\x87\xd9B\x03\xe9b\\\xa8\x0c-'
p226
ssS'src_rockstor_storageadmin_views_user'
p227
(dp228
g6
(dp229
g8
S'src_rockstor_storageadmin_views_user.html'
p230
sg10
S'src/rockstor/storageadmin/views/user'
p231
sg12
g13
(g14
g15
NtRp232
(dp233
g18
I1
sg19
I0
sg20
I214
sg21
I0
sg22
I0
sg23
I113
sg24
I0
sbssg25
S'\xd6\xa6\x92X9\x87&\xfaZ\xdb\xb5mI,\xfe\xbb'
p234
ssS'src_rockstor_storageadmin_views_support'
p235
(dp236
g6
(dp237
g8
S'src_rockstor_storageadmin_views_support.html'
p238
sg10
S'src/rockstor/storageadmin/views/support'
p239
sg12
g13
(g14
g15
NtRp240
(dp241
g18
I1
sg19
I0
sg20
I74
sg21
I0
sg22
I0
sg23
I49
sg24
I0
sbssg25
S'\xbdKJ\xfd\x10d\xf2\xd6&%\x7f!\x19w\x14\xe2'
p242
ssS'src_rockstor_storageadmin_views_disk'
p243
(dp244
g6
(dp245
g8
S'src_rockstor_storageadmin_views_disk.html'
p246
sg10
S'src/rockstor/storageadmin/views/disk'
p247
sg12
g13
(g14
g15
NtRp248
(dp249
g18
I1
sg19
I0
sg20
I161
sg21
I0
sg22
I0
sg23
I86
sg24
I0
sbssg25
S'\r\xaa\x93\xd5\xe3\xed\xa7\xdc\x94\x06E\x9d\x08\x8aAR'
p250
ssS'src_rockstor_storageadmin_views_share_helpers'
p251
(dp252
g6
(dp253
g8
S'src_rockstor_storageadmin_views_share_helpers.html'
p254
sg10
S'src/rockstor/storageadmin/views/share_helpers'
p255
sg12
g13
(g14
g15
NtRp256
(dp257
g18
I1
sg19
I0
sg20
I35
sg21
I0
sg22
I0
sg23
I25
sg24
I0
sbssg25
S'I\x81\xcfL\xfa\x9a\xf3\x03\xd4/\x0e\xa0/J\xa1{'
p258
ssS'src_rockstor_storageadmin_views_rockon_custom_config'
p259
(dp260
g6
(dp261
g8
S'src_rockstor_storageadmin_views_rockon_custom_config.html'
p262
sg10
S'src/rockstor/storageadmin/views/rockon_custom_config'
p263
sg12
g13
(g14
g15
NtRp264
(dp265
g18
I1
sg19
I0
sg20
I13
sg21
I0
sg22
I0
sg23
I6
sg24
I0
sbssg25
S'r\xd7n\x99\x11GR\xa3\x19v\xd9\x16\xcf\xb1V\xe6'
p266
ssS'src_rockstor_storageadmin_views_share_nfs'
p267
(dp268
g6
(dp269
g8
S'src_rockstor_storageadmin_views_share_nfs.html'
p270
sg10
S'src/rockstor/storageadmin/views/share_nfs'
p271
sg12
g13
(g14
g15
NtRp272
(dp273
g18
I1
sg19
I0
sg20
I81
sg21
I0
sg22
I0
sg23
I61
sg24
I0
sbssg25
S'\x00|\x02fu\x1a\xcbr\xf3\xaco}\xfa\xe5\xc0\xb5'
p274
ssS'src_rockstor_storageadmin_views_rockon_port'
p275
(dp276
g6
(dp277
g8
S'src_rockstor_storageadmin_views_rockon_port.html'
p278
sg10
S'src/rockstor/storageadmin/views/rockon_port'
p279
sg12
g13
(g14
g15
NtRp280
(dp281
g18
I1
sg19
I0
sg20
I14
sg21
I0
sg22
I0
sg23
I7
sg24
I0
sbssg25
S'\xda\xe3\x0f@\xd0sN\x8au\xb5\x9a\x15=\xee(R'
p282
ssS'src_rockstor_storageadmin_views_login'
p283
(dp284
g6
(dp285
g8
S'src_rockstor_storageadmin_views_login.html'
p286
sg10
S'src/rockstor/storageadmin/views/login'
p287
sg12
g13
(g14
g15
NtRp288
(dp289
g18
I1
sg19
I0
sg20
I19
sg21
I0
sg22
I0
sg23
I10
sg24
I0
sbssg25
S'\xaa\x82\x89\x0f\x9c\xecAJX\x02\x7f\xd4H \xa7r'
p290
ssS'src_rockstor_storageadmin_views_appliances'
p291
(dp292
g6
(dp293
g8
S'src_rockstor_storageadmin_views_appliances.html'
p294
sg10
S'src/rockstor/storageadmin/views/appliances'
p295
sg12
g13
(g14
g15
NtRp296
(dp297
g18
I1
sg19
I0
sg20
I114
sg21
I0
sg22
I0
sg23
I90
sg24
I0
sbssg25
S'\t\xf6\x94\xad\x1dZ`v\x9a\x01m\x1e6\xacV\xbb'
p298
ssS'src_rockstor_storageadmin_views_nfs_helpers'
p299
(dp300
g6
(dp301
g8
S'src_rockstor_storageadmin_views_nfs_helpers.html'
p302
sg10
S'src/rockstor/storageadmin/views/nfs_helpers'
p303
sg12
g13
(g14
g15
NtRp304
(dp305
g18
I1
sg19
I0
sg20
I87
sg21
I0
sg22
I0
sg23
I73
sg24
I0
sbssg25
S'\x9c\xa3\x89Z\x91R\xb8u\xeb\x17\\\xce[\xbamR'
p306
ssS'src_rockstor_storageadmin_views_share'
p307
(dp308
g6
(dp309
g8
S'src_rockstor_storageadmin_views_share.html'
p310
sg10
S'src/rockstor/storageadmin/views/share'
p311
sg12
g13
(g14
g15
NtRp312
(dp313
g18
I1
sg19
I0
sg20
I215
sg21
I0
sg22
I0
sg23
I85
sg24
I0
sbssg25
S'\xf3\xe6\x1d\xae\x1d\xb7JZ\x8a\x0c\xfe\t\xd6\xab\x14\x14'
p314
ssS'src_rockstor_storageadmin_views_samba'
p315
(dp316
g6
(dp317
g8
S'src_rockstor_storageadmin_views_samba.html'
p318
sg10
S'src/rockstor/storageadmin/views/samba'
p319
sg12
g13
(g14
g15
NtRp320
(dp321
g18
I1
sg19
I0
sg20
I148
sg21
I0
sg22
I0
sg23
I0
sg24
I0
sbssg25
S'Bc\x92\x1fws7\xads\xfe\xaa>\xa4\x95\xacc'
p322
ssS'src_rockstor_storageadmin_views_group'
p323
(dp324
g6
(dp325
g8
S'src_rockstor_storageadmin_views_group.html'
p326
sg10
S'src/rockstor/storageadmin/views/group'
p327
sg12
g13
(g14
g15
NtRp328
(dp329
g18
I1
sg19
I0
sg20
I71
sg21
I0
sg22
I0
sg23
I24
sg24
I0
sbssg25
S'`\x98\n#\x8d\x0b_\xfd\x99]Egi\xb2\x83\xb3'
p330
ssS'src_rockstor_storageadmin_views_share_acl'
p331
(dp332
g6
(dp333
g8
S'src_rockstor_storageadmin_views_share_acl.html'
p334
sg10
S'src/rockstor/storageadmin/views/share_acl'
p335
sg12
g13
(g14
g15
NtRp336
(dp337
g18
I1
sg19
I0
sg20
I35
sg21
I0
sg22
I0
sg23
I23
sg24
I0
sbssg25
S'\xaa\xa4I\xa2\xfd!W\xc4\xc9\xdfc\x9cRX4\x89'
p338
ssS'src_rockstor_storageadmin_views_dashboardconfig'
p339
(dp340
g6
(dp341
g8
S'src_rockstor_storageadmin_views_dashboardconfig.html'
p342
sg10
S'src/rockstor/storageadmin/views/dashboardconfig'
p343
sg12
g13
(g14
g15
NtRp344
(dp345
g18
I1
sg19
I0
sg20
I54
sg21
I0
sg22
I0
sg23
I35
sg24
I0
sbssg25
S'*\x0c\xc7l\x84t\xd59R\xb1\x0b\xe7Fsk\xd7'
p346
ssS'src_rockstor_storageadmin_views_home'
p347
(dp348
g6
(dp349
g8
S'src_rockstor_storageadmin_views_home.html'
p350
sg10
S'src/rockstor/storageadmin/views/home'
p351
sg12
g13
(g14
g15
NtRp352
(dp353
g18
I1
sg19
I0
sg20
I36
sg21
I0
sg22
I0
sg23
I24
sg24
I0
sbssg25
S'\xff\xed\xfb\x960(\x82Q\x9dp\xcd\x1a{o\x8d\x0f'
p354
sssS'version'
p355
S'3.7.1'
p356
sS'settings'
p357
S'K\x15\x9a\x8a]\x8a\x027t\x0ceY\x11D-\xb4'
p358
sS'format'
p359
I1
s.