(dp1
S'files'
p2
(dp3
S'src_rockstor_storageadmin_views_rockon_id'
p4
(dp5
S'index'
p6
(dp7
S'html_filename'
p8
S'src_rockstor_storageadmin_views_rockon_id.html'
p9
sS'name'
p10
S'src/rockstor/storageadmin/views/rockon_id'
p11
sS'nums'
p12
ccopy_reg
_reconstructor
p13
(ccoverage.results
Numbers
p14
c__builtin__
object
p15
NtRp16
(dp17
S'n_files'
p18
I1
sS'n_branches'
p19
I0
sS'n_statements'
p20
I142
sS'n_excluded'
p21
I0
sS'n_partial_branches'
p22
I0
sS'n_missing'
p23
I125
sS'n_missing_branches'
p24
I0
sbssS'hash'
p25
S'Q*\x06\xf1;yM\xf1\x8e\x89\xe6\xed\xd31\x14{'
p26
ssS'src_rockstor_storageadmin_views___init__'
p27
(dp28
g6
(dp29
g8
S'src_rockstor_storageadmin_views___init__.html'
p30
sg10
S'src/rockstor/storageadmin/views/__init__'
p31
sg12
g13
(g14
g15
NtRp32
(dp33
g18
I1
sg19
I0
sg20
I35
sg21
I0
sg22
I0
sg23
I0
sg24
I0
sbssg25
S'{i.1~\x03F\xfd46z\xad\xefoW\xe5'
p34
ssS'src_rockstor_storageadmin_views_ug_helpers'
p35
(dp36
g6
(dp37
g8
S'src_rockstor_storageadmin_views_ug_helpers.html'
p38
sg10
S'src/rockstor/storageadmin/views/ug_helpers'
p39
sg12
g13
(g14
g15
NtRp40
(dp41
g18
I1
sg19
I0
sg20
I63
sg21
I0
sg22
I0
sg23
I31
sg24
I0
sbssg25
S'\x19B~k\xfb\xa4\xefXr!\x99\xae\\\xfd\x9bu'
p42
ssS'src_rockstor_storageadmin_views_command'
p43
(dp44
g6
(dp45
g8
S'src_rockstor_storageadmin_views_command.html'
p46
sg10
S'src/rockstor/storageadmin/views/command'
p47
sg12
g13
(g14
g15
NtRp48
(dp49
g18
I1
sg19
I0
sg20
I178
sg21
I0
sg22
I0
sg23
I152
sg24
I0
sbssg25
S'\x9e\x9dh\xcaV\xbd-\x91J\xbe\x94?\x0fqX\n'
p50
ssS'src_rockstor_storageadmin_views_tls_certificate'
p51
(dp52
g6
(dp53
S'html_filename'
p54
S'src_rockstor_storageadmin_views_tls_certificate.html'
p55
sS'name'
p56
S'src/rockstor/storageadmin/views/tls_certificate'
p57
sS'nums'
p58
g13
(g14
g15
NtRp59
(dp60
g18
I1
sg19
I0
sg20
I53
sg21
I0
sg22
I0
sg23
I16
sg24
I0
sbssg25
S'\xf5\x9f\x80&\xaa\xba\xe5=\x8b\xdb\xab\x1b\x99\x84\xa9\xbe'
p61
ssS'src_rockstor_storageadmin_views_oauth_app'
p62
(dp63
g6
(dp64
g54
S'src_rockstor_storageadmin_views_oauth_app.html'
p65
sg56
S'src/rockstor/storageadmin/views/oauth_app'
p66
sg58
g13
(g14
g15
NtRp67
(dp68
g18
I1
sg19
I0
sg20
I51
sg21
I0
sg22
I0
sg23
I13
sg24
I0
sbssg25
S'l\x08f\xfe\xec+[\xaff\xbfp\x13q\xdbQ\xcc'
p69
ssS'src_rockstor_storageadmin_views_rockon_helpers'
p70
(dp71
g6
(dp72
g8
S'src_rockstor_storageadmin_views_rockon_helpers.html'
p73
sg10
S'src/rockstor/storageadmin/views/rockon_helpers'
p74
sg12
g13
(g14
g15
NtRp75
(dp76
g18
I1
sg19
I0
sg20
I195
sg21
I0
sg22
I0
sg23
I160
sg24
I0
sbssg25
S'I\xb1\xb0f\x95\xf0\x8dm\xad\xd7\xec\xe1C\xe5\x00\x9d'
p77
ssS'src_rockstor_storageadmin_views_clone_helpers'
p78
(dp79
g6
(dp80
g8
S'src_rockstor_storageadmin_views_clone_helpers.html'
p81
sg10
S'src/rockstor/storageadmin/views/clone_helpers'
p82
sg12
g13
(g14
g15
NtRp83
(dp84
g18
I1
sg19
I0
sg20
I31
sg21
I0
sg22
I0
sg23
I23
sg24
I0
sbssg25
S'\x07\x18\x1d\x01\x19s\xd9\x9f/\xe5\xe9\xb4P\x80\xd2m'
p85
ssS'src_rockstor_storageadmin_views_netatalk'
p86
(dp87
g6
(dp88
g8
S'src_rockstor_storageadmin_views_netatalk.html'
p89
sg10
S'src/rockstor/storageadmin/views/netatalk'
p90
sg12
g13
(g14
g15
NtRp91
(dp92
g18
I1
sg19
I0
sg20
I93
sg21
I0
sg22
I0
sg23
I13
sg24
I0
sbssg25
S'vH\xe2\xee\xf2$\x02`\xc5N\x84\xfa\x8f\x81\x84k'
p93
ssS'src_rockstor_storageadmin_views_snapshot'
p94
(dp95
g6
(dp96
g8
S'src_rockstor_storageadmin_views_snapshot.html'
p97
sg10
S'src/rockstor/storageadmin/views/snapshot'
p98
sg12
g13
(g14
g15
NtRp99
(dp100
g18
I1
sg19
I0
sg20
I156
sg21
I0
sg22
I0
sg23
I37
sg24
I0
sbssg25
S'{\xf4\xc9\x98$\xe7\x9a\x15\xd9GQ\x02\x86\x8d\xca\xd4'
p101
ssS'src_rockstor_storageadmin_views_user'
p102
(dp103
g6
(dp104
g8
S'src_rockstor_storageadmin_views_user.html'
p105
sg10
S'src/rockstor/storageadmin/views/user'
p106
sg12
g13
(g14
g15
NtRp107
(dp108
g18
I1
sg19
I0
sg20
I214
sg21
I0
sg22
I0
sg23
I15
sg24
I0
sbssg25
S'\x7f\x87\xcf\xf6\x84\xd2\xdf\xfb\xb8\xcf~\xb8z[\xf0\xdb'
p109
ssS'src_rockstor_storageadmin_views_views'
p110
(dp111
g6
(dp112
g8
S'src_rockstor_storageadmin_views_views.html'
p113
sg10
S'src/rockstor/storageadmin/views/views'
p114
sg12
g13
(g14
g15
NtRp115
(dp116
g18
I1
sg19
I0
sg20
I0
sg21
I0
sg22
I0
sg23
I0
sg24
I0
sbssg25
S'{\xd99q\x98)\xfekT\xb8H7M\x1c\x94\xba'
p117
ssS'src_rockstor_storageadmin_views_support'
p118
(dp119
g6
(dp120
g8
S'src_rockstor_storageadmin_views_support.html'
p121
sg10
S'src/rockstor/storageadmin/views/support'
p122
sg12
g13
(g14
g15
NtRp123
(dp124
g18
I1
sg19
I0
sg20
I74
sg21
I0
sg22
I0
sg23
I49
sg24
I0
sbssg25
S'\xbdKJ\xfd\x10d\xf2\xd6&%\x7f!\x19w\x14\xe2'
p125
ssS'src_rockstor_storageadmin_views_disk_smart'
p126
(dp127
g6
(dp128
g54
S'src_rockstor_storageadmin_views_disk_smart.html'
p129
sg56
S'src/rockstor/storageadmin/views/disk_smart'
p130
sg58
g13
(g14
g15
NtRp131
(dp132
g18
I1
sg19
I0
sg20
I86
sg21
I0
sg22
I0
sg23
I46
sg24
I0
sbssg25
S'\xa9]\x04\xa6\xd4\xaa\x0f]\xd1$\xf6\x87\xb9\xf5\xe0d'
p133
ssS'src_rockstor_storageadmin_views_share_iscsi'
p134
(dp135
g6
(dp136
g54
S'src_rockstor_storageadmin_views_share_iscsi.html'
p137
sg56
S'src/rockstor/storageadmin/views/share_iscsi'
p138
sg58
g13
(g14
g15
NtRp139
(dp140
g18
I1
sg19
I0
sg20
I58
sg21
I0
sg22
I0
sg23
I5
sg24
I0
sbssg25
S'\xaa\xf1\x00\xc0>\x0bz\xf8}\xa2P1\xf4\x07\x9d0'
p141
ssS'src_rockstor_storageadmin_views_setup_user'
p142
(dp143
g6
(dp144
g8
S'src_rockstor_storageadmin_views_setup_user.html'
p145
sg10
S'src/rockstor/storageadmin/views/setup_user'
p146
sg12
g13
(g14
g15
NtRp147
(dp148
g18
I1
sg19
I0
sg20
I32
sg21
I0
sg22
I0
sg23
I20
sg24
I0
sbssg25
S'\xec\x94\x84\x1a\x9aM2\xb5p\xca\xa2\x96\x95\x1cq\n'
p149
ssS'src_rockstor_storageadmin_views_update_subscription'
p150
(dp151
g6
(dp152
g54
S'src_rockstor_storageadmin_views_update_subscription.html'
p153
sg56
S'src/rockstor/storageadmin/views/update_subscription'
p154
sg58
g13
(g14
g15
NtRp155
(dp156
g18
I1
sg19
I0
sg20
I67
sg21
I0
sg22
I0
sg23
I36
sg24
I0
sbssg25
S'xL"\xd3m\xf2\xbe\x9c\x0e\xe1\xff\x81\x0e\xf5\xe1\xb4'
p157
ssS'src_rockstor_storageadmin_views_pool_balance'
p158
(dp159
g6
(dp160
g54
S'src_rockstor_storageadmin_views_pool_balance.html'
p161
sg56
S'src/rockstor/storageadmin/views/pool_balance'
p162
sg58
g13
(g14
g15
NtRp163
(dp164
g18
I1
sg19
I0
sg20
I67
sg21
I0
sg22
I0
sg23
I23
sg24
I0
sbssg25
S'\x91\x9a\xb2\xb5!\x1f\x05\x8f\xd9\x11w3\x1c\x11$\xb2'
p165
ssS'src_rockstor_storageadmin_views_pool'
p166
(dp167
g6
(dp168
g8
S'src_rockstor_storageadmin_views_pool.html'
p169
sg10
S'src/rockstor/storageadmin/views/pool'
p170
sg12
g13
(g14
g15
NtRp171
(dp172
g18
I1
sg19
I0
sg20
I294
sg21
I0
sg22
I0
sg23
I32
sg24
I0
sbssg25
S'N^\xa7\xc1\xce\xc0\x92\x1d\xefP\xbf\xe7\x90\x118\x83'
p173
ssS'src_rockstor_storageadmin_views_pool_scrub'
p174
(dp175
g6
(dp176
g54
S'src_rockstor_storageadmin_views_pool_scrub.html'
p177
sg56
S'src/rockstor/storageadmin/views/pool_scrub'
p178
sg58
g13
(g14
g15
NtRp179
(dp180
g18
I1
sg19
I0
sg20
I58
sg21
I0
sg22
I0
sg23
I6
sg24
I0
sbssg25
S'\xc3\xb6Af\x03\x0e\xbf\xf8R\x0b\xa9\xab\xc3\x1aw\xd2'
p181
ssS'src_rockstor_storageadmin_views_rockon'
p182
(dp183
g6
(dp184
g8
S'src_rockstor_storageadmin_views_rockon.html'
p185
sg10
S'src/rockstor/storageadmin/views/rockon'
p186
sg12
g13
(g14
g15
NtRp187
(dp188
g18
I1
sg19
I0
sg20
I166
sg21
I0
sg22
I0
sg23
I145
sg24
I0
sbssg25
S'G<i\x8e\xb8p\xcf#\xec\x9f+\xf89\xc9\xb1\xf5'
p189
ssS'src_rockstor_storageadmin_views_sftp'
p190
(dp191
g6
(dp192
g8
S'src_rockstor_storageadmin_views_sftp.html'
p193
sg10
S'src/rockstor/storageadmin/views/sftp'
p194
sg12
g13
(g14
g15
NtRp195
(dp196
g18
I1
sg19
I0
sg20
I79
sg21
I0
sg22
I0
sg23
I13
sg24
I0
sbssg25
S'u\xbf\xb7\xcf\xa9\xff\x88m\xfd\xa5\xf2>\xd4\xf4\x19\xb4'
p197
ssS'src_rockstor_storageadmin_views_rockon_volume'
p198
(dp199
g6
(dp200
g8
S'src_rockstor_storageadmin_views_rockon_volume.html'
p201
sg10
S'src/rockstor/storageadmin/views/rockon_volume'
p202
sg12
g13
(g14
g15
NtRp203
(dp204
g18
I1
sg19
I0
sg20
I14
sg21
I0
sg22
I0
sg23
I7
sg24
I0
sbssg25
S'\xf9\x1eb\xf5\x1c\x14\xfbh-\xd2\x9fJ\x90=\xafH'
p205
ssS'src_rockstor_storageadmin_views_network'
p206
(dp207
g6
(dp208
g8
S'src_rockstor_storageadmin_views_network.html'
p209
sg10
S'src/rockstor/storageadmin/views/network'
p210
sg12
g13
(g14
g15
NtRp211
(dp212
g18
I1
sg19
I0
sg20
I158
sg21
I0
sg22
I0
sg23
I31
sg24
I0
sbssg25
S'\x9d\x17\xf8\xde\xd6Y\x05+\xfc\x7f\xc9[\xf5<.\x94'
p213
ssS'src_rockstor_storageadmin_views_email_client'
p214
(dp215
g6
(dp216
S'html_filename'
p217
S'src_rockstor_storageadmin_views_email_client.html'
p218
sS'name'
p219
S'src/rockstor/storageadmin/views/email_client'
p220
sS'nums'
p221
g13
(g14
g15
NtRp222
(dp223
g18
I1
sg19
I0
sg20
I109
sg21
I0
sg22
I0
sg23
I78
sg24
I0
sbssg25
S'\xdbO\xf5\x8e\xba=P4\x02\x95wS\xfe\x9e#5'
p224
ssS'src_rockstor_storageadmin_views_disk'
p225
(dp226
g6
(dp227
g54
S'src_rockstor_storageadmin_views_disk.html'
p228
sg56
S'src/rockstor/storageadmin/views/disk'
p229
sg58
g13
(g14
g15
NtRp230
(dp231
g18
I1
sg19
I0
sg20
I170
sg21
I0
sg22
I0
sg23
I85
sg24
I0
sbssg25
S'\xa9\x12E\x91\xc3\xafo\xaca\x99s\xc9\xff\xc3Tl'
p232
ssS'src_rockstor_storageadmin_views_share_helpers'
p233
(dp234
g6
(dp235
g8
S'src_rockstor_storageadmin_views_share_helpers.html'
p236
sg10
S'src/rockstor/storageadmin/views/share_helpers'
p237
sg12
g13
(g14
g15
NtRp238
(dp239
g18
I1
sg19
I0
sg20
I106
sg21
I0
sg22
I0
sg23
I86
sg24
I0
sbssg25
S' cA\x04U\xd2C\xb6W\xbf\xba\xc0\xef]\xbbl'
p240
ssS'src_rockstor_storageadmin_views_rockon_custom_config'
p241
(dp242
g6
(dp243
g8
S'src_rockstor_storageadmin_views_rockon_custom_config.html'
p244
sg10
S'src/rockstor/storageadmin/views/rockon_custom_config'
p245
sg12
g13
(g14
g15
NtRp246
(dp247
g18
I1
sg19
I0
sg20
I13
sg21
I0
sg22
I0
sg23
I6
sg24
I0
sbssg25
S'\x94V\xf46\xb3\xb9\x15\x8b*~\xddTb\xcb\xe8='
p248
ssS'src_rockstor_storageadmin_views_rockon_port'
p249
(dp250
g6
(dp251
g8
S'src_rockstor_storageadmin_views_rockon_port.html'
p252
sg10
S'src/rockstor/storageadmin/views/rockon_port'
p253
sg12
g13
(g14
g15
NtRp254
(dp255
g18
I1
sg19
I0
sg20
I14
sg21
I0
sg22
I0
sg23
I7
sg24
I0
sbssg25
S'=\xe8\x94\x1e\xce\xb5*f\xad\x8f\xba\x14\x922M\xb0'
p256
ssS'src_rockstor_storageadmin_views_login'
p257
(dp258
g6
(dp259
g8
S'src_rockstor_storageadmin_views_login.html'
p260
sg10
S'src/rockstor/storageadmin/views/login'
p261
sg12
g13
(g14
g15
NtRp262
(dp263
g18
I1
sg19
I0
sg20
I19
sg21
I0
sg22
I0
sg23
I10
sg24
I0
sbssg25
S'\xaa\x82\x89\x0f\x9c\xecAJX\x02\x7f\xd4H \xa7r'
p264
ssS'src_rockstor_storageadmin_views_appliances'
p265
(dp266
g6
(dp267
g54
S'src_rockstor_storageadmin_views_appliances.html'
p268
sg56
S'src/rockstor/storageadmin/views/appliances'
p269
sg58
g13
(g14
g15
NtRp270
(dp271
g18
I1
sg19
I0
sg20
I121
sg21
I0
sg22
I0
sg23
I51
sg24
I0
sbssg25
S'\x02\x94\xf9\xd0\xa2\x81\xb4\x8b\xb4\xd9Y.\xf6L\x93+'
p272
ssS'src_rockstor_storageadmin_views_dashboardconfig'
p273
(dp274
g6
(dp275
g8
S'src_rockstor_storageadmin_views_dashboardconfig.html'
p276
sg10
S'src/rockstor/storageadmin/views/dashboardconfig'
p277
sg12
g13
(g14
g15
NtRp278
(dp279
g18
I1
sg19
I0
sg20
I54
sg21
I0
sg22
I0
sg23
I35
sg24
I0
sbssg25
S'*\x0c\xc7l\x84t\xd59R\xb1\x0b\xe7Fsk\xd7'
p280
ssS'src_rockstor_storageadmin_views_share'
p281
(dp282
g6
(dp283
g8
S'src_rockstor_storageadmin_views_share.html'
p284
sg10
S'src/rockstor/storageadmin/views/share'
p285
sg12
g13
(g14
g15
NtRp286
(dp287
g18
I1
sg19
I0
sg20
I172
sg21
I0
sg22
I0
sg23
I7
sg24
I0
sbssg25
S'\x9e\x9a\xf5\xe9\x19\x1cG\xef\xdb\x81\xbf\xff\xc6YD\xb2'
p288
ssS'src_rockstor_storageadmin_views_samba'
p289
(dp290
g6
(dp291
g8
S'src_rockstor_storageadmin_views_samba.html'
p292
sg10
S'src/rockstor/storageadmin/views/samba'
p293
sg12
g13
(g14
g15
NtRp294
(dp295
g18
I1
sg19
I0
sg20
I153
sg21
I0
sg22
I0
sg23
I5
sg24
I0
sbssg25
S'E\x913NM\xfb\x01\xfd\x1a\xa8i\xbc\x03\x89\x0e3'
p296
ssS'src_rockstor_storageadmin_views_config_backup'
p297
(dp298
g6
(dp299
g8
S'src_rockstor_storageadmin_views_config_backup.html'
p300
sg10
S'src/rockstor/storageadmin/views/config_backup'
p301
sg12
g13
(g14
g15
NtRp302
(dp303
g18
I1
sg19
I0
sg20
I206
sg21
I0
sg22
I0
sg23
I163
sg24
I0
sbssg25
S'\xfc\x1d`j#\x118\xb0\x02\xf8@\xff)\xfe\x17?'
p304
ssS'src_rockstor_storageadmin_views_group'
p305
(dp306
g6
(dp307
g54
S'src_rockstor_storageadmin_views_group.html'
p308
sg56
S'src/rockstor/storageadmin/views/group'
p309
sg58
g13
(g14
g15
NtRp310
(dp311
g18
I1
sg19
I0
sg20
I72
sg21
I0
sg22
I0
sg23
I7
sg24
I0
sbssg25
S'\xf1\x1e}+]\x15.\xb4\xffm}\xef\xe8;Y\x04'
p312
ssS'src_rockstor_storageadmin_views_share_command'
p313
(dp314
g6
(dp315
g8
S'src_rockstor_storageadmin_views_share_command.html'
p316
sg10
S'src/rockstor/storageadmin/views/share_command'
p317
sg12
g13
(g14
g15
NtRp318
(dp319
g18
I1
sg19
I0
sg20
I49
sg21
I0
sg22
I0
sg23
I0
sg24
I0
sbssg25
S'\xb2)\x13\xb7*q\x1e\xc5EN\x86\xc9D\xa8~v'
p320
ssS'src_rockstor_storageadmin_views_share_acl'
p321
(dp322
g6
(dp323
g8
S'src_rockstor_storageadmin_views_share_acl.html'
p324
sg10
S'src/rockstor/storageadmin/views/share_acl'
p325
sg12
g13
(g14
g15
NtRp326
(dp327
g18
I1
sg19
I0
sg20
I34
sg21
I0
sg22
I0
sg23
I22
sg24
I0
sbssg25
S'Ag\xdb\r\x7f\xe7\xa8rK,h8\xcb\xb8yQ'
p328
ssS'src_rockstor_storageadmin_views_rockon_json'
p329
(dp330
g6
(dp331
g8
S'src_rockstor_storageadmin_views_rockon_json.html'
p332
sg10
S'src/rockstor/storageadmin/views/rockon_json'
p333
sg12
g13
(g14
g15
NtRp334
(dp335
g18
I1
sg19
I0
sg20
I10
sg21
I0
sg22
I0
sg23
I10
sg24
I0
sbssg25
S'\xdb&\x14\xd7\x1cP\x82\xa2\x10\xd3TM\r\xa9TP'
p336
ssS'src_rockstor_storageadmin_views_nfs_exports'
p337
(dp338
g6
(dp339
g8
S'src_rockstor_storageadmin_views_nfs_exports.html'
p340
sg10
S'src/rockstor/storageadmin/views/nfs_exports'
p341
sg12
g13
(g14
g15
NtRp342
(dp343
g18
I1
sg19
I0
sg20
I214
sg21
I0
sg22
I0
sg23
I4
sg24
I0
sbssg25
S'\xba\x08F\xd9\x0f\xffQ\xef\x0e\x90w\x9c&\x9bH<'
p344
ssS'src_rockstor_storageadmin_views_home'
p345
(dp346
g6
(dp347
g8
S'src_rockstor_storageadmin_views_home.html'
p348
sg10
S'src/rockstor/storageadmin/views/home'
p349
sg12
g13
(g14
g15
NtRp350
(dp351
g18
I1
sg19
I0
sg20
I36
sg21
I0
sg22
I0
sg23
I24
sg24
I0
sbssg25
S'\xff\xed\xfb\x960(\x82Q\x9dp\xcd\x1a{o\x8d\x0f'
p352
sssS'version'
p353
S'3.7.1'
p354
sS'settings'
p355
S'\xf5YV\xbb\x1d\n\x92-\x15f\xce\xe9\x11+\x8b\xc1'
p356
sS'format'
p357
I1
s.