(dp1
S'files'
p2
(dp3
S'src_rockstor_storageadmin_views_rockon_id'
p4
(dp5
S'index'
p6
(dp7
S'html_filename'
p8
S'src_rockstor_storageadmin_views_rockon_id.html'
p9
sS'name'
p10
S'src/rockstor/storageadmin/views/rockon_id'
p11
sS'nums'
p12
ccopy_reg
_reconstructor
p13
(ccoverage.results
Numbers
p14
c__builtin__
object
p15
NtRp16
(dp17
S'n_files'
p18
I1
sS'n_branches'
p19
I0
sS'n_statements'
p20
I142
sS'n_excluded'
p21
I0
sS'n_partial_branches'
p22
I0
sS'n_missing'
p23
I142
sS'n_missing_branches'
p24
I0
sbssS'hash'
p25
S'GS\x14\x06\xcf`[\x94\xa1s\xdc\xea\x963\xe4\xd4'
p26
ssS'src_rockstor_storageadmin_views___init__'
p27
(dp28
g6
(dp29
S'html_filename'
p30
S'src_rockstor_storageadmin_views___init__.html'
p31
sS'name'
p32
S'src/rockstor/storageadmin/views/__init__'
p33
sS'nums'
p34
g13
(g14
g15
NtRp35
(dp36
g18
I1
sg19
I0
sg20
I35
sg21
I0
sg22
I0
sg23
I35
sg24
I0
sbssg25
S'\xa9\x95%\xe3\xde[\xb8&f4\xf1)\x92.u\xd3'
p37
ssS'src_rockstor_storageadmin_views_ug_helpers'
p38
(dp39
g6
(dp40
g8
S'src_rockstor_storageadmin_views_ug_helpers.html'
p41
sg10
S'src/rockstor/storageadmin/views/ug_helpers'
p42
sg12
g13
(g14
g15
NtRp43
(dp44
g18
I1
sg19
I0
sg20
I63
sg21
I0
sg22
I0
sg23
I63
sg24
I0
sbssg25
S'\xf4\x18\x80\xc8+=\xad\x9cU\xd4\xdf\x98\x8cJC\xcc'
p45
ssS'src_rockstor_storageadmin_views_adv_nfs_exports'
p46
(dp47
g6
(dp48
g30
S'src_rockstor_storageadmin_views_adv_nfs_exports.html'
p49
sg32
S'src/rockstor/storageadmin/views/adv_nfs_exports'
p50
sg34
g13
(g14
g15
NtRp51
(dp52
g18
I1
sg19
I0
sg20
I44
sg21
I0
sg22
I0
sg23
I44
sg24
I0
sbssg25
S'3\xa64.\xe8S!3k.1\x04<\xf9\xb0\\'
p53
ssS'src_rockstor_storageadmin_views_tls_certificate'
p54
(dp55
g6
(dp56
g8
S'src_rockstor_storageadmin_views_tls_certificate.html'
p57
sg10
S'src/rockstor/storageadmin/views/tls_certificate'
p58
sg12
g13
(g14
g15
NtRp59
(dp60
g18
I1
sg19
I0
sg20
I53
sg21
I0
sg22
I0
sg23
I53
sg24
I0
sbssg25
S"?'TIc\x177\x1c\x98X0\xde\xb9\x0e\x83\xac"
p61
ssS'src_rockstor_storageadmin_views_oauth_app'
p62
(dp63
g6
(dp64
g30
S'src_rockstor_storageadmin_views_oauth_app.html'
p65
sg32
S'src/rockstor/storageadmin/views/oauth_app'
p66
sg34
g13
(g14
g15
NtRp67
(dp68
g18
I1
sg19
I0
sg20
I47
sg21
I0
sg22
I0
sg23
I47
sg24
I0
sbssg25
S'\xab\xd5\xdfi!y{>&\xe40\x16\xd6\xc4>\xb2'
p69
ssS'src_rockstor_storageadmin_views_netatalk'
p70
(dp71
g6
(dp72
g8
S'src_rockstor_storageadmin_views_netatalk.html'
p73
sg10
S'src/rockstor/storageadmin/views/netatalk'
p74
sg12
g13
(g14
g15
NtRp75
(dp76
g18
I1
sg19
I0
sg20
I95
sg21
I0
sg22
I0
sg23
I95
sg24
I0
sbssg25
S'{\xc6\xa6=\xf0\xa1\xc3R\xaa\x9d\x14%\xdfj\xde\x03'
p77
ssS'src_rockstor_storageadmin_views_disk'
p78
(dp79
g6
(dp80
g8
S'src_rockstor_storageadmin_views_disk.html'
p81
sg10
S'src/rockstor/storageadmin/views/disk'
p82
sg12
g13
(g14
g15
NtRp83
(dp84
g18
I1
sg19
I0
sg20
I162
sg21
I0
sg22
I0
sg23
I162
sg24
I0
sbssg25
S'tTc\x100"J\x1f\x89\r)b\x9eqW\x97'
p85
ssS'src_rockstor_storageadmin_views_nfs_exports'
p86
(dp87
g6
(dp88
g8
S'src_rockstor_storageadmin_views_nfs_exports.html'
p89
sg10
S'src/rockstor/storageadmin/views/nfs_exports'
p90
sg12
g13
(g14
g15
NtRp91
(dp92
g18
I1
sg19
I0
sg20
I109
sg21
I0
sg22
I0
sg23
I109
sg24
I0
sbssg25
S'Y\x90\xe8c\x0f\x8f>\xcfR\x03v\xc7\x06\xfd\xbd\xb2'
p93
ssS'src_rockstor_storageadmin_views_rockon_json'
p94
(dp95
g6
(dp96
g8
S'src_rockstor_storageadmin_views_rockon_json.html'
p97
sg10
S'src/rockstor/storageadmin/views/rockon_json'
p98
sg12
g13
(g14
g15
NtRp99
(dp100
g18
I1
sg19
I0
sg20
I10
sg21
I0
sg22
I0
sg23
I10
sg24
I0
sbssg25
S'\xdb&\x14\xd7\x1cP\x82\xa2\x10\xd3TM\r\xa9TP'
p101
ssS'src_rockstor_storageadmin_views_snapshot'
p102
(dp103
g6
(dp104
g8
S'src_rockstor_storageadmin_views_snapshot.html'
p105
sg10
S'src/rockstor/storageadmin/views/snapshot'
p106
sg12
g13
(g14
g15
NtRp107
(dp108
g18
I1
sg19
I0
sg20
I188
sg21
I0
sg22
I0
sg23
I188
sg24
I0
sbssg25
S"\xb7b\xb3'\xe5(\xa0\xdc\x84s\xc1\xb6\x01+*\x02"
p109
ssS'src_rockstor_storageadmin_views_pool_import'
p110
(dp111
g6
(dp112
g8
S'src_rockstor_storageadmin_views_pool_import.html'
p113
sg10
S'src/rockstor/storageadmin/views/pool_import'
p114
sg12
g13
(g14
g15
NtRp115
(dp116
g18
I1
sg19
I0
sg20
I70
sg21
I0
sg22
I0
sg23
I70
sg24
I0
sbssg25
S'\x91\xaa\x7f2\xef\xcb\xf3M\xec\xacoM%C\x12\xda'
p117
ssS'src_rockstor_storageadmin_views_user'
p118
(dp119
g6
(dp120
g8
S'src_rockstor_storageadmin_views_user.html'
p121
sg10
S'src/rockstor/storageadmin/views/user'
p122
sg12
g13
(g14
g15
NtRp123
(dp124
g18
I1
sg19
I0
sg20
I206
sg21
I0
sg22
I0
sg23
I206
sg24
I0
sbssg25
S"7toH_\xac\xa5\xf0w\x10\xd7.\xa0'\x1a1"
p125
ssS'src_rockstor_storageadmin_views_views'
p126
(dp127
g6
(dp128
g8
S'src_rockstor_storageadmin_views_views.html'
p129
sg10
S'src/rockstor/storageadmin/views/views'
p130
sg12
g13
(g14
g15
NtRp131
(dp132
g18
I1
sg19
I0
sg20
I0
sg21
I0
sg22
I0
sg23
I0
sg24
I0
sbssg25
S'{\xd99q\x98)\xfekT\xb8H7M\x1c\x94\xba'
p133
ssS'src_rockstor_storageadmin_views_rockon_helpers'
p134
(dp135
g6
(dp136
g8
S'src_rockstor_storageadmin_views_rockon_helpers.html'
p137
sg10
S'src/rockstor/storageadmin/views/rockon_helpers'
p138
sg12
g13
(g14
g15
NtRp139
(dp140
g18
I1
sg19
I0
sg20
I196
sg21
I0
sg22
I0
sg23
I196
sg24
I0
sbssg25
S')\xdd\xadH]\xafD\x0b\xe2\x9c\xa8a\x8e\nP\xab'
p141
ssS'src_rockstor_storageadmin_views_clone_helpers'
p142
(dp143
g6
(dp144
g8
S'src_rockstor_storageadmin_views_clone_helpers.html'
p145
sg10
S'src/rockstor/storageadmin/views/clone_helpers'
p146
sg12
g13
(g14
g15
NtRp147
(dp148
g18
I1
sg19
I0
sg20
I32
sg21
I0
sg22
I0
sg23
I32
sg24
I0
sbssg25
S'#\xa3\x13%\x91\xcbg\xa4\xee\x85s\xbd\xe0\x04\xe4\xf9'
p149
ssS'src_rockstor_storageadmin_views_share_iscsi'
p150
(dp151
g6
(dp152
g8
S'src_rockstor_storageadmin_views_share_iscsi.html'
p153
sg10
S'src/rockstor/storageadmin/views/share_iscsi'
p154
sg12
g13
(g14
g15
NtRp155
(dp156
g18
I1
sg19
I0
sg20
I59
sg21
I0
sg22
I0
sg23
I59
sg24
I0
sbssg25
S'\x1fY5\xfa4\xd2b\x026\xc4\xe5\xect\xda(\xcc'
p157
ssS'src_rockstor_storageadmin_views_setup_user'
p158
(dp159
g6
(dp160
g8
S'src_rockstor_storageadmin_views_setup_user.html'
p161
sg10
S'src/rockstor/storageadmin/views/setup_user'
p162
sg12
g13
(g14
g15
NtRp163
(dp164
g18
I1
sg19
I0
sg20
I32
sg21
I0
sg22
I0
sg23
I32
sg24
I0
sbssg25
S'P[/\x9dk2\x85o\xfe\xf1\xe5^Z\x89\xfe!'
p165
ssS'src_rockstor_storageadmin_views_pool_balance'
p166
(dp167
g6
(dp168
g8
S'src_rockstor_storageadmin_views_pool_balance.html'
p169
sg10
S'src/rockstor/storageadmin/views/pool_balance'
p170
sg12
g13
(g14
g15
NtRp171
(dp172
g18
I1
sg19
I0
sg20
I56
sg21
I0
sg22
I0
sg23
I56
sg24
I0
sbssg25
S'\xf5\x89o\xff\xad\xde\xe2\x14\x92\tc\x83M\x91\xa9\x82'
p173
ssS'src_rockstor_storageadmin_views_pool'
p174
(dp175
g6
(dp176
g8
S'src_rockstor_storageadmin_views_pool.html'
p177
sg10
S'src/rockstor/storageadmin/views/pool'
p178
sg12
g13
(g14
g15
NtRp179
(dp180
g18
I1
sg19
I0
sg20
I293
sg21
I0
sg22
I0
sg23
I293
sg24
I0
sbssg25
S'\xc1\x00\x16,g\x9e\x7fN\xd0\x19Q\xfb\xb3\x0ft\xe0'
p181
ssS'src_rockstor_storageadmin_views_pool_scrub'
p182
(dp183
g6
(dp184
g8
S'src_rockstor_storageadmin_views_pool_scrub.html'
p185
sg10
S'src/rockstor/storageadmin/views/pool_scrub'
p186
sg12
g13
(g14
g15
NtRp187
(dp188
g18
I1
sg19
I0
sg20
I60
sg21
I0
sg22
I0
sg23
I60
sg24
I0
sbssg25
S'\x93\xf8I\xc4\x82\xccs|\xd6h\xc8\xac*_[<'
p189
ssS'src_rockstor_storageadmin_views_rockon'
p190
(dp191
g6
(dp192
g30
S'src_rockstor_storageadmin_views_rockon.html'
p193
sg32
S'src/rockstor/storageadmin/views/rockon'
p194
sg34
g13
(g14
g15
NtRp195
(dp196
g18
I1
sg19
I0
sg20
I166
sg21
I0
sg22
I0
sg23
I166
sg24
I0
sbssg25
S'\x0b\xa1\xc94\x1e@xG\x90\xfd\x15{d\x19\xe34'
p197
ssS'src_rockstor_storageadmin_views_sftp'
p198
(dp199
g6
(dp200
g8
S'src_rockstor_storageadmin_views_sftp.html'
p201
sg10
S'src/rockstor/storageadmin/views/sftp'
p202
sg12
g13
(g14
g15
NtRp203
(dp204
g18
I1
sg19
I0
sg20
I79
sg21
I0
sg22
I0
sg23
I79
sg24
I0
sbssg25
S'\xc4\xb3\x1f\x15K\xb6k\xe8; \xa7\xb9\xdeC\xda\xc1'
p205
ssS'src_rockstor_storageadmin_views_rockon_volume'
p206
(dp207
g6
(dp208
g8
S'src_rockstor_storageadmin_views_rockon_volume.html'
p209
sg10
S'src/rockstor/storageadmin/views/rockon_volume'
p210
sg12
g13
(g14
g15
NtRp211
(dp212
g18
I1
sg19
I0
sg20
I14
sg21
I0
sg22
I0
sg23
I14
sg24
I0
sbssg25
S'\xe1+l\xe8\xce\xe2\xf2\xd8]\xc5\x9d6\x86C\x86Z'
p213
ssS'src_rockstor_storageadmin_views_network'
p214
(dp215
g6
(dp216
g8
S'src_rockstor_storageadmin_views_network.html'
p217
sg10
S'src/rockstor/storageadmin/views/network'
p218
sg12
g13
(g14
g15
NtRp219
(dp220
g18
I1
sg19
I0
sg20
I122
sg21
I0
sg22
I0
sg23
I122
sg24
I0
sbssg25
S'\xe2\xd0\xf7t\x1e\xa6\xf9L\x99\x1a^\x97\xe3&\xd4$'
p221
ssS'src_rockstor_storageadmin_views_command'
p222
(dp223
g6
(dp224
g8
S'src_rockstor_storageadmin_views_command.html'
p225
sg10
S'src/rockstor/storageadmin/views/command'
p226
sg12
g13
(g14
g15
NtRp227
(dp228
g18
I1
sg19
I0
sg20
I184
sg21
I0
sg22
I0
sg23
I184
sg24
I0
sbssg25
S':s\\IK\x9c\x87q\xa2\n\xae\xb5\x986\xff\xfa'
p229
ssS'src_rockstor_storageadmin_views_support'
p230
(dp231
g6
(dp232
g8
S'src_rockstor_storageadmin_views_support.html'
p233
sg10
S'src/rockstor/storageadmin/views/support'
p234
sg12
g13
(g14
g15
NtRp235
(dp236
g18
I1
sg19
I0
sg20
I74
sg21
I0
sg22
I0
sg23
I74
sg24
I0
sbssg25
S'P\xea\xcdP\x0c\xf5\x9e\xda^\x92\xf4\xbd\xff\x03=\xef'
p237
ssS'src_rockstor_storageadmin_views_disk_smart'
p238
(dp239
g6
(dp240
g8
S'src_rockstor_storageadmin_views_disk_smart.html'
p241
sg10
S'src/rockstor/storageadmin/views/disk_smart'
p242
sg12
g13
(g14
g15
NtRp243
(dp244
g18
I1
sg19
I0
sg20
I86
sg21
I0
sg22
I0
sg23
I86
sg24
I0
sbssg25
S'\x03\x17$4\xb5x\xddn\xe5J\x0b\x98\xc42\x92K'
p245
ssS'src_rockstor_storageadmin_views_share_helpers'
p246
(dp247
g6
(dp248
g8
S'src_rockstor_storageadmin_views_share_helpers.html'
p249
sg10
S'src/rockstor/storageadmin/views/share_helpers'
p250
sg12
g13
(g14
g15
NtRp251
(dp252
g18
I1
sg19
I0
sg20
I35
sg21
I0
sg22
I0
sg23
I35
sg24
I0
sbssg25
S'\xfaq\xd4\xdb)3\x0f\x94/\xe0\r\x0b\x1b\x91\xb1\x84'
p253
ssS'src_rockstor_storageadmin_views_rockon_custom_config'
p254
(dp255
g6
(dp256
g8
S'src_rockstor_storageadmin_views_rockon_custom_config.html'
p257
sg10
S'src/rockstor/storageadmin/views/rockon_custom_config'
p258
sg12
g13
(g14
g15
NtRp259
(dp260
g18
I1
sg19
I0
sg20
I13
sg21
I0
sg22
I0
sg23
I13
sg24
I0
sbssg25
S"\x1f5m\x11\xca O\x06'>\x80\n\xe8\xc1\x15B"
p261
ssS'src_rockstor_storageadmin_views_share_nfs'
p262
(dp263
g6
(dp264
g8
S'src_rockstor_storageadmin_views_share_nfs.html'
p265
sg10
S'src/rockstor/storageadmin/views/share_nfs'
p266
sg12
g13
(g14
g15
NtRp267
(dp268
g18
I1
sg19
I0
sg20
I82
sg21
I0
sg22
I0
sg23
I82
sg24
I0
sbssg25
S'UiP\xdd\x11r)\xa5\xd8?\x83\x10\x9f_Z\xa7'
p269
ssS'src_rockstor_storageadmin_views_rockon_port'
p270
(dp271
g6
(dp272
g8
S'src_rockstor_storageadmin_views_rockon_port.html'
p273
sg10
S'src/rockstor/storageadmin/views/rockon_port'
p274
sg12
g13
(g14
g15
NtRp275
(dp276
g18
I1
sg19
I0
sg20
I14
sg21
I0
sg22
I0
sg23
I14
sg24
I0
sbssg25
S'\xce\x1a\x1b\xe2\x8b\x08\xc8W~\x92\xbcD\xe8\x13\xd7h'
p277
ssS'src_rockstor_storageadmin_views_login'
p278
(dp279
g6
(dp280
g8
S'src_rockstor_storageadmin_views_login.html'
p281
sg10
S'src/rockstor/storageadmin/views/login'
p282
sg12
g13
(g14
g15
NtRp283
(dp284
g18
I1
sg19
I0
sg20
I19
sg21
I0
sg22
I0
sg23
I19
sg24
I0
sbssg25
S'\x98\x1d=q\xb7\x1cuMJ0\xfa\xb7P\xfa\x8c;'
p285
ssS'src_rockstor_storageadmin_views_appliances'
p286
(dp287
g6
(dp288
g8
S'src_rockstor_storageadmin_views_appliances.html'
p289
sg10
S'src/rockstor/storageadmin/views/appliances'
p290
sg12
g13
(g14
g15
NtRp291
(dp292
g18
I1
sg19
I0
sg20
I114
sg21
I0
sg22
I0
sg23
I114
sg24
I0
sbssg25
S'\x95\x93\xab(\x11\xdf\xf8X\xc4\x8e\xee:\x1f\xfd\x08e'
p293
ssS'src_rockstor_storageadmin_views_nfs_helpers'
p294
(dp295
g6
(dp296
g30
S'src_rockstor_storageadmin_views_nfs_helpers.html'
p297
sg32
S'src/rockstor/storageadmin/views/nfs_helpers'
p298
sg34
g13
(g14
g15
NtRp299
(dp300
g18
I1
sg19
I0
sg20
I76
sg21
I0
sg22
I0
sg23
I76
sg24
I0
sbssg25
S'|<\x15[\x04|\x16\n:\x1a\xfeP\x9f\x03d9'
p301
ssS'src_rockstor_storageadmin_views_share'
p302
(dp303
g6
(dp304
g8
S'src_rockstor_storageadmin_views_share.html'
p305
sg10
S'src/rockstor/storageadmin/views/share'
p306
sg12
g13
(g14
g15
NtRp307
(dp308
g18
I1
sg19
I0
sg20
I216
sg21
I0
sg22
I0
sg23
I216
sg24
I0
sbssg25
S'\x12\xf5\xb5\x15X\xf1i\xe6E\xd2\xdfz\x92\xb0\x17!'
p309
ssS'src_rockstor_storageadmin_views_samba'
p310
(dp311
g6
(dp312
g8
S'src_rockstor_storageadmin_views_samba.html'
p313
sg10
S'src/rockstor/storageadmin/views/samba'
p314
sg12
g13
(g14
g15
NtRp315
(dp316
g18
I1
sg19
I0
sg20
I148
sg21
I0
sg22
I0
sg23
I148
sg24
I0
sbssg25
S'\xa3\x03r\xffDy\xed\xfdq\x15\x93\xb0\x80\x80\xfd?'
p317
ssS'src_rockstor_storageadmin_views_config_backup'
p318
(dp319
S'index'
p320
(dp321
g30
S'src_rockstor_storageadmin_views_config_backup.html'
p322
sg32
S'src/rockstor/storageadmin/views/config_backup'
p323
sg34
g13
(g14
g15
NtRp324
(dp325
g18
I1
sg19
I0
sg20
I203
sg21
I0
sg22
I0
sg23
I203
sg24
I0
sbssS'hash'
p326
S'\x14\xd5\x99\xa4aw?\xc1\xf3\x98v.H\x0c\x18\xf6'
p327
ssS'src_rockstor_storageadmin_views_group'
p328
(dp329
g6
(dp330
g30
S'src_rockstor_storageadmin_views_group.html'
p331
sg32
S'src/rockstor/storageadmin/views/group'
p332
sg34
g13
(g14
g15
NtRp333
(dp334
g18
I1
sg19
I0
sg20
I72
sg21
I0
sg22
I0
sg23
I72
sg24
I0
sbssg25
S'1*\xff\xf8[\x1b]\x8a8\x04\xf5\xb7\\SD\x11'
p335
ssS'src_rockstor_storageadmin_views_share_command'
p336
(dp337
g6
(dp338
g8
S'src_rockstor_storageadmin_views_share_command.html'
p339
sg10
S'src/rockstor/storageadmin/views/share_command'
p340
sg12
g13
(g14
g15
NtRp341
(dp342
g18
I1
sg19
I0
sg20
I50
sg21
I0
sg22
I0
sg23
I50
sg24
I0
sbssg25
S'\xb4\xe2q_\x8ak\x82\x88\xa1X\xa8=s\x94\xd9\r'
p343
ssS'src_rockstor_storageadmin_views_share_acl'
p344
(dp345
g6
(dp346
g8
S'src_rockstor_storageadmin_views_share_acl.html'
p347
sg10
S'src/rockstor/storageadmin/views/share_acl'
p348
sg12
g13
(g14
g15
NtRp349
(dp350
g18
I1
sg19
I0
sg20
I35
sg21
I0
sg22
I0
sg23
I35
sg24
I0
sbssg25
S'p\x82\xcc\xd6\xbfn\x8d\x89\x10r3\xf5\xdc\x8a\xca\x90'
p351
ssS'src_rockstor_storageadmin_views_dashboardconfig'
p352
(dp353
g6
(dp354
g8
S'src_rockstor_storageadmin_views_dashboardconfig.html'
p355
sg10
S'src/rockstor/storageadmin/views/dashboardconfig'
p356
sg12
g13
(g14
g15
NtRp357
(dp358
g18
I1
sg19
I0
sg20
I54
sg21
I0
sg22
I0
sg23
I54
sg24
I0
sbssg25
S'\x9fu\t\xf5\x92\x7f9X\x06\xb6c\xc5;2:\xf0'
p359
ssS'src_rockstor_storageadmin_views_home'
p360
(dp361
g6
(dp362
g8
S'src_rockstor_storageadmin_views_home.html'
p363
sg10
S'src/rockstor/storageadmin/views/home'
p364
sg12
g13
(g14
g15
NtRp365
(dp366
g18
I1
sg19
I0
sg20
I36
sg21
I0
sg22
I0
sg23
I36
sg24
I0
sbssg25
S'8\xc1q.\x93\xe3Y\xcf\x15Z\xc3\xcfa\x91\xb4\x11'
p367
sssS'version'
p368
S'3.7.1'
p369
sS'settings'
p370
S'\xa0\xfa\xa3\xf8\xca)\xe3_p\xeap\x1b\xd3]_>'
p371
sS'format'
p372
I1
s.