(dp1
S'files'
p2
(dp3
S'src_rockstor_storageadmin_views_rockon_id'
p4
(dp5
S'index'
p6
(dp7
S'html_filename'
p8
S'src_rockstor_storageadmin_views_rockon_id.html'
p9
sS'name'
p10
S'src/rockstor/storageadmin/views/rockon_id'
p11
sS'nums'
p12
ccopy_reg
_reconstructor
p13
(ccoverage.results
Numbers
p14
c__builtin__
object
p15
NtRp16
(dp17
S'n_files'
p18
I1
sS'n_branches'
p19
I0
sS'n_statements'
p20
I142
sS'n_excluded'
p21
I0
sS'n_partial_branches'
p22
I0
sS'n_missing'
p23
I125
sS'n_missing_branches'
p24
I0
sbssS'hash'
p25
S'Q*\x06\xf1;yM\xf1\x8e\x89\xe6\xed\xd31\x14{'
p26
ssS'src_rockstor_storageadmin_views___init__'
p27
(dp28
g6
(dp29
g8
S'src_rockstor_storageadmin_views___init__.html'
p30
sg10
S'src/rockstor/storageadmin/views/__init__'
p31
sg12
g13
(g14
g15
NtRp32
(dp33
g18
I1
sg19
I0
sg20
I35
sg21
I0
sg22
I0
sg23
I0
sg24
I0
sbssg25
S'{i.1~\x03F\xfd46z\xad\xefoW\xe5'
p34
ssS'src_rockstor_storageadmin_views_ug_helpers'
p35
(dp36
g6
(dp37
g8
S'src_rockstor_storageadmin_views_ug_helpers.html'
p38
sg10
S'src/rockstor/storageadmin/views/ug_helpers'
p39
sg12
g13
(g14
g15
NtRp40
(dp41
g18
I1
sg19
I0
sg20
I63
sg21
I0
sg22
I0
sg23
I31
sg24
I0
sbssg25
S'\x19B~k\xfb\xa4\xefXr!\x99\xae\\\xfd\x9bu'
p42
ssS'src_rockstor_storageadmin_views_email_client'
p43
(dp44
g6
(dp45
g8
S'src_rockstor_storageadmin_views_email_client.html'
p46
sg10
S'src/rockstor/storageadmin/views/email_client'
p47
sg12
g13
(g14
g15
NtRp48
(dp49
g18
I1
sg19
I0
sg20
I96
sg21
I0
sg22
I0
sg23
I66
sg24
I0
sbssg25
S'\xc9"\x9f\xa6\xdb\xd2\xc4\x86\t,\xab\x93\x13k~\xd9'
p50
ssS'src_rockstor_storageadmin_views_tls_certificate'
p51
(dp52
g6
(dp53
g8
S'src_rockstor_storageadmin_views_tls_certificate.html'
p54
sg10
S'src/rockstor/storageadmin/views/tls_certificate'
p55
sg12
g13
(g14
g15
NtRp56
(dp57
g18
I1
sg19
I0
sg20
I53
sg21
I0
sg22
I0
sg23
I35
sg24
I0
sbssg25
S'#\xeb[\x90\x1f\xb65\xd6\x0b\xeb}\x97\x8e\x85S\x82'
p58
ssS'src_rockstor_storageadmin_views_oauth_app'
p59
(dp60
g6
(dp61
g8
S'src_rockstor_storageadmin_views_oauth_app.html'
p62
sg10
S'src/rockstor/storageadmin/views/oauth_app'
p63
sg12
g13
(g14
g15
NtRp64
(dp65
g18
I1
sg19
I0
sg20
I51
sg21
I0
sg22
I0
sg23
I37
sg24
I0
sbssg25
S'\x8c\xa7Ff\xe9us5b\xed,2\xc7\x88{\xf7'
p66
ssS'src_rockstor_storageadmin_views_rockon_helpers'
p67
(dp68
g6
(dp69
g8
S'src_rockstor_storageadmin_views_rockon_helpers.html'
p70
sg10
S'src/rockstor/storageadmin/views/rockon_helpers'
p71
sg12
g13
(g14
g15
NtRp72
(dp73
g18
I1
sg19
I0
sg20
I195
sg21
I0
sg22
I0
sg23
I160
sg24
I0
sbssg25
S'I\xb1\xb0f\x95\xf0\x8dm\xad\xd7\xec\xe1C\xe5\x00\x9d'
p74
ssS'src_rockstor_storageadmin_views_disk'
p75
(dp76
g6
(dp77
g8
S'src_rockstor_storageadmin_views_disk.html'
p78
sg10
S'src/rockstor/storageadmin/views/disk'
p79
sg12
g13
(g14
g15
NtRp80
(dp81
g18
I1
sg19
I0
sg20
I170
sg21
I0
sg22
I0
sg23
I90
sg24
I0
sbssg25
S'BK\xba\xf1\xbci}\xac\xc9\x0c\xa5\xaa\xff\xddI\x86'
p82
ssS'src_rockstor_storageadmin_views_clone_helpers'
p83
(dp84
g6
(dp85
g8
S'src_rockstor_storageadmin_views_clone_helpers.html'
p86
sg10
S'src/rockstor/storageadmin/views/clone_helpers'
p87
sg12
g13
(g14
g15
NtRp88
(dp89
g18
I1
sg19
I0
sg20
I31
sg21
I0
sg22
I0
sg23
I23
sg24
I0
sbssg25
S'\x07\x18\x1d\x01\x19s\xd9\x9f/\xe5\xe9\xb4P\x80\xd2m'
p90
ssS'src_rockstor_storageadmin_views_netatalk'
p91
(dp92
g6
(dp93
g8
S'src_rockstor_storageadmin_views_netatalk.html'
p94
sg10
S'src/rockstor/storageadmin/views/netatalk'
p95
sg12
g13
(g14
g15
NtRp96
(dp97
g18
I1
sg19
I0
sg20
I93
sg21
I0
sg22
I0
sg23
I13
sg24
I0
sbssg25
S'vH\xe2\xee\xf2$\x02`\xc5N\x84\xfa\x8f\x81\x84k'
p98
ssS'src_rockstor_storageadmin_views_snapshot'
p99
(dp100
g6
(dp101
S'html_filename'
p102
S'src_rockstor_storageadmin_views_snapshot.html'
p103
sS'name'
p104
S'src/rockstor/storageadmin/views/snapshot'
p105
sS'nums'
p106
g13
(g14
g15
NtRp107
(dp108
g18
I1
sg19
I0
sg20
I156
sg21
I0
sg22
I0
sg23
I37
sg24
I0
sbssg25
S'{\xf4\xc9\x98$\xe7\x9a\x15\xd9GQ\x02\x86\x8d\xca\xd4'
p109
ssS'src_rockstor_storageadmin_views_user'
p110
(dp111
g6
(dp112
g8
S'src_rockstor_storageadmin_views_user.html'
p113
sg10
S'src/rockstor/storageadmin/views/user'
p114
sg12
g13
(g14
g15
NtRp115
(dp116
g18
I1
sg19
I0
sg20
I214
sg21
I0
sg22
I0
sg23
I15
sg24
I0
sbssg25
S'\x7f\x87\xcf\xf6\x84\xd2\xdf\xfb\xb8\xcf~\xb8z[\xf0\xdb'
p117
ssS'src_rockstor_storageadmin_views_views'
p118
(dp119
g6
(dp120
g8
S'src_rockstor_storageadmin_views_views.html'
p121
sg10
S'src/rockstor/storageadmin/views/views'
p122
sg12
g13
(g14
g15
NtRp123
(dp124
g18
I1
sg19
I0
sg20
I0
sg21
I0
sg22
I0
sg23
I0
sg24
I0
sbssg25
S'{\xd99q\x98)\xfekT\xb8H7M\x1c\x94\xba'
p125
ssS'src_rockstor_storageadmin_views_support'
p126
(dp127
g6
(dp128
g8
S'src_rockstor_storageadmin_views_support.html'
p129
sg10
S'src/rockstor/storageadmin/views/support'
p130
sg12
g13
(g14
g15
NtRp131
(dp132
g18
I1
sg19
I0
sg20
I74
sg21
I0
sg22
I0
sg23
I49
sg24
I0
sbssg25
S'\xbdKJ\xfd\x10d\xf2\xd6&%\x7f!\x19w\x14\xe2'
p133
ssS'src_rockstor_storageadmin_views_share_iscsi'
p134
(dp135
g6
(dp136
g8
S'src_rockstor_storageadmin_views_share_iscsi.html'
p137
sg10
S'src/rockstor/storageadmin/views/share_iscsi'
p138
sg12
g13
(g14
g15
NtRp139
(dp140
g18
I1
sg19
I0
sg20
I58
sg21
I0
sg22
I0
sg23
I42
sg24
I0
sbssg25
S'\xa1\x18T\xa1\x93\xf1\xac\xc8-\xa5H\xac\x12 \x8aO'
p141
ssS'src_rockstor_storageadmin_views_setup_user'
p142
(dp143
g6
(dp144
g8
S'src_rockstor_storageadmin_views_setup_user.html'
p145
sg10
S'src/rockstor/storageadmin/views/setup_user'
p146
sg12
g13
(g14
g15
NtRp147
(dp148
g18
I1
sg19
I0
sg20
I32
sg21
I0
sg22
I0
sg23
I20
sg24
I0
sbssg25
S'\xec\x94\x84\x1a\x9aM2\xb5p\xca\xa2\x96\x95\x1cq\n'
p149
ssS'src_rockstor_storageadmin_views_update_subscription'
p150
(dp151
g6
(dp152
g8
S'src_rockstor_storageadmin_views_update_subscription.html'
p153
sg10
S'src/rockstor/storageadmin/views/update_subscription'
p154
sg12
g13
(g14
g15
NtRp155
(dp156
g18
I1
sg19
I0
sg20
I67
sg21
I0
sg22
I0
sg23
I46
sg24
I0
sbssg25
S'\xc07\xd45M\xa6\xcd^9\x14\x1e\xfb\x92t\x14P'
p157
ssS'src_rockstor_storageadmin_views_pool_balance'
p158
(dp159
g6
(dp160
g8
S'src_rockstor_storageadmin_views_pool_balance.html'
p161
sg10
S'src/rockstor/storageadmin/views/pool_balance'
p162
sg12
g13
(g14
g15
NtRp163
(dp164
g18
I1
sg19
I0
sg20
I67
sg21
I0
sg22
I0
sg23
I47
sg24
I0
sbssg25
S'9x\xa8\xcf\x0f\xaa\xf9\xbf\x81\xed\xc1TJ\xf8\xff='
p165
ssS'src_rockstor_storageadmin_views_pool'
p166
(dp167
g6
(dp168
g8
S'src_rockstor_storageadmin_views_pool.html'
p169
sg10
S'src/rockstor/storageadmin/views/pool'
p170
sg12
g13
(g14
g15
NtRp171
(dp172
g18
I1
sg19
I0
sg20
I294
sg21
I0
sg22
I0
sg23
I32
sg24
I0
sbssg25
S'N^\xa7\xc1\xce\xc0\x92\x1d\xefP\xbf\xe7\x90\x118\x83'
p173
ssS'src_rockstor_storageadmin_views_pool_scrub'
p174
(dp175
g6
(dp176
g8
S'src_rockstor_storageadmin_views_pool_scrub.html'
p177
sg10
S'src/rockstor/storageadmin/views/pool_scrub'
p178
sg12
g13
(g14
g15
NtRp179
(dp180
g18
I1
sg19
I0
sg20
I58
sg21
I0
sg22
I0
sg23
I41
sg24
I0
sbssg25
S'\x9a\xef\xa4\x9f\x7f\xb4\xf4\xbeo\xca\x8e\xbeG\xd1N\xae'
p181
ssS'src_rockstor_storageadmin_views_rockon'
p182
(dp183
g6
(dp184
g8
S'src_rockstor_storageadmin_views_rockon.html'
p185
sg10
S'src/rockstor/storageadmin/views/rockon'
p186
sg12
g13
(g14
g15
NtRp187
(dp188
g18
I1
sg19
I0
sg20
I166
sg21
I0
sg22
I0
sg23
I145
sg24
I0
sbssg25
S'G<i\x8e\xb8p\xcf#\xec\x9f+\xf89\xc9\xb1\xf5'
p189
ssS'src_rockstor_storageadmin_views_sftp'
p190
(dp191
g6
(dp192
g8
S'src_rockstor_storageadmin_views_sftp.html'
p193
sg10
S'src/rockstor/storageadmin/views/sftp'
p194
sg12
g13
(g14
g15
NtRp195
(dp196
g18
I1
sg19
I0
sg20
I79
sg21
I0
sg22
I0
sg23
I13
sg24
I0
sbssg25
S'u\xbf\xb7\xcf\xa9\xff\x88m\xfd\xa5\xf2>\xd4\xf4\x19\xb4'
p197
ssS'src_rockstor_storageadmin_views_rockon_json'
p198
(dp199
g6
(dp200
g8
S'src_rockstor_storageadmin_views_rockon_json.html'
p201
sg10
S'src/rockstor/storageadmin/views/rockon_json'
p202
sg12
g13
(g14
g15
NtRp203
(dp204
g18
I1
sg19
I0
sg20
I10
sg21
I0
sg22
I0
sg23
I10
sg24
I0
sbssg25
S'\xdb&\x14\xd7\x1cP\x82\xa2\x10\xd3TM\r\xa9TP'
p205
ssS'src_rockstor_storageadmin_views_rockon_volume'
p206
(dp207
g6
(dp208
g8
S'src_rockstor_storageadmin_views_rockon_volume.html'
p209
sg10
S'src/rockstor/storageadmin/views/rockon_volume'
p210
sg12
g13
(g14
g15
NtRp211
(dp212
g18
I1
sg19
I0
sg20
I14
sg21
I0
sg22
I0
sg23
I7
sg24
I0
sbssg25
S'\xf9\x1eb\xf5\x1c\x14\xfbh-\xd2\x9fJ\x90=\xafH'
p213
ssS'src_rockstor_storageadmin_views_network'
p214
(dp215
g6
(dp216
g8
S'src_rockstor_storageadmin_views_network.html'
p217
sg10
S'src/rockstor/storageadmin/views/network'
p218
sg12
g13
(g14
g15
NtRp219
(dp220
g18
I1
sg19
I0
sg20
I158
sg21
I0
sg22
I0
sg23
I127
sg24
I0
sbssg25
S'EM\xbag("\xdb\xf0k\xca2q\x1evng'
p221
ssS'src_rockstor_storageadmin_views_command'
p222
(dp223
g6
(dp224
S'html_filename'
p225
S'src_rockstor_storageadmin_views_command.html'
p226
sS'name'
p227
S'src/rockstor/storageadmin/views/command'
p228
sS'nums'
p229
g13
(g14
g15
NtRp230
(dp231
g18
I1
sg19
I0
sg20
I178
sg21
I0
sg22
I0
sg23
I152
sg24
I0
sbssg25
S'\x9e\x9dh\xcaV\xbd-\x91J\xbe\x94?\x0fqX\n'
p232
ssS'src_rockstor_storageadmin_views_disk_smart'
p233
(dp234
g6
(dp235
g8
S'src_rockstor_storageadmin_views_disk_smart.html'
p236
sg10
S'src/rockstor/storageadmin/views/disk_smart'
p237
sg12
g13
(g14
g15
NtRp238
(dp239
g18
I1
sg19
I0
sg20
I86
sg21
I0
sg22
I0
sg23
I64
sg24
I0
sbssg25
S'\x9e\x82\x0f\x03)\x90|\xf1Z\xf2\x0b\xe7\xa0#\x93)'
p240
ssS'src_rockstor_storageadmin_views_share_helpers'
p241
(dp242
g6
(dp243
g102
S'src_rockstor_storageadmin_views_share_helpers.html'
p244
sg104
S'src/rockstor/storageadmin/views/share_helpers'
p245
sg106
g13
(g14
g15
NtRp246
(dp247
g18
I1
sg19
I0
sg20
I106
sg21
I0
sg22
I0
sg23
I86
sg24
I0
sbssg25
S' cA\x04U\xd2C\xb6W\xbf\xba\xc0\xef]\xbbl'
p248
ssS'src_rockstor_storageadmin_views_rockon_custom_config'
p249
(dp250
g6
(dp251
g8
S'src_rockstor_storageadmin_views_rockon_custom_config.html'
p252
sg10
S'src/rockstor/storageadmin/views/rockon_custom_config'
p253
sg12
g13
(g14
g15
NtRp254
(dp255
g18
I1
sg19
I0
sg20
I13
sg21
I0
sg22
I0
sg23
I6
sg24
I0
sbssg25
S'\x94V\xf46\xb3\xb9\x15\x8b*~\xddTb\xcb\xe8='
p256
ssS'src_rockstor_storageadmin_views_rockon_port'
p257
(dp258
g6
(dp259
g8
S'src_rockstor_storageadmin_views_rockon_port.html'
p260
sg10
S'src/rockstor/storageadmin/views/rockon_port'
p261
sg12
g13
(g14
g15
NtRp262
(dp263
g18
I1
sg19
I0
sg20
I14
sg21
I0
sg22
I0
sg23
I7
sg24
I0
sbssg25
S'=\xe8\x94\x1e\xce\xb5*f\xad\x8f\xba\x14\x922M\xb0'
p264
ssS'src_rockstor_storageadmin_views_login'
p265
(dp266
g6
(dp267
g8
S'src_rockstor_storageadmin_views_login.html'
p268
sg10
S'src/rockstor/storageadmin/views/login'
p269
sg12
g13
(g14
g15
NtRp270
(dp271
g18
I1
sg19
I0
sg20
I19
sg21
I0
sg22
I0
sg23
I10
sg24
I0
sbssg25
S'\xaa\x82\x89\x0f\x9c\xecAJX\x02\x7f\xd4H \xa7r'
p272
ssS'src_rockstor_storageadmin_views_appliances'
p273
(dp274
g6
(dp275
g8
S'src_rockstor_storageadmin_views_appliances.html'
p276
sg10
S'src/rockstor/storageadmin/views/appliances'
p277
sg12
g13
(g14
g15
NtRp278
(dp279
g18
I1
sg19
I0
sg20
I121
sg21
I0
sg22
I0
sg23
I96
sg24
I0
sbssg25
S'\x95\x10\xafP\xcaV\xca\x0cm\xdcu,\x9d4_\x03'
p280
ssS'src_rockstor_storageadmin_views_share'
p281
(dp282
g6
(dp283
g8
S'src_rockstor_storageadmin_views_share.html'
p284
sg10
S'src/rockstor/storageadmin/views/share'
p285
sg12
g13
(g14
g15
NtRp286
(dp287
g18
I1
sg19
I0
sg20
I172
sg21
I0
sg22
I0
sg23
I7
sg24
I0
sbssg25
S'\x9e\x9a\xf5\xe9\x19\x1cG\xef\xdb\x81\xbf\xff\xc6YD\xb2'
p288
ssS'src_rockstor_storageadmin_views_samba'
p289
(dp290
g6
(dp291
g8
S'src_rockstor_storageadmin_views_samba.html'
p292
sg10
S'src/rockstor/storageadmin/views/samba'
p293
sg12
g13
(g14
g15
NtRp294
(dp295
g18
I1
sg19
I0
sg20
I153
sg21
I0
sg22
I0
sg23
I5
sg24
I0
sbssg25
S'E\x913NM\xfb\x01\xfd\x1a\xa8i\xbc\x03\x89\x0e3'
p296
ssS'src_rockstor_storageadmin_views_config_backup'
p297
(dp298
g6
(dp299
g8
S'src_rockstor_storageadmin_views_config_backup.html'
p300
sg10
S'src/rockstor/storageadmin/views/config_backup'
p301
sg12
g13
(g14
g15
NtRp302
(dp303
g18
I1
sg19
I0
sg20
I206
sg21
I0
sg22
I0
sg23
I163
sg24
I0
sbssg25
S'\xfc\x1d`j#\x118\xb0\x02\xf8@\xff)\xfe\x17?'
p304
ssS'src_rockstor_storageadmin_views_group'
p305
(dp306
g6
(dp307
g8
S'src_rockstor_storageadmin_views_group.html'
p308
sg10
S'src/rockstor/storageadmin/views/group'
p309
sg12
g13
(g14
g15
NtRp310
(dp311
g18
I1
sg19
I0
sg20
I72
sg21
I0
sg22
I0
sg23
I50
sg24
I0
sbssg25
S'\xe1\xae\x1a,~\x8f\x94\xdcB\xb4\x06,\x0cKp\x03'
p312
ssS'src_rockstor_storageadmin_views_share_command'
p313
(dp314
g6
(dp315
g8
S'src_rockstor_storageadmin_views_share_command.html'
p316
sg10
S'src/rockstor/storageadmin/views/share_command'
p317
sg12
g13
(g14
g15
NtRp318
(dp319
g18
I1
sg19
I0
sg20
I49
sg21
I0
sg22
I0
sg23
I0
sg24
I0
sbssg25
S'\xb2)\x13\xb7*q\x1e\xc5EN\x86\xc9D\xa8~v'
p320
ssS'src_rockstor_storageadmin_views_share_acl'
p321
(dp322
g6
(dp323
g8
S'src_rockstor_storageadmin_views_share_acl.html'
p324
sg10
S'src/rockstor/storageadmin/views/share_acl'
p325
sg12
g13
(g14
g15
NtRp326
(dp327
g18
I1
sg19
I0
sg20
I34
sg21
I0
sg22
I0
sg23
I22
sg24
I0
sbssg25
S'Ag\xdb\r\x7f\xe7\xa8rK,h8\xcb\xb8yQ'
p328
ssS'src_rockstor_storageadmin_views_dashboardconfig'
p329
(dp330
g6
(dp331
g8
S'src_rockstor_storageadmin_views_dashboardconfig.html'
p332
sg10
S'src/rockstor/storageadmin/views/dashboardconfig'
p333
sg12
g13
(g14
g15
NtRp334
(dp335
g18
I1
sg19
I0
sg20
I54
sg21
I0
sg22
I0
sg23
I35
sg24
I0
sbssg25
S'*\x0c\xc7l\x84t\xd59R\xb1\x0b\xe7Fsk\xd7'
p336
ssS'src_rockstor_storageadmin_views_nfs_exports'
p337
(dp338
g6
(dp339
g102
S'src_rockstor_storageadmin_views_nfs_exports.html'
p340
sg104
S'src/rockstor/storageadmin/views/nfs_exports'
p341
sg106
g13
(g14
g15
NtRp342
(dp343
g18
I1
sg19
I0
sg20
I214
sg21
I0
sg22
I0
sg23
I4
sg24
I0
sbssg25
S'\xba\x08F\xd9\x0f\xffQ\xef\x0e\x90w\x9c&\x9bH<'
p344
ssS'src_rockstor_storageadmin_views_home'
p345
(dp346
g6
(dp347
g8
S'src_rockstor_storageadmin_views_home.html'
p348
sg10
S'src/rockstor/storageadmin/views/home'
p349
sg12
g13
(g14
g15
NtRp350
(dp351
g18
I1
sg19
I0
sg20
I36
sg21
I0
sg22
I0
sg23
I24
sg24
I0
sbssg25
S'\xff\xed\xfb\x960(\x82Q\x9dp\xcd\x1a{o\x8d\x0f'
p352
sssS'version'
p353
S'3.7.1'
p354
sS'settings'
p355
S'\x18\x96\x86(Z/L@\xa2\x16\x17\x7f\x01\xabw2'
p356
sS'format'
p357
I1
s.