(dp1
S'files'
p2
(dp3
S'src_rockstor_storageadmin_views_rockon_id'
p4
(dp5
S'index'
p6
(dp7
S'html_filename'
p8
S'src_rockstor_storageadmin_views_rockon_id.html'
p9
sS'name'
p10
S'src/rockstor/storageadmin/views/rockon_id'
p11
sS'nums'
p12
ccopy_reg
_reconstructor
p13
(ccoverage.results
Numbers
p14
c__builtin__
object
p15
NtRp16
(dp17
S'n_files'
p18
I1
sS'n_branches'
p19
I0
sS'n_statements'
p20
I160
sS'n_excluded'
p21
I0
sS'n_partial_branches'
p22
I0
sS'n_missing'
p23
I160
sS'n_missing_branches'
p24
I0
sbssS'hash'
p25
S'~\x12\xfc\xc9\x99\x80+\x08C\x8d\x94H\x80>\xe1B'
p26
ssS'src_rockstor_storageadmin_views___init__'
p27
(dp28
g6
(dp29
g8
S'src_rockstor_storageadmin_views___init__.html'
p30
sg10
S'src/rockstor/storageadmin/views/__init__'
p31
sg12
g13
(g14
g15
NtRp32
(dp33
g18
I1
sg19
I0
sg20
I33
sg21
I0
sg22
I0
sg23
I33
sg24
I0
sbssg25
S'S\x86\xafz\xea\x87X\x04\xa9\xfa\x96\xbbN+"\xba'
p34
ssS'src_rockstor_storageadmin_views_ug_helpers'
p35
(dp36
g6
(dp37
g8
S'src_rockstor_storageadmin_views_ug_helpers.html'
p38
sg10
S'src/rockstor/storageadmin/views/ug_helpers'
p39
sg12
g13
(g14
g15
NtRp40
(dp41
g18
I1
sg19
I0
sg20
I67
sg21
I0
sg22
I0
sg23
I67
sg24
I0
sbssg25
S'1\xc3\xda\x86\xfap`a\xceK\x9c\xd8\x10K\xa3\xd8'
p42
ssS'src_rockstor_storageadmin_views_command'
p43
(dp44
g6
(dp45
g8
S'src_rockstor_storageadmin_views_command.html'
p46
sg10
S'src/rockstor/storageadmin/views/command'
p47
sg12
g13
(g14
g15
NtRp48
(dp49
g18
I1
sg19
I0
sg20
I190
sg21
I0
sg22
I0
sg23
I190
sg24
I0
sbssg25
S'ADN\xec\xefx\xbc\xe3\xcaY\xa8\x07\x05*E\x93'
p50
ssS'src_rockstor_storageadmin_views_rockon_utils'
p51
(dp52
g6
(dp53
g8
S'src_rockstor_storageadmin_views_rockon_utils.html'
p54
sg10
S'src/rockstor/storageadmin/views/rockon_utils'
p55
sg12
g13
(g14
g15
NtRp56
(dp57
g18
I1
sg19
I0
sg20
I25
sg21
I0
sg22
I0
sg23
I25
sg24
I0
sbssg25
S'kHd\x96o\xb8\xe2#\xd9{\x9ft\xda\x80\xc5w'
p58
ssS'src_rockstor_storageadmin_views_tls_certificate'
p59
(dp60
g6
(dp61
g8
S'src_rockstor_storageadmin_views_tls_certificate.html'
p62
sg10
S'src/rockstor/storageadmin/views/tls_certificate'
p63
sg12
g13
(g14
g15
NtRp64
(dp65
g18
I1
sg19
I0
sg20
I53
sg21
I0
sg22
I0
sg23
I53
sg24
I0
sbssg25
S'\x8c\xab\x01p*\xf6}0\x91\xd5\x0ez\xef6\xee\x10'
p66
ssS'src_rockstor_storageadmin_views_oauth_app'
p67
(dp68
g6
(dp69
g8
S'src_rockstor_storageadmin_views_oauth_app.html'
p70
sg10
S'src/rockstor/storageadmin/views/oauth_app'
p71
sg12
g13
(g14
g15
NtRp72
(dp73
g18
I1
sg19
I0
sg20
I51
sg21
I0
sg22
I0
sg23
I51
sg24
I0
sbssg25
S'zI-\x8c\x9a\x07F\x9cA\x8b\xed\xc6\x87\x81\xae\x10'
p74
ssS'src_rockstor_storageadmin_views_netatalk'
p75
(dp76
g6
(dp77
g8
S'src_rockstor_storageadmin_views_netatalk.html'
p78
sg10
S'src/rockstor/storageadmin/views/netatalk'
p79
sg12
g13
(g14
g15
NtRp80
(dp81
g18
I1
sg19
I0
sg20
I93
sg21
I0
sg22
I0
sg23
I93
sg24
I0
sbssg25
S'\xf0\x9f(6\xdc\xf0\xee\xc9\xb1\xff\xe6$b\xd10|'
p82
ssS'src_rockstor_storageadmin_views_nfs_exports'
p83
(dp84
g6
(dp85
g8
S'src_rockstor_storageadmin_views_nfs_exports.html'
p86
sg10
S'src/rockstor/storageadmin/views/nfs_exports'
p87
sg12
g13
(g14
g15
NtRp88
(dp89
g18
I1
sg19
I0
sg20
I216
sg21
I0
sg22
I0
sg23
I216
sg24
I0
sbssg25
S'\x94\x99I\x9f\xf1A^ \xb1\xdbF<\x88\xfd\xb3\x1e'
p90
ssS'src_rockstor_storageadmin_views_rockon_json'
p91
(dp92
g6
(dp93
g8
S'src_rockstor_storageadmin_views_rockon_json.html'
p94
sg10
S'src/rockstor/storageadmin/views/rockon_json'
p95
sg12
g13
(g14
g15
NtRp96
(dp97
g18
I1
sg19
I0
sg20
I10
sg21
I0
sg22
I0
sg23
I10
sg24
I0
sbssg25
S'\xdb&\x14\xd7\x1cP\x82\xa2\x10\xd3TM\r\xa9TP'
p98
ssS'src_rockstor_storageadmin_views_snapshot'
p99
(dp100
g6
(dp101
g8
S'src_rockstor_storageadmin_views_snapshot.html'
p102
sg10
S'src/rockstor/storageadmin/views/snapshot'
p103
sg12
g13
(g14
g15
NtRp104
(dp105
g18
I1
sg19
I0
sg20
I155
sg21
I0
sg22
I0
sg23
I155
sg24
I0
sbssg25
S'6p\xd8\x84rG^ds"\xa2NS\xe1\x89H'
p106
ssS'src_rockstor_storageadmin_views_user'
p107
(dp108
g6
(dp109
g8
S'src_rockstor_storageadmin_views_user.html'
p110
sg10
S'src/rockstor/storageadmin/views/user'
p111
sg12
g13
(g14
g15
NtRp112
(dp113
g18
I1
sg19
I0
sg20
I216
sg21
I0
sg22
I0
sg23
I216
sg24
I0
sbssg25
S'\x98\xa27"N\xfc\\s\x14\xafR\xec\xab\xc7bF'
p114
ssS'src_rockstor_storageadmin_views_views'
p115
(dp116
g6
(dp117
g8
S'src_rockstor_storageadmin_views_views.html'
p118
sg10
S'src/rockstor/storageadmin/views/views'
p119
sg12
g13
(g14
g15
NtRp120
(dp121
g18
I1
sg19
I0
sg20
I0
sg21
I0
sg22
I0
sg23
I0
sg24
I0
sbssg25
S'{\xd99q\x98)\xfekT\xb8H7M\x1c\x94\xba'
p122
ssS'src_rockstor_storageadmin_views_rockon_helpers'
p123
(dp124
g6
(dp125
S'html_filename'
p126
S'src_rockstor_storageadmin_views_rockon_helpers.html'
p127
sS'name'
p128
S'src/rockstor/storageadmin/views/rockon_helpers'
p129
sS'nums'
p130
g13
(g14
g15
NtRp131
(dp132
g18
I1
sg19
I0
sg20
I195
sg21
I0
sg22
I0
sg23
I195
sg24
I0
sbssg25
S"t7\xfb'\xf9B\xeekn\xf25\x91*\x9b\xa5o"
p133
ssS'src_rockstor_storageadmin_views_clone_helpers'
p134
(dp135
g6
(dp136
g8
S'src_rockstor_storageadmin_views_clone_helpers.html'
p137
sg10
S'src/rockstor/storageadmin/views/clone_helpers'
p138
sg12
g13
(g14
g15
NtRp139
(dp140
g18
I1
sg19
I0
sg20
I31
sg21
I0
sg22
I0
sg23
I31
sg24
I0
sbssg25
S'H\xf6\x04\xa3\x1e4\xbd\xb7\xd5\xcb+U\xefj\xe4\x08'
p141
ssS'src_rockstor_storageadmin_views_disk'
p142
(dp143
g6
(dp144
g8
S'src_rockstor_storageadmin_views_disk.html'
p145
sg10
S'src/rockstor/storageadmin/views/disk'
p146
sg12
g13
(g14
g15
NtRp147
(dp148
g18
I1
sg19
I0
sg20
I227
sg21
I0
sg22
I0
sg23
I227
sg24
I0
sbssg25
S'^~\xb0\xd7C\xe8\xba\xce\xd8z\x80\xbd\xf6`\xfd!'
p149
ssS'src_rockstor_storageadmin_views_setup_user'
p150
(dp151
g6
(dp152
g8
S'src_rockstor_storageadmin_views_setup_user.html'
p153
sg10
S'src/rockstor/storageadmin/views/setup_user'
p154
sg12
g13
(g14
g15
NtRp155
(dp156
g18
I1
sg19
I0
sg20
I32
sg21
I0
sg22
I0
sg23
I32
sg24
I0
sbssg25
S'P[/\x9dk2\x85o\xfe\xf1\xe5^Z\x89\xfe!'
p157
ssS'src_rockstor_storageadmin_views_update_subscription'
p158
(dp159
g6
(dp160
g8
S'src_rockstor_storageadmin_views_update_subscription.html'
p161
sg10
S'src/rockstor/storageadmin/views/update_subscription'
p162
sg12
g13
(g14
g15
NtRp163
(dp164
g18
I1
sg19
I0
sg20
I68
sg21
I0
sg22
I0
sg23
I68
sg24
I0
sbssg25
S'|\xaf\xed\xef\x85\xee\xb5\x11\xb7\x98\xc3\x0c\x80+P\xc9'
p165
ssS'src_rockstor_storageadmin_views_pool_balance'
p166
(dp167
g6
(dp168
g8
S'src_rockstor_storageadmin_views_pool_balance.html'
p169
sg10
S'src/rockstor/storageadmin/views/pool_balance'
p170
sg12
g13
(g14
g15
NtRp171
(dp172
g18
I1
sg19
I0
sg20
I67
sg21
I0
sg22
I0
sg23
I67
sg24
I0
sbssg25
S"s`)\xad\xb4\xe6\x1a\x93\x1f\xdf\xce\r\xc0'PC"
p173
ssS'src_rockstor_storageadmin_views_pool'
p174
(dp175
g6
(dp176
g8
S'src_rockstor_storageadmin_views_pool.html'
p177
sg10
S'src/rockstor/storageadmin/views/pool'
p178
sg12
g13
(g14
g15
NtRp179
(dp180
g18
I1
sg19
I0
sg20
I295
sg21
I0
sg22
I0
sg23
I295
sg24
I0
sbssg25
S'\xe8\xae\x91\xf1\x8c\x95\xdan\xe9\xafr\xc7\xe2m=k'
p181
ssS'src_rockstor_storageadmin_views_pool_scrub'
p182
(dp183
g6
(dp184
g8
S'src_rockstor_storageadmin_views_pool_scrub.html'
p185
sg10
S'src/rockstor/storageadmin/views/pool_scrub'
p186
sg12
g13
(g14
g15
NtRp187
(dp188
g18
I1
sg19
I0
sg20
I58
sg21
I0
sg22
I0
sg23
I58
sg24
I0
sbssg25
S'@\xd0\xbc\xec\x9d\x9a\x9ev\xbe\xc0\xc7\xe3.\xbc\x94\xb5'
p189
ssS'src_rockstor_storageadmin_views_rockon'
p190
(dp191
g6
(dp192
g8
S'src_rockstor_storageadmin_views_rockon.html'
p193
sg10
S'src/rockstor/storageadmin/views/rockon'
p194
sg12
g13
(g14
g15
NtRp195
(dp196
g18
I1
sg19
I0
sg20
I268
sg21
I0
sg22
I0
sg23
I268
sg24
I0
sbssg25
S'\x01\xa1\xd5%C\x8e\xf8kV2\x89\xc9=e*\xed'
p197
ssS'src_rockstor_storageadmin_views_sftp'
p198
(dp199
g6
(dp200
g8
S'src_rockstor_storageadmin_views_sftp.html'
p201
sg10
S'src/rockstor/storageadmin/views/sftp'
p202
sg12
g13
(g14
g15
NtRp203
(dp204
g18
I1
sg19
I0
sg20
I79
sg21
I0
sg22
I0
sg23
I79
sg24
I0
sbssg25
S'\xc4\xb3\x1f\x15K\xb6k\xe8; \xa7\xb9\xdeC\xda\xc1'
p205
ssS'src_rockstor_storageadmin_views_rockon_volume'
p206
(dp207
g6
(dp208
g8
S'src_rockstor_storageadmin_views_rockon_volume.html'
p209
sg10
S'src/rockstor/storageadmin/views/rockon_volume'
p210
sg12
g13
(g14
g15
NtRp211
(dp212
g18
I1
sg19
I0
sg20
I14
sg21
I0
sg22
I0
sg23
I14
sg24
I0
sbssg25
S'\xcfL\xb9\xf0]\x8e\x86\xb5\xd5o\xdaNs\xeb\xf2f'
p213
ssS'src_rockstor_storageadmin_views_network'
p214
(dp215
g6
(dp216
g8
S'src_rockstor_storageadmin_views_network.html'
p217
sg10
S'src/rockstor/storageadmin/views/network'
p218
sg12
g13
(g14
g15
NtRp219
(dp220
g18
I1
sg19
I0
sg20
I268
sg21
I0
sg22
I0
sg23
I268
sg24
I0
sbssg25
S'\xafG\xfc\r\xcd\xd5\xa1+\xd4N\xf6\xb7e\xb8\x8c\x10'
p221
ssS'src_rockstor_storageadmin_views_email_client'
p222
(dp223
g6
(dp224
g8
S'src_rockstor_storageadmin_views_email_client.html'
p225
sg10
S'src/rockstor/storageadmin/views/email_client'
p226
sg12
g13
(g14
g15
NtRp227
(dp228
g18
I1
sg19
I0
sg20
I123
sg21
I0
sg22
I0
sg23
I123
sg24
I0
sbssg25
S'\xd9G\xee\x81\xdb[h\xb0\xb3\xaf\xfe\x08\xc5\x01\x12X'
p229
ssS'src_rockstor_storageadmin_views_disk_smart'
p230
(dp231
g6
(dp232
g8
S'src_rockstor_storageadmin_views_disk_smart.html'
p233
sg10
S'src/rockstor/storageadmin/views/disk_smart'
p234
sg12
g13
(g14
g15
NtRp235
(dp236
g18
I1
sg19
I0
sg20
I83
sg21
I0
sg22
I0
sg23
I83
sg24
I0
sbssg25
S'\xeeL9\xb7\x1f\xa18\\\x8e6P\xe0`\x8f<\x93'
p237
ssS'src_rockstor_storageadmin_views_share_helpers'
p238
(dp239
g6
(dp240
g8
S'src_rockstor_storageadmin_views_share_helpers.html'
p241
sg10
S'src/rockstor/storageadmin/views/share_helpers'
p242
sg12
g13
(g14
g15
NtRp243
(dp244
g18
I1
sg19
I0
sg20
I106
sg21
I0
sg22
I0
sg23
I106
sg24
I0
sbssg25
S'_\x18\xb9\xac\xe4\xe7e\xb3CR\x92=\x00\xfd\x18G'
p245
ssS'src_rockstor_storageadmin_views_rockon_custom_config'
p246
(dp247
g6
(dp248
g8
S'src_rockstor_storageadmin_views_rockon_custom_config.html'
p249
sg10
S'src/rockstor/storageadmin/views/rockon_custom_config'
p250
sg12
g13
(g14
g15
NtRp251
(dp252
g18
I1
sg19
I0
sg20
I13
sg21
I0
sg22
I0
sg23
I13
sg24
I0
sbssg25
S'e\x11\xad\x0cp\x9du\xf64\x8f\x8a\xc0\xfe\x82\x19\x82'
p253
ssS'src_rockstor_storageadmin_views_rockon_port'
p254
(dp255
g6
(dp256
g8
S'src_rockstor_storageadmin_views_rockon_port.html'
p257
sg10
S'src/rockstor/storageadmin/views/rockon_port'
p258
sg12
g13
(g14
g15
NtRp259
(dp260
g18
I1
sg19
I0
sg20
I14
sg21
I0
sg22
I0
sg23
I14
sg24
I0
sbssg25
S"\xd9\x80\xab6\xc5\xf6\x840\xebBi\xff\x0f~\xe3'"
p261
ssS'src_rockstor_storageadmin_views_login'
p262
(dp263
g6
(dp264
g8
S'src_rockstor_storageadmin_views_login.html'
p265
sg10
S'src/rockstor/storageadmin/views/login'
p266
sg12
g13
(g14
g15
NtRp267
(dp268
g18
I1
sg19
I0
sg20
I19
sg21
I0
sg22
I0
sg23
I19
sg24
I0
sbssg25
S'\x98\x1d=q\xb7\x1cuMJ0\xfa\xb7P\xfa\x8c;'
p269
ssS'src_rockstor_storageadmin_views_appliances'
p270
(dp271
g6
(dp272
g8
S'src_rockstor_storageadmin_views_appliances.html'
p273
sg10
S'src/rockstor/storageadmin/views/appliances'
p274
sg12
g13
(g14
g15
NtRp275
(dp276
g18
I1
sg19
I0
sg20
I119
sg21
I0
sg22
I0
sg23
I119
sg24
I0
sbssg25
S'O\x00\x07\x96\xe1\xef\x1b\rjH:r\xc6\x12S\xe5'
p277
ssS'src_rockstor_storageadmin_views_share'
p278
(dp279
g6
(dp280
g8
S'src_rockstor_storageadmin_views_share.html'
p281
sg10
S'src/rockstor/storageadmin/views/share'
p282
sg12
g13
(g14
g15
NtRp283
(dp284
g18
I1
sg19
I0
sg20
I183
sg21
I0
sg22
I0
sg23
I183
sg24
I0
sbssg25
S'\x11\x0e\xfet\xa8~\x10\xba\xc3\xb3w\xd2Lg\xecs'
p285
ssS'src_rockstor_storageadmin_views_samba'
p286
(dp287
g6
(dp288
g8
S'src_rockstor_storageadmin_views_samba.html'
p289
sg10
S'src/rockstor/storageadmin/views/samba'
p290
sg12
g13
(g14
g15
NtRp291
(dp292
g18
I1
sg19
I0
sg20
I159
sg21
I0
sg22
I0
sg23
I159
sg24
I0
sbssg25
S'2*;$&%Q\xc1\x05\x91\xaa\xd9\xdf\xbb1N'
p293
ssS'src_rockstor_storageadmin_views_config_backup'
p294
(dp295
g6
(dp296
g8
S'src_rockstor_storageadmin_views_config_backup.html'
p297
sg10
S'src/rockstor/storageadmin/views/config_backup'
p298
sg12
g13
(g14
g15
NtRp299
(dp300
g18
I1
sg19
I0
sg20
I206
sg21
I0
sg22
I0
sg23
I206
sg24
I0
sbssg25
S'\x98\xae\x1d\x13\x98\x03.!("*\xd2u\xccCm'
p301
ssS'src_rockstor_storageadmin_views_group'
p302
(dp303
g6
(dp304
g8
S'src_rockstor_storageadmin_views_group.html'
p305
sg10
S'src/rockstor/storageadmin/views/group'
p306
sg12
g13
(g14
g15
NtRp307
(dp308
g18
I1
sg19
I0
sg20
I77
sg21
I0
sg22
I0
sg23
I77
sg24
I0
sbssg25
S'\x9d9\xc2\x88\xde\xc0xQ\xf6U\xa4\xa4\x12|>S'
p309
ssS'src_rockstor_storageadmin_views_rockon_environment'
p310
(dp311
g6
(dp312
g8
S'src_rockstor_storageadmin_views_rockon_environment.html'
p313
sg10
S'src/rockstor/storageadmin/views/rockon_environment'
p314
sg12
g13
(g14
g15
NtRp315
(dp316
g18
I1
sg19
I0
sg20
I14
sg21
I0
sg22
I0
sg23
I14
sg24
I0
sbssg25
S'\xd1R\xff\x9a\xf4\x00\x93\x1b\x91\xe4K}\x03+\xe2\xc6'
p317
ssS'src_rockstor_storageadmin_views_share_command'
p318
(dp319
g6
(dp320
g8
S'src_rockstor_storageadmin_views_share_command.html'
p321
sg10
S'src/rockstor/storageadmin/views/share_command'
p322
sg12
g13
(g14
g15
NtRp323
(dp324
g18
I1
sg19
I0
sg20
I49
sg21
I0
sg22
I0
sg23
I49
sg24
I0
sbssg25
S'\x1dq?\xe6\xd1.AC\xb1\xa9\x0e\x0f\xfa\xc3\xedn'
p325
ssS'src_rockstor_storageadmin_views_share_acl'
p326
(dp327
g6
(dp328
g8
S'src_rockstor_storageadmin_views_share_acl.html'
p329
sg10
S'src/rockstor/storageadmin/views/share_acl'
p330
sg12
g13
(g14
g15
NtRp331
(dp332
g18
I1
sg19
I0
sg20
I34
sg21
I0
sg22
I0
sg23
I34
sg24
I0
sbssg25
S'\xae\xba(\x9b\x80jF\xf8dn\xb6 \xafl\x04\xcc'
p333
ssS'src_rockstor_storageadmin_views_dashboardconfig'
p334
(dp335
g6
(dp336
g8
S'src_rockstor_storageadmin_views_dashboardconfig.html'
p337
sg10
S'src/rockstor/storageadmin/views/dashboardconfig'
p338
sg12
g13
(g14
g15
NtRp339
(dp340
g18
I1
sg19
I0
sg20
I54
sg21
I0
sg22
I0
sg23
I54
sg24
I0
sbssg25
S'\x9fu\t\xf5\x92\x7f9X\x06\xb6c\xc5;2:\xf0'
p341
ssS'src_rockstor_storageadmin_views_rockon_discourse'
p342
(dp343
g6
(dp344
g8
S'src_rockstor_storageadmin_views_rockon_discourse.html'
p345
sg10
S'src/rockstor/storageadmin/views/rockon_discourse'
p346
sg12
g13
(g14
g15
NtRp347
(dp348
g18
I1
sg19
I0
sg20
I74
sg21
I0
sg22
I0
sg23
I74
sg24
I0
sbssg25
S'\xa4\\nc\xdeB\xc3U}V\x8a@\xff-H\x19'
p349
ssS'src_rockstor_storageadmin_views_home'
p350
(dp351
g6
(dp352
g8
S'src_rockstor_storageadmin_views_home.html'
p353
sg10
S'src/rockstor/storageadmin/views/home'
p354
sg12
g13
(g14
g15
NtRp355
(dp356
g18
I1
sg19
I0
sg20
I40
sg21
I0
sg22
I0
sg23
I40
sg24
I0
sbssg25
S'\x9c\xe4\x7fLNlM\x8d\xf7\xd9\r\xcd\xfb-\xaa]'
p357
sssS'version'
p358
S'3.7.1'
p359
sS'settings'
p360
S'\xbb\xaa\xdd\xb1\xe1\x93\xbai\x025 \xea\xebQ\xdf\xec'
p361
sS'format'
p362
I1
s.