(dp1
S'files'
p2
(dp3
S'src_rockstor_storageadmin_views_rockon_id'
p4
(dp5
S'index'
p6
(dp7
S'html_filename'
p8
S'src_rockstor_storageadmin_views_rockon_id.html'
p9
sS'name'
p10
S'src/rockstor/storageadmin/views/rockon_id'
p11
sS'nums'
p12
ccopy_reg
_reconstructor
p13
(ccoverage.results
Numbers
p14
c__builtin__
object
p15
NtRp16
(dp17
S'n_files'
p18
I1
sS'n_branches'
p19
I0
sS'n_statements'
p20
I142
sS'n_excluded'
p21
I0
sS'n_partial_branches'
p22
I0
sS'n_missing'
p23
I125
sS'n_missing_branches'
p24
I0
sbssS'hash'
p25
S'Q*\x06\xf1;yM\xf1\x8e\x89\xe6\xed\xd31\x14{'
p26
ssS'src_rockstor_storageadmin_views___init__'
p27
(dp28
g6
(dp29
g8
S'src_rockstor_storageadmin_views___init__.html'
p30
sg10
S'src/rockstor/storageadmin/views/__init__'
p31
sg12
g13
(g14
g15
NtRp32
(dp33
g18
I1
sg19
I0
sg20
I35
sg21
I0
sg22
I0
sg23
I0
sg24
I0
sbssg25
S'{i.1~\x03F\xfd46z\xad\xefoW\xe5'
p34
ssS'src_rockstor_storageadmin_views_ug_helpers'
p35
(dp36
g6
(dp37
g8
S'src_rockstor_storageadmin_views_ug_helpers.html'
p38
sg10
S'src/rockstor/storageadmin/views/ug_helpers'
p39
sg12
g13
(g14
g15
NtRp40
(dp41
g18
I1
sg19
I0
sg20
I63
sg21
I0
sg22
I0
sg23
I31
sg24
I0
sbssg25
S'\x19B~k\xfb\xa4\xefXr!\x99\xae\\\xfd\x9bu'
p42
ssS'src_rockstor_storageadmin_views_command'
p43
(dp44
g6
(dp45
S'html_filename'
p46
S'src_rockstor_storageadmin_views_command.html'
p47
sS'name'
p48
S'src/rockstor/storageadmin/views/command'
p49
sS'nums'
p50
g13
(g14
g15
NtRp51
(dp52
g18
I1
sg19
I0
sg20
I178
sg21
I0
sg22
I0
sg23
I152
sg24
I0
sbssg25
S'\x9e\x9dh\xcaV\xbd-\x91J\xbe\x94?\x0fqX\n'
p53
ssS'src_rockstor_storageadmin_views_tls_certificate'
p54
(dp55
g6
(dp56
g8
S'src_rockstor_storageadmin_views_tls_certificate.html'
p57
sg10
S'src/rockstor/storageadmin/views/tls_certificate'
p58
sg12
g13
(g14
g15
NtRp59
(dp60
g18
I1
sg19
I0
sg20
I53
sg21
I0
sg22
I0
sg23
I35
sg24
I0
sbssg25
S'#\xeb[\x90\x1f\xb65\xd6\x0b\xeb}\x97\x8e\x85S\x82'
p61
ssS'src_rockstor_storageadmin_views_oauth_app'
p62
(dp63
g6
(dp64
g8
S'src_rockstor_storageadmin_views_oauth_app.html'
p65
sg10
S'src/rockstor/storageadmin/views/oauth_app'
p66
sg12
g13
(g14
g15
NtRp67
(dp68
g18
I1
sg19
I0
sg20
I51
sg21
I0
sg22
I0
sg23
I37
sg24
I0
sbssg25
S'\x8c\xa7Ff\xe9us5b\xed,2\xc7\x88{\xf7'
p69
ssS'src_rockstor_storageadmin_views_rockon_helpers'
p70
(dp71
g6
(dp72
g8
S'src_rockstor_storageadmin_views_rockon_helpers.html'
p73
sg10
S'src/rockstor/storageadmin/views/rockon_helpers'
p74
sg12
g13
(g14
g15
NtRp75
(dp76
g18
I1
sg19
I0
sg20
I195
sg21
I0
sg22
I0
sg23
I160
sg24
I0
sbssg25
S'I\xb1\xb0f\x95\xf0\x8dm\xad\xd7\xec\xe1C\xe5\x00\x9d'
p77
ssS'src_rockstor_storageadmin_views_clone_helpers'
p78
(dp79
g6
(dp80
g8
S'src_rockstor_storageadmin_views_clone_helpers.html'
p81
sg10
S'src/rockstor/storageadmin/views/clone_helpers'
p82
sg12
g13
(g14
g15
NtRp83
(dp84
g18
I1
sg19
I0
sg20
I31
sg21
I0
sg22
I0
sg23
I23
sg24
I0
sbssg25
S'\x07\x18\x1d\x01\x19s\xd9\x9f/\xe5\xe9\xb4P\x80\xd2m'
p85
ssS'src_rockstor_storageadmin_views_netatalk'
p86
(dp87
g6
(dp88
g8
S'src_rockstor_storageadmin_views_netatalk.html'
p89
sg10
S'src/rockstor/storageadmin/views/netatalk'
p90
sg12
g13
(g14
g15
NtRp91
(dp92
g18
I1
sg19
I0
sg20
I93
sg21
I0
sg22
I0
sg23
I13
sg24
I0
sbssg25
S'vH\xe2\xee\xf2$\x02`\xc5N\x84\xfa\x8f\x81\x84k'
p93
ssS'src_rockstor_storageadmin_views_snapshot'
p94
(dp95
g6
(dp96
S'html_filename'
p97
S'src_rockstor_storageadmin_views_snapshot.html'
p98
sS'name'
p99
S'src/rockstor/storageadmin/views/snapshot'
p100
sS'nums'
p101
g13
(g14
g15
NtRp102
(dp103
g18
I1
sg19
I0
sg20
I156
sg21
I0
sg22
I0
sg23
I37
sg24
I0
sbssg25
S'{\xf4\xc9\x98$\xe7\x9a\x15\xd9GQ\x02\x86\x8d\xca\xd4'
p104
ssS'src_rockstor_storageadmin_views_user'
p105
(dp106
g6
(dp107
g8
S'src_rockstor_storageadmin_views_user.html'
p108
sg10
S'src/rockstor/storageadmin/views/user'
p109
sg12
g13
(g14
g15
NtRp110
(dp111
g18
I1
sg19
I0
sg20
I214
sg21
I0
sg22
I0
sg23
I15
sg24
I0
sbssg25
S'\x7f\x87\xcf\xf6\x84\xd2\xdf\xfb\xb8\xcf~\xb8z[\xf0\xdb'
p112
ssS'src_rockstor_storageadmin_views_views'
p113
(dp114
g6
(dp115
g8
S'src_rockstor_storageadmin_views_views.html'
p116
sg10
S'src/rockstor/storageadmin/views/views'
p117
sg12
g13
(g14
g15
NtRp118
(dp119
g18
I1
sg19
I0
sg20
I0
sg21
I0
sg22
I0
sg23
I0
sg24
I0
sbssg25
S'{\xd99q\x98)\xfekT\xb8H7M\x1c\x94\xba'
p120
ssS'src_rockstor_storageadmin_views_support'
p121
(dp122
g6
(dp123
g8
S'src_rockstor_storageadmin_views_support.html'
p124
sg10
S'src/rockstor/storageadmin/views/support'
p125
sg12
g13
(g14
g15
NtRp126
(dp127
g18
I1
sg19
I0
sg20
I74
sg21
I0
sg22
I0
sg23
I49
sg24
I0
sbssg25
S'\xbdKJ\xfd\x10d\xf2\xd6&%\x7f!\x19w\x14\xe2'
p128
ssS'src_rockstor_storageadmin_views_share_iscsi'
p129
(dp130
g6
(dp131
g8
S'src_rockstor_storageadmin_views_share_iscsi.html'
p132
sg10
S'src/rockstor/storageadmin/views/share_iscsi'
p133
sg12
g13
(g14
g15
NtRp134
(dp135
g18
I1
sg19
I0
sg20
I58
sg21
I0
sg22
I0
sg23
I42
sg24
I0
sbssg25
S'\xa1\x18T\xa1\x93\xf1\xac\xc8-\xa5H\xac\x12 \x8aO'
p136
ssS'src_rockstor_storageadmin_views_setup_user'
p137
(dp138
g6
(dp139
g8
S'src_rockstor_storageadmin_views_setup_user.html'
p140
sg10
S'src/rockstor/storageadmin/views/setup_user'
p141
sg12
g13
(g14
g15
NtRp142
(dp143
g18
I1
sg19
I0
sg20
I32
sg21
I0
sg22
I0
sg23
I20
sg24
I0
sbssg25
S'\xec\x94\x84\x1a\x9aM2\xb5p\xca\xa2\x96\x95\x1cq\n'
p144
ssS'src_rockstor_storageadmin_views_update_subscription'
p145
(dp146
g6
(dp147
g8
S'src_rockstor_storageadmin_views_update_subscription.html'
p148
sg10
S'src/rockstor/storageadmin/views/update_subscription'
p149
sg12
g13
(g14
g15
NtRp150
(dp151
g18
I1
sg19
I0
sg20
I67
sg21
I0
sg22
I0
sg23
I46
sg24
I0
sbssg25
S'\xc07\xd45M\xa6\xcd^9\x14\x1e\xfb\x92t\x14P'
p152
ssS'src_rockstor_storageadmin_views_pool_balance'
p153
(dp154
g6
(dp155
g8
S'src_rockstor_storageadmin_views_pool_balance.html'
p156
sg10
S'src/rockstor/storageadmin/views/pool_balance'
p157
sg12
g13
(g14
g15
NtRp158
(dp159
g18
I1
sg19
I0
sg20
I67
sg21
I0
sg22
I0
sg23
I47
sg24
I0
sbssg25
S'9x\xa8\xcf\x0f\xaa\xf9\xbf\x81\xed\xc1TJ\xf8\xff='
p160
ssS'src_rockstor_storageadmin_views_pool'
p161
(dp162
g6
(dp163
g8
S'src_rockstor_storageadmin_views_pool.html'
p164
sg10
S'src/rockstor/storageadmin/views/pool'
p165
sg12
g13
(g14
g15
NtRp166
(dp167
g18
I1
sg19
I0
sg20
I294
sg21
I0
sg22
I0
sg23
I32
sg24
I0
sbssg25
S'N^\xa7\xc1\xce\xc0\x92\x1d\xefP\xbf\xe7\x90\x118\x83'
p168
ssS'src_rockstor_storageadmin_views_pool_scrub'
p169
(dp170
g6
(dp171
g8
S'src_rockstor_storageadmin_views_pool_scrub.html'
p172
sg10
S'src/rockstor/storageadmin/views/pool_scrub'
p173
sg12
g13
(g14
g15
NtRp174
(dp175
g18
I1
sg19
I0
sg20
I58
sg21
I0
sg22
I0
sg23
I41
sg24
I0
sbssg25
S'\x9a\xef\xa4\x9f\x7f\xb4\xf4\xbeo\xca\x8e\xbeG\xd1N\xae'
p176
ssS'src_rockstor_storageadmin_views_rockon'
p177
(dp178
g6
(dp179
g8
S'src_rockstor_storageadmin_views_rockon.html'
p180
sg10
S'src/rockstor/storageadmin/views/rockon'
p181
sg12
g13
(g14
g15
NtRp182
(dp183
g18
I1
sg19
I0
sg20
I166
sg21
I0
sg22
I0
sg23
I145
sg24
I0
sbssg25
S'G<i\x8e\xb8p\xcf#\xec\x9f+\xf89\xc9\xb1\xf5'
p184
ssS'src_rockstor_storageadmin_views_sftp'
p185
(dp186
g6
(dp187
g8
S'src_rockstor_storageadmin_views_sftp.html'
p188
sg10
S'src/rockstor/storageadmin/views/sftp'
p189
sg12
g13
(g14
g15
NtRp190
(dp191
g18
I1
sg19
I0
sg20
I79
sg21
I0
sg22
I0
sg23
I13
sg24
I0
sbssg25
S'u\xbf\xb7\xcf\xa9\xff\x88m\xfd\xa5\xf2>\xd4\xf4\x19\xb4'
p192
ssS'src_rockstor_storageadmin_views_rockon_volume'
p193
(dp194
g6
(dp195
g8
S'src_rockstor_storageadmin_views_rockon_volume.html'
p196
sg10
S'src/rockstor/storageadmin/views/rockon_volume'
p197
sg12
g13
(g14
g15
NtRp198
(dp199
g18
I1
sg19
I0
sg20
I14
sg21
I0
sg22
I0
sg23
I7
sg24
I0
sbssg25
S'\xf9\x1eb\xf5\x1c\x14\xfbh-\xd2\x9fJ\x90=\xafH'
p200
ssS'src_rockstor_storageadmin_views_network'
p201
(dp202
g6
(dp203
S'html_filename'
p204
S'src_rockstor_storageadmin_views_network.html'
p205
sS'name'
p206
S'src/rockstor/storageadmin/views/network'
p207
sS'nums'
p208
g13
(g14
g15
NtRp209
(dp210
g18
I1
sg19
I0
sg20
I158
sg21
I0
sg22
I0
sg23
I31
sg24
I0
sbssg25
S'\x9d\x17\xf8\xde\xd6Y\x05+\xfc\x7f\xc9[\xf5<.\x94'
p211
ssS'src_rockstor_storageadmin_views_email_client'
p212
(dp213
g6
(dp214
g8
S'src_rockstor_storageadmin_views_email_client.html'
p215
sg10
S'src/rockstor/storageadmin/views/email_client'
p216
sg12
g13
(g14
g15
NtRp217
(dp218
g18
I1
sg19
I0
sg20
I96
sg21
I0
sg22
I0
sg23
I66
sg24
I0
sbssg25
S'\xc9"\x9f\xa6\xdb\xd2\xc4\x86\t,\xab\x93\x13k~\xd9'
p219
ssS'src_rockstor_storageadmin_views_disk'
p220
(dp221
g6
(dp222
g8
S'src_rockstor_storageadmin_views_disk.html'
p223
sg10
S'src/rockstor/storageadmin/views/disk'
p224
sg12
g13
(g14
g15
NtRp225
(dp226
g18
I1
sg19
I0
sg20
I170
sg21
I0
sg22
I0
sg23
I90
sg24
I0
sbssg25
S'BK\xba\xf1\xbci}\xac\xc9\x0c\xa5\xaa\xff\xddI\x86'
p227
ssS'src_rockstor_storageadmin_views_share_helpers'
p228
(dp229
g6
(dp230
g97
S'src_rockstor_storageadmin_views_share_helpers.html'
p231
sg99
S'src/rockstor/storageadmin/views/share_helpers'
p232
sg101
g13
(g14
g15
NtRp233
(dp234
g18
I1
sg19
I0
sg20
I106
sg21
I0
sg22
I0
sg23
I86
sg24
I0
sbssg25
S' cA\x04U\xd2C\xb6W\xbf\xba\xc0\xef]\xbbl'
p235
ssS'src_rockstor_storageadmin_views_rockon_custom_config'
p236
(dp237
g6
(dp238
g8
S'src_rockstor_storageadmin_views_rockon_custom_config.html'
p239
sg10
S'src/rockstor/storageadmin/views/rockon_custom_config'
p240
sg12
g13
(g14
g15
NtRp241
(dp242
g18
I1
sg19
I0
sg20
I13
sg21
I0
sg22
I0
sg23
I6
sg24
I0
sbssg25
S'\x94V\xf46\xb3\xb9\x15\x8b*~\xddTb\xcb\xe8='
p243
ssS'src_rockstor_storageadmin_views_appliances'
p244
(dp245
g6
(dp246
g8
S'src_rockstor_storageadmin_views_appliances.html'
p247
sg10
S'src/rockstor/storageadmin/views/appliances'
p248
sg12
g13
(g14
g15
NtRp249
(dp250
g18
I1
sg19
I0
sg20
I121
sg21
I0
sg22
I0
sg23
I96
sg24
I0
sbssg25
S'\x95\x10\xafP\xcaV\xca\x0cm\xdcu,\x9d4_\x03'
p251
ssS'src_rockstor_storageadmin_views_rockon_port'
p252
(dp253
g6
(dp254
g8
S'src_rockstor_storageadmin_views_rockon_port.html'
p255
sg10
S'src/rockstor/storageadmin/views/rockon_port'
p256
sg12
g13
(g14
g15
NtRp257
(dp258
g18
I1
sg19
I0
sg20
I14
sg21
I0
sg22
I0
sg23
I7
sg24
I0
sbssg25
S'=\xe8\x94\x1e\xce\xb5*f\xad\x8f\xba\x14\x922M\xb0'
p259
ssS'src_rockstor_storageadmin_views_login'
p260
(dp261
g6
(dp262
g8
S'src_rockstor_storageadmin_views_login.html'
p263
sg10
S'src/rockstor/storageadmin/views/login'
p264
sg12
g13
(g14
g15
NtRp265
(dp266
g18
I1
sg19
I0
sg20
I19
sg21
I0
sg22
I0
sg23
I10
sg24
I0
sbssg25
S'\xaa\x82\x89\x0f\x9c\xecAJX\x02\x7f\xd4H \xa7r'
p267
ssS'src_rockstor_storageadmin_views_disk_smart'
p268
(dp269
g6
(dp270
g8
S'src_rockstor_storageadmin_views_disk_smart.html'
p271
sg10
S'src/rockstor/storageadmin/views/disk_smart'
p272
sg12
g13
(g14
g15
NtRp273
(dp274
g18
I1
sg19
I0
sg20
I86
sg21
I0
sg22
I0
sg23
I64
sg24
I0
sbssg25
S'\x9e\x82\x0f\x03)\x90|\xf1Z\xf2\x0b\xe7\xa0#\x93)'
p275
ssS'src_rockstor_storageadmin_views_dashboardconfig'
p276
(dp277
g6
(dp278
g8
S'src_rockstor_storageadmin_views_dashboardconfig.html'
p279
sg10
S'src/rockstor/storageadmin/views/dashboardconfig'
p280
sg12
g13
(g14
g15
NtRp281
(dp282
g18
I1
sg19
I0
sg20
I54
sg21
I0
sg22
I0
sg23
I35
sg24
I0
sbssg25
S'*\x0c\xc7l\x84t\xd59R\xb1\x0b\xe7Fsk\xd7'
p283
ssS'src_rockstor_storageadmin_views_share'
p284
(dp285
g6
(dp286
g8
S'src_rockstor_storageadmin_views_share.html'
p287
sg10
S'src/rockstor/storageadmin/views/share'
p288
sg12
g13
(g14
g15
NtRp289
(dp290
g18
I1
sg19
I0
sg20
I172
sg21
I0
sg22
I0
sg23
I7
sg24
I0
sbssg25
S'\x9e\x9a\xf5\xe9\x19\x1cG\xef\xdb\x81\xbf\xff\xc6YD\xb2'
p291
ssS'src_rockstor_storageadmin_views_samba'
p292
(dp293
g6
(dp294
g8
S'src_rockstor_storageadmin_views_samba.html'
p295
sg10
S'src/rockstor/storageadmin/views/samba'
p296
sg12
g13
(g14
g15
NtRp297
(dp298
g18
I1
sg19
I0
sg20
I153
sg21
I0
sg22
I0
sg23
I5
sg24
I0
sbssg25
S'E\x913NM\xfb\x01\xfd\x1a\xa8i\xbc\x03\x89\x0e3'
p299
ssS'src_rockstor_storageadmin_views_config_backup'
p300
(dp301
g6
(dp302
g8
S'src_rockstor_storageadmin_views_config_backup.html'
p303
sg10
S'src/rockstor/storageadmin/views/config_backup'
p304
sg12
g13
(g14
g15
NtRp305
(dp306
g18
I1
sg19
I0
sg20
I206
sg21
I0
sg22
I0
sg23
I163
sg24
I0
sbssg25
S'\xfc\x1d`j#\x118\xb0\x02\xf8@\xff)\xfe\x17?'
p307
ssS'src_rockstor_storageadmin_views_group'
p308
(dp309
g6
(dp310
g8
S'src_rockstor_storageadmin_views_group.html'
p311
sg10
S'src/rockstor/storageadmin/views/group'
p312
sg12
g13
(g14
g15
NtRp313
(dp314
g18
I1
sg19
I0
sg20
I72
sg21
I0
sg22
I0
sg23
I50
sg24
I0
sbssg25
S'\xe1\xae\x1a,~\x8f\x94\xdcB\xb4\x06,\x0cKp\x03'
p315
ssS'src_rockstor_storageadmin_views_share_command'
p316
(dp317
g6
(dp318
g8
S'src_rockstor_storageadmin_views_share_command.html'
p319
sg10
S'src/rockstor/storageadmin/views/share_command'
p320
sg12
g13
(g14
g15
NtRp321
(dp322
g18
I1
sg19
I0
sg20
I49
sg21
I0
sg22
I0
sg23
I0
sg24
I0
sbssg25
S'\xb2)\x13\xb7*q\x1e\xc5EN\x86\xc9D\xa8~v'
p323
ssS'src_rockstor_storageadmin_views_share_acl'
p324
(dp325
g6
(dp326
g8
S'src_rockstor_storageadmin_views_share_acl.html'
p327
sg10
S'src/rockstor/storageadmin/views/share_acl'
p328
sg12
g13
(g14
g15
NtRp329
(dp330
g18
I1
sg19
I0
sg20
I34
sg21
I0
sg22
I0
sg23
I22
sg24
I0
sbssg25
S'Ag\xdb\r\x7f\xe7\xa8rK,h8\xcb\xb8yQ'
p331
ssS'src_rockstor_storageadmin_views_rockon_json'
p332
(dp333
g6
(dp334
g8
S'src_rockstor_storageadmin_views_rockon_json.html'
p335
sg10
S'src/rockstor/storageadmin/views/rockon_json'
p336
sg12
g13
(g14
g15
NtRp337
(dp338
g18
I1
sg19
I0
sg20
I10
sg21
I0
sg22
I0
sg23
I10
sg24
I0
sbssg25
S'\xdb&\x14\xd7\x1cP\x82\xa2\x10\xd3TM\r\xa9TP'
p339
ssS'src_rockstor_storageadmin_views_nfs_exports'
p340
(dp341
g6
(dp342
g97
S'src_rockstor_storageadmin_views_nfs_exports.html'
p343
sg99
S'src/rockstor/storageadmin/views/nfs_exports'
p344
sg101
g13
(g14
g15
NtRp345
(dp346
g18
I1
sg19
I0
sg20
I214
sg21
I0
sg22
I0
sg23
I4
sg24
I0
sbssg25
S'\xba\x08F\xd9\x0f\xffQ\xef\x0e\x90w\x9c&\x9bH<'
p347
ssS'src_rockstor_storageadmin_views_home'
p348
(dp349
g6
(dp350
g8
S'src_rockstor_storageadmin_views_home.html'
p351
sg10
S'src/rockstor/storageadmin/views/home'
p352
sg12
g13
(g14
g15
NtRp353
(dp354
g18
I1
sg19
I0
sg20
I36
sg21
I0
sg22
I0
sg23
I24
sg24
I0
sbssg25
S'\xff\xed\xfb\x960(\x82Q\x9dp\xcd\x1a{o\x8d\x0f'
p355
sssS'version'
p356
S'3.7.1'
p357
sS'settings'
p358
S'\x18\x96\x86(Z/L@\xa2\x16\x17\x7f\x01\xabw2'
p359
sS'format'
p360
I1
s.