(dp1
S'files'
p2
(dp3
S'src_rockstor_storageadmin_views_rockon_id'
p4
(dp5
S'index'
p6
(dp7
S'html_filename'
p8
S'src_rockstor_storageadmin_views_rockon_id.html'
p9
sS'name'
p10
S'src/rockstor/storageadmin/views/rockon_id'
p11
sS'nums'
p12
ccopy_reg
_reconstructor
p13
(ccoverage.results
Numbers
p14
c__builtin__
object
p15
NtRp16
(dp17
S'n_files'
p18
I1
sS'n_branches'
p19
I0
sS'n_statements'
p20
I160
sS'n_excluded'
p21
I0
sS'n_partial_branches'
p22
I0
sS'n_missing'
p23
I142
sS'n_missing_branches'
p24
I0
sbssS'hash'
p25
S'\x85\xc9M,G\x1c\xedN=M\xf6\x12\x0c\xc4D;'
p26
ssS'src_rockstor_storageadmin_views___init__'
p27
(dp28
g6
(dp29
S'html_filename'
p30
S'src_rockstor_storageadmin_views___init__.html'
p31
sS'name'
p32
S'src/rockstor/storageadmin/views/__init__'
p33
sS'nums'
p34
g13
(g14
g15
NtRp35
(dp36
g18
I1
sg19
I0
sg20
I34
sg21
I0
sg22
I0
sg23
I0
sg24
I0
sbssg25
S'\xcc\xee\x90\xb4\xbc\xd0h\xe8"\x04\x97\xb7\xb8\xf0\xf9#'
p37
ssS'src_rockstor_storageadmin_views_ug_helpers'
p38
(dp39
g6
(dp40
g30
S'src_rockstor_storageadmin_views_ug_helpers.html'
p41
sg32
S'src/rockstor/storageadmin/views/ug_helpers'
p42
sg34
g13
(g14
g15
NtRp43
(dp44
g18
I1
sg19
I0
sg20
I63
sg21
I0
sg22
I0
sg23
I31
sg24
I0
sbssg25
S'\x08\xc6\x9d\xb1\xf9\xd66\xfcD\xcbJ\x134\xbe\xe6^'
p45
ssS'src_rockstor_storageadmin_views_command'
p46
(dp47
g6
(dp48
g30
S'src_rockstor_storageadmin_views_command.html'
p49
sg32
S'src/rockstor/storageadmin/views/command'
p50
sg34
g13
(g14
g15
NtRp51
(dp52
g18
I1
sg19
I0
sg20
I190
sg21
I0
sg22
I0
sg23
I79
sg24
I0
sbssg25
S'\xff\x0b\x9e\x1e\xea$k\xd7\xb8\xe6\x8dgB\xa0\xf8\xdd'
p53
ssS'src_rockstor_storageadmin_views_rockon_utils'
p54
(dp55
g6
(dp56
g30
S'src_rockstor_storageadmin_views_rockon_utils.html'
p57
sg32
S'src/rockstor/storageadmin/views/rockon_utils'
p58
sg34
g13
(g14
g15
NtRp59
(dp60
g18
I1
sg19
I0
sg20
I25
sg21
I0
sg22
I0
sg23
I20
sg24
I0
sbssg25
S"\xbd\x9b\xf2\xa2\x13\xaa\xec')\xd0&\xb4\xe3\x8d\xaa="
p61
ssS'src_rockstor_storageadmin_views_tls_certificate'
p62
(dp63
g6
(dp64
g30
S'src_rockstor_storageadmin_views_tls_certificate.html'
p65
sg32
S'src/rockstor/storageadmin/views/tls_certificate'
p66
sg34
g13
(g14
g15
NtRp67
(dp68
g18
I1
sg19
I0
sg20
I53
sg21
I0
sg22
I0
sg23
I16
sg24
I0
sbssg25
S'\xf5\x9f\x80&\xaa\xba\xe5=\x8b\xdb\xab\x1b\x99\x84\xa9\xbe'
p69
ssS'src_rockstor_storageadmin_views_oauth_app'
p70
(dp71
g6
(dp72
g30
S'src_rockstor_storageadmin_views_oauth_app.html'
p73
sg32
S'src/rockstor/storageadmin/views/oauth_app'
p74
sg34
g13
(g14
g15
NtRp75
(dp76
g18
I1
sg19
I0
sg20
I51
sg21
I0
sg22
I0
sg23
I20
sg24
I0
sbssg25
S'I\xe7_9*\x8d\xbdI\xfd\xf1E\xfd\x98\xa7G\xa0'
p77
ssS'src_rockstor_storageadmin_views_netatalk'
p78
(dp79
g6
(dp80
g30
S'src_rockstor_storageadmin_views_netatalk.html'
p81
sg32
S'src/rockstor/storageadmin/views/netatalk'
p82
sg34
g13
(g14
g15
NtRp83
(dp84
g18
I1
sg19
I0
sg20
I93
sg21
I0
sg22
I0
sg23
I13
sg24
I0
sbssg25
S'vH\xe2\xee\xf2$\x02`\xc5N\x84\xfa\x8f\x81\x84k'
p85
ssS'src_rockstor_storageadmin_views_nfs_exports'
p86
(dp87
g6
(dp88
g30
S'src_rockstor_storageadmin_views_nfs_exports.html'
p89
sg32
S'src/rockstor/storageadmin/views/nfs_exports'
p90
sg34
g13
(g14
g15
NtRp91
(dp92
g18
I1
sg19
I0
sg20
I216
sg21
I0
sg22
I0
sg23
I5
sg24
I0
sbssg25
S'\xa9\xb0:\xd6\xfb\xc4r\x84\xd5\xb1\xba\xde\xccx\xdd\x9f'
p93
ssS'src_rockstor_storageadmin_views_rockon_json'
p94
(dp95
g6
(dp96
g30
S'src_rockstor_storageadmin_views_rockon_json.html'
p97
sg32
S'src/rockstor/storageadmin/views/rockon_json'
p98
sg34
g13
(g14
g15
NtRp99
(dp100
g18
I1
sg19
I0
sg20
I10
sg21
I0
sg22
I0
sg23
I10
sg24
I0
sbssg25
S'\xdb&\x14\xd7\x1cP\x82\xa2\x10\xd3TM\r\xa9TP'
p101
ssS'src_rockstor_storageadmin_views_snapshot'
p102
(dp103
g6
(dp104
g30
S'src_rockstor_storageadmin_views_snapshot.html'
p105
sg32
S'src/rockstor/storageadmin/views/snapshot'
p106
sg34
g13
(g14
g15
NtRp107
(dp108
g18
I1
sg19
I0
sg20
I155
sg21
I0
sg22
I0
sg23
I37
sg24
I0
sbssg25
S'O\xf5m;\xd0.\xaa\x15\x9d\xf0pI]\xb2CY'
p109
ssS'src_rockstor_storageadmin_views_user'
p110
(dp111
g6
(dp112
g30
S'src_rockstor_storageadmin_views_user.html'
p113
sg32
S'src/rockstor/storageadmin/views/user'
p114
sg34
g13
(g14
g15
NtRp115
(dp116
g18
I1
sg19
I0
sg20
I214
sg21
I0
sg22
I0
sg23
I15
sg24
I0
sbssg25
S'\x7f\x87\xcf\xf6\x84\xd2\xdf\xfb\xb8\xcf~\xb8z[\xf0\xdb'
p117
ssS'src_rockstor_storageadmin_views_views'
p118
(dp119
g6
(dp120
g30
S'src_rockstor_storageadmin_views_views.html'
p121
sg32
S'src/rockstor/storageadmin/views/views'
p122
sg34
g13
(g14
g15
NtRp123
(dp124
g18
I1
sg19
I0
sg20
I0
sg21
I0
sg22
I0
sg23
I0
sg24
I0
sbssg25
S'{\xd99q\x98)\xfekT\xb8H7M\x1c\x94\xba'
p125
ssS'src_rockstor_storageadmin_views_rockon_helpers'
p126
(dp127
g6
(dp128
g30
S'src_rockstor_storageadmin_views_rockon_helpers.html'
p129
sg32
S'src/rockstor/storageadmin/views/rockon_helpers'
p130
sg34
g13
(g14
g15
NtRp131
(dp132
g18
I1
sg19
I0
sg20
I195
sg21
I0
sg22
I0
sg23
I152
sg24
I0
sbssg25
S'\xf3)7\xe0\xeaLHZ\xe8\x8d[\xd0\x07\x85\xd3\x98'
p133
ssS'src_rockstor_storageadmin_views_clone_helpers'
p134
(dp135
g6
(dp136
g30
S'src_rockstor_storageadmin_views_clone_helpers.html'
p137
sg32
S'src/rockstor/storageadmin/views/clone_helpers'
p138
sg34
g13
(g14
g15
NtRp139
(dp140
g18
I1
sg19
I0
sg20
I31
sg21
I0
sg22
I0
sg23
I23
sg24
I0
sbssg25
S'\x07\x18\x1d\x01\x19s\xd9\x9f/\xe5\xe9\xb4P\x80\xd2m'
p141
ssS'src_rockstor_storageadmin_views_disk'
p142
(dp143
g6
(dp144
g30
S'src_rockstor_storageadmin_views_disk.html'
p145
sg32
S'src/rockstor/storageadmin/views/disk'
p146
sg34
g13
(g14
g15
NtRp147
(dp148
g18
I1
sg19
I0
sg20
I198
sg21
I0
sg22
I0
sg23
I93
sg24
I0
sbssg25
S'\r\xd0\xb0\x84\xdb\xf5[\xbc\x16\x9f\x96\xc3/<\xbb\xde'
p149
ssS'src_rockstor_storageadmin_views_setup_user'
p150
(dp151
g6
(dp152
g30
S'src_rockstor_storageadmin_views_setup_user.html'
p153
sg32
S'src/rockstor/storageadmin/views/setup_user'
p154
sg34
g13
(g14
g15
NtRp155
(dp156
g18
I1
sg19
I0
sg20
I32
sg21
I0
sg22
I0
sg23
I20
sg24
I0
sbssg25
S'\xec\x94\x84\x1a\x9aM2\xb5p\xca\xa2\x96\x95\x1cq\n'
p157
ssS'src_rockstor_storageadmin_views_update_subscription'
p158
(dp159
g6
(dp160
g30
S'src_rockstor_storageadmin_views_update_subscription.html'
p161
sg32
S'src/rockstor/storageadmin/views/update_subscription'
p162
sg34
g13
(g14
g15
NtRp163
(dp164
g18
I1
sg19
I0
sg20
I68
sg21
I0
sg22
I0
sg23
I37
sg24
I0
sbssg25
S'E\x1f\x9dD=\xc92i^f\xcc\xf4\xeet\x05\xfb'
p165
ssS'src_rockstor_storageadmin_views_pool_balance'
p166
(dp167
g6
(dp168
g30
S'src_rockstor_storageadmin_views_pool_balance.html'
p169
sg32
S'src/rockstor/storageadmin/views/pool_balance'
p170
sg34
g13
(g14
g15
NtRp171
(dp172
g18
I1
sg19
I0
sg20
I67
sg21
I0
sg22
I0
sg23
I23
sg24
I0
sbssg25
S'\x91\x9a\xb2\xb5!\x1f\x05\x8f\xd9\x11w3\x1c\x11$\xb2'
p173
ssS'src_rockstor_storageadmin_views_pool'
p174
(dp175
g6
(dp176
g30
S'src_rockstor_storageadmin_views_pool.html'
p177
sg32
S'src/rockstor/storageadmin/views/pool'
p178
sg34
g13
(g14
g15
NtRp179
(dp180
g18
I1
sg19
I0
sg20
I294
sg21
I0
sg22
I0
sg23
I38
sg24
I0
sbssg25
S'_\t\x93\xfb]\xc9\ro./.\xa7b\xe6\x04\x90'
p181
ssS'src_rockstor_storageadmin_views_pool_scrub'
p182
(dp183
g6
(dp184
g30
S'src_rockstor_storageadmin_views_pool_scrub.html'
p185
sg32
S'src/rockstor/storageadmin/views/pool_scrub'
p186
sg34
g13
(g14
g15
NtRp187
(dp188
g18
I1
sg19
I0
sg20
I58
sg21
I0
sg22
I0
sg23
I6
sg24
I0
sbssg25
S'\xc3\xb6Af\x03\x0e\xbf\xf8R\x0b\xa9\xab\xc3\x1aw\xd2'
p189
ssS'src_rockstor_storageadmin_views_rockon'
p190
(dp191
g6
(dp192
g8
S'src_rockstor_storageadmin_views_rockon.html'
p193
sg10
S'src/rockstor/storageadmin/views/rockon'
p194
sg12
g13
(g14
g15
NtRp195
(dp196
g18
I1
sg19
I0
sg20
I265
sg21
I0
sg22
I0
sg23
I235
sg24
I0
sbssg25
S'\xd4\xac4\xe2F\x86\xeb,\xbf\xbb\x9b\xdah\xae\xcc6'
p197
ssS'src_rockstor_storageadmin_views_sftp'
p198
(dp199
g6
(dp200
g30
S'src_rockstor_storageadmin_views_sftp.html'
p201
sg32
S'src/rockstor/storageadmin/views/sftp'
p202
sg34
g13
(g14
g15
NtRp203
(dp204
g18
I1
sg19
I0
sg20
I79
sg21
I0
sg22
I0
sg23
I13
sg24
I0
sbssg25
S'u\xbf\xb7\xcf\xa9\xff\x88m\xfd\xa5\xf2>\xd4\xf4\x19\xb4'
p205
ssS'src_rockstor_storageadmin_views_rockon_volume'
p206
(dp207
g6
(dp208
g30
S'src_rockstor_storageadmin_views_rockon_volume.html'
p209
sg32
S'src/rockstor/storageadmin/views/rockon_volume'
p210
sg34
g13
(g14
g15
NtRp211
(dp212
g18
I1
sg19
I0
sg20
I14
sg21
I0
sg22
I0
sg23
I7
sg24
I0
sbssg25
S'\x83:\x8e\x86\xe0\x89\x8e-#\xaa}Hs\xf3N\x04'
p213
ssS'src_rockstor_storageadmin_views_network'
p214
(dp215
g6
(dp216
g30
S'src_rockstor_storageadmin_views_network.html'
p217
sg32
S'src/rockstor/storageadmin/views/network'
p218
sg34
g13
(g14
g15
NtRp219
(dp220
g18
I1
sg19
I0
sg20
I148
sg21
I0
sg22
I0
sg23
I29
sg24
I0
sbssg25
S'\x1b6@\xed\x82\x9f5\xcc\xc5\xc3\xeeHNl\\y'
p221
ssS'src_rockstor_storageadmin_views_email_client'
p222
(dp223
g6
(dp224
g30
S'src_rockstor_storageadmin_views_email_client.html'
p225
sg32
S'src/rockstor/storageadmin/views/email_client'
p226
sg34
g13
(g14
g15
NtRp227
(dp228
g18
I1
sg19
I0
sg20
I110
sg21
I0
sg22
I0
sg23
I44
sg24
I0
sbssg25
S';\x93\x00\x9d"\x10J\xa3\x8f\x9e\xb5\xfe\x8b\xcf\x18\xea'
p229
ssS'src_rockstor_storageadmin_views_disk_smart'
p230
(dp231
g6
(dp232
g30
S'src_rockstor_storageadmin_views_disk_smart.html'
p233
sg32
S'src/rockstor/storageadmin/views/disk_smart'
p234
sg34
g13
(g14
g15
NtRp235
(dp236
g18
I1
sg19
I0
sg20
I86
sg21
I0
sg22
I0
sg23
I46
sg24
I0
sbssg25
S'[\x8ae\xe43\x1d\xf8\xeb5)}HX\xd4\xcf<'
p237
ssS'src_rockstor_storageadmin_views_share_helpers'
p238
(dp239
g6
(dp240
g30
S'src_rockstor_storageadmin_views_share_helpers.html'
p241
sg32
S'src/rockstor/storageadmin/views/share_helpers'
p242
sg34
g13
(g14
g15
NtRp243
(dp244
g18
I1
sg19
I0
sg20
I106
sg21
I0
sg22
I0
sg23
I86
sg24
I0
sbssg25
S'qc\xdaM\x02\x06\xea:\xe2\xb46\xa9\x0f\xb6\x0c\xdc'
p245
ssS'src_rockstor_storageadmin_views_rockon_custom_config'
p246
(dp247
g6
(dp248
g30
S'src_rockstor_storageadmin_views_rockon_custom_config.html'
p249
sg32
S'src/rockstor/storageadmin/views/rockon_custom_config'
p250
sg34
g13
(g14
g15
NtRp251
(dp252
g18
I1
sg19
I0
sg20
I13
sg21
I0
sg22
I0
sg23
I6
sg24
I0
sbssg25
S'\x89e\x0f\xa0\xdb\x8b$\x9bzVpm8r\x06\t'
p253
ssS'src_rockstor_storageadmin_views_rockon_port'
p254
(dp255
g6
(dp256
g30
S'src_rockstor_storageadmin_views_rockon_port.html'
p257
sg32
S'src/rockstor/storageadmin/views/rockon_port'
p258
sg34
g13
(g14
g15
NtRp259
(dp260
g18
I1
sg19
I0
sg20
I14
sg21
I0
sg22
I0
sg23
I7
sg24
I0
sbssg25
S'\xc8\xe4\xd9fY\x7f?\xad\xa7\xbc\x1c\r\xf1\x11\xd5c'
p261
ssS'src_rockstor_storageadmin_views_login'
p262
(dp263
g6
(dp264
g30
S'src_rockstor_storageadmin_views_login.html'
p265
sg32
S'src/rockstor/storageadmin/views/login'
p266
sg34
g13
(g14
g15
NtRp267
(dp268
g18
I1
sg19
I0
sg20
I19
sg21
I0
sg22
I0
sg23
I2
sg24
I0
sbssg25
S'w\xe0UfT\x8d\x89\xe8XlG\xed\xa4\xb9\x97,'
p269
ssS'src_rockstor_storageadmin_views_appliances'
p270
(dp271
g6
(dp272
g30
S'src_rockstor_storageadmin_views_appliances.html'
p273
sg32
S'src/rockstor/storageadmin/views/appliances'
p274
sg34
g13
(g14
g15
NtRp275
(dp276
g18
I1
sg19
I0
sg20
I117
sg21
I0
sg22
I0
sg23
I44
sg24
I0
sbssg25
S'\x18x\xd6"\xf7\xda[\xf1\xe8\x1bu\x1b\x8a\x08\xa7\x1d'
p277
ssS'src_rockstor_storageadmin_views_share'
p278
(dp279
g6
(dp280
g30
S'src_rockstor_storageadmin_views_share.html'
p281
sg32
S'src/rockstor/storageadmin/views/share'
p282
sg34
g13
(g14
g15
NtRp283
(dp284
g18
I1
sg19
I0
sg20
I181
sg21
I0
sg22
I0
sg23
I24
sg24
I0
sbssg25
S'\x0b\xbd\xf5}\xf54\xc8\xdcvHv\x8fqj4\xf5'
p285
ssS'src_rockstor_storageadmin_views_samba'
p286
(dp287
g6
(dp288
g30
S'src_rockstor_storageadmin_views_samba.html'
p289
sg32
S'src/rockstor/storageadmin/views/samba'
p290
sg34
g13
(g14
g15
NtRp291
(dp292
g18
I1
sg19
I0
sg20
I159
sg21
I0
sg22
I0
sg23
I12
sg24
I0
sbssg25
S'\'g\x1b\x9a\x8b\x00\x88\xe1["-\xc6i\xae\xbbs'
p293
ssS'src_rockstor_storageadmin_views_config_backup'
p294
(dp295
g6
(dp296
g30
S'src_rockstor_storageadmin_views_config_backup.html'
p297
sg32
S'src/rockstor/storageadmin/views/config_backup'
p298
sg34
g13
(g14
g15
NtRp299
(dp300
g18
I1
sg19
I0
sg20
I206
sg21
I0
sg22
I0
sg23
I121
sg24
I0
sbssg25
S'\xef$@\x01\xc0\xcc\xe8]\xaa\x80?$\xc5\xc3\x0f5'
p301
ssS'src_rockstor_storageadmin_views_group'
p302
(dp303
g6
(dp304
g30
S'src_rockstor_storageadmin_views_group.html'
p305
sg32
S'src/rockstor/storageadmin/views/group'
p306
sg34
g13
(g14
g15
NtRp307
(dp308
g18
I1
sg19
I0
sg20
I77
sg21
I0
sg22
I0
sg23
I7
sg24
I0
sbssg25
S'\x9f^\x90\x10Cc%s\xb9\xe8\xaezxA\x95m'
p309
ssS'src_rockstor_storageadmin_views_rockon_environment'
p310
(dp311
g6
(dp312
g30
S'src_rockstor_storageadmin_views_rockon_environment.html'
p313
sg32
S'src/rockstor/storageadmin/views/rockon_environment'
p314
sg34
g13
(g14
g15
NtRp315
(dp316
g18
I1
sg19
I0
sg20
I14
sg21
I0
sg22
I0
sg23
I7
sg24
I0
sbssg25
S'\xca\xd7\x11i\xf0\xf6\xf8/Z\x14\x8e\xaa^\x9dB\x0f'
p317
ssS'src_rockstor_storageadmin_views_share_command'
p318
(dp319
g6
(dp320
g30
S'src_rockstor_storageadmin_views_share_command.html'
p321
sg32
S'src/rockstor/storageadmin/views/share_command'
p322
sg34
g13
(g14
g15
NtRp323
(dp324
g18
I1
sg19
I0
sg20
I49
sg21
I0
sg22
I0
sg23
I0
sg24
I0
sbssg25
S'\xb2)\x13\xb7*q\x1e\xc5EN\x86\xc9D\xa8~v'
p325
ssS'src_rockstor_storageadmin_views_share_acl'
p326
(dp327
g6
(dp328
g30
S'src_rockstor_storageadmin_views_share_acl.html'
p329
sg32
S'src/rockstor/storageadmin/views/share_acl'
p330
sg34
g13
(g14
g15
NtRp331
(dp332
g18
I1
sg19
I0
sg20
I34
sg21
I0
sg22
I0
sg23
I4
sg24
I0
sbssg25
S'\xc4>\x1a\xbeq\x00Id\xf8\x17\x04V\xe5e\xed:'
p333
ssS'src_rockstor_storageadmin_views_dashboardconfig'
p334
(dp335
g6
(dp336
g30
S'src_rockstor_storageadmin_views_dashboardconfig.html'
p337
sg32
S'src/rockstor/storageadmin/views/dashboardconfig'
p338
sg34
g13
(g14
g15
NtRp339
(dp340
g18
I1
sg19
I0
sg20
I54
sg21
I0
sg22
I0
sg23
I12
sg24
I0
sbssg25
S"\xeb\xca%\xbfhE\xdc\xef\x18<\x7fP\xd7]'\xa9"
p341
ssS'src_rockstor_storageadmin_views_rockon_discourse'
p342
(dp343
g6
(dp344
g30
S'src_rockstor_storageadmin_views_rockon_discourse.html'
p345
sg32
S'src/rockstor/storageadmin/views/rockon_discourse'
p346
sg34
g13
(g14
g15
NtRp347
(dp348
g18
I1
sg19
I0
sg20
I74
sg21
I0
sg22
I0
sg23
I57
sg24
I0
sbssg25
S"\xf7\xb5\xcer\xef\xdb'b[\n\xb0R\x97\x1c\x1e\xbb"
p349
ssS'src_rockstor_storageadmin_views_home'
p350
(dp351
g6
(dp352
g30
S'src_rockstor_storageadmin_views_home.html'
p353
sg32
S'src/rockstor/storageadmin/views/home'
p354
sg34
g13
(g14
g15
NtRp355
(dp356
g18
I1
sg19
I0
sg20
I36
sg21
I0
sg22
I0
sg23
I24
sg24
I0
sbssg25
S'\x0b\x8c\xa5KzED\xa8\xda\t@\x8a\xf7\xab\x01\xd5'
p357
sssS'version'
p358
S'3.7.1'
p359
sS'settings'
p360
S'\n\x91ZnvviH\xcb\xd4\xdf\x8b\xbbC\xbew'
p361
sS'format'
p362
I1
s.