(dp1
S'files'
p2
(dp3
S'src_rockstor_storageadmin_views_rockon_id'
p4
(dp5
S'index'
p6
(dp7
S'html_filename'
p8
S'src_rockstor_storageadmin_views_rockon_id.html'
p9
sS'name'
p10
S'src/rockstor/storageadmin/views/rockon_id'
p11
sS'nums'
p12
ccopy_reg
_reconstructor
p13
(ccoverage.results
Numbers
p14
c__builtin__
object
p15
NtRp16
(dp17
S'n_files'
p18
I1
sS'n_branches'
p19
I0
sS'n_statements'
p20
I160
sS'n_excluded'
p21
I0
sS'n_partial_branches'
p22
I0
sS'n_missing'
p23
I160
sS'n_missing_branches'
p24
I0
sbssS'hash'
p25
S'~\x12\xfc\xc9\x99\x80+\x08C\x8d\x94H\x80>\xe1B'
p26
ssS'src_rockstor_storageadmin_views___init__'
p27
(dp28
g6
(dp29
g8
S'src_rockstor_storageadmin_views___init__.html'
p30
sg10
S'src/rockstor/storageadmin/views/__init__'
p31
sg12
g13
(g14
g15
NtRp32
(dp33
g18
I1
sg19
I0
sg20
I33
sg21
I0
sg22
I0
sg23
I33
sg24
I0
sbssg25
S'\x1f\xfc\x19\xb9\xc4iQ\xe0\x92k\xb1\xc3\x8e\xa3+\x87'
p34
ssS'src_rockstor_storageadmin_views_ug_helpers'
p35
(dp36
g6
(dp37
g8
S'src_rockstor_storageadmin_views_ug_helpers.html'
p38
sg10
S'src/rockstor/storageadmin/views/ug_helpers'
p39
sg12
g13
(g14
g15
NtRp40
(dp41
g18
I1
sg19
I0
sg20
I67
sg21
I0
sg22
I0
sg23
I67
sg24
I0
sbssg25
S'1\xc3\xda\x86\xfap`a\xceK\x9c\xd8\x10K\xa3\xd8'
p42
ssS'src_rockstor_storageadmin_views_email_client'
p43
(dp44
g6
(dp45
g8
S'src_rockstor_storageadmin_views_email_client.html'
p46
sg10
S'src/rockstor/storageadmin/views/email_client'
p47
sg12
g13
(g14
g15
NtRp48
(dp49
g18
I1
sg19
I0
sg20
I123
sg21
I0
sg22
I0
sg23
I123
sg24
I0
sbssg25
S'\xd9G\xee\x81\xdb[h\xb0\xb3\xaf\xfe\x08\xc5\x01\x12X'
p50
ssS'src_rockstor_storageadmin_views_share'
p51
(dp52
g6
(dp53
g8
S'src_rockstor_storageadmin_views_share.html'
p54
sg10
S'src/rockstor/storageadmin/views/share'
p55
sg12
g13
(g14
g15
NtRp56
(dp57
g18
I1
sg19
I0
sg20
I188
sg21
I0
sg22
I0
sg23
I188
sg24
I0
sbssg25
S'\x13\xcbq\xba\x81\xa3B^\x01Y\x81/\x8a\xf0\xdb\xe2'
p58
ssS'src_rockstor_storageadmin_views_rockon_helpers'
p59
(dp60
g6
(dp61
g8
S'src_rockstor_storageadmin_views_rockon_helpers.html'
p62
sg10
S'src/rockstor/storageadmin/views/rockon_helpers'
p63
sg12
g13
(g14
g15
NtRp64
(dp65
g18
I1
sg19
I0
sg20
I195
sg21
I0
sg22
I0
sg23
I195
sg24
I0
sbssg25
S"t7\xfb'\xf9B\xeekn\xf25\x91*\x9b\xa5o"
p66
ssS'src_rockstor_storageadmin_views_tls_certificate'
p67
(dp68
g6
(dp69
g8
S'src_rockstor_storageadmin_views_tls_certificate.html'
p70
sg10
S'src/rockstor/storageadmin/views/tls_certificate'
p71
sg12
g13
(g14
g15
NtRp72
(dp73
g18
I1
sg19
I0
sg20
I53
sg21
I0
sg22
I0
sg23
I53
sg24
I0
sbssg25
S'\x8c\xab\x01p*\xf6}0\x91\xd5\x0ez\xef6\xee\x10'
p74
ssS'src_rockstor_storageadmin_views_oauth_app'
p75
(dp76
g6
(dp77
g8
S'src_rockstor_storageadmin_views_oauth_app.html'
p78
sg10
S'src/rockstor/storageadmin/views/oauth_app'
p79
sg12
g13
(g14
g15
NtRp80
(dp81
g18
I1
sg19
I0
sg20
I51
sg21
I0
sg22
I0
sg23
I51
sg24
I0
sbssg25
S'zI-\x8c\x9a\x07F\x9cA\x8b\xed\xc6\x87\x81\xae\x10'
p82
ssS'src_rockstor_storageadmin_views_netatalk'
p83
(dp84
g6
(dp85
g8
S'src_rockstor_storageadmin_views_netatalk.html'
p86
sg10
S'src/rockstor/storageadmin/views/netatalk'
p87
sg12
g13
(g14
g15
NtRp88
(dp89
g18
I1
sg19
I0
sg20
I93
sg21
I0
sg22
I0
sg23
I93
sg24
I0
sbssg25
S'\xa7A\x0b(\x9d\x14\xef\x12e\xa5)P\xd1\x80\xbf '
p90
ssS'src_rockstor_storageadmin_views_clone_helpers'
p91
(dp92
g6
(dp93
g8
S'src_rockstor_storageadmin_views_clone_helpers.html'
p94
sg10
S'src/rockstor/storageadmin/views/clone_helpers'
p95
sg12
g13
(g14
g15
NtRp96
(dp97
g18
I1
sg19
I0
sg20
I31
sg21
I0
sg22
I0
sg23
I31
sg24
I0
sbssg25
S'H\xf6\x04\xa3\x1e4\xbd\xb7\xd5\xcb+U\xefj\xe4\x08'
p98
ssS'src_rockstor_storageadmin_views_rockon_json'
p99
(dp100
g6
(dp101
g8
S'src_rockstor_storageadmin_views_rockon_json.html'
p102
sg10
S'src/rockstor/storageadmin/views/rockon_json'
p103
sg12
g13
(g14
g15
NtRp104
(dp105
g18
I1
sg19
I0
sg20
I10
sg21
I0
sg22
I0
sg23
I10
sg24
I0
sbssg25
S'\xdb&\x14\xd7\x1cP\x82\xa2\x10\xd3TM\r\xa9TP'
p106
ssS'src_rockstor_storageadmin_views_snapshot'
p107
(dp108
g6
(dp109
g8
S'src_rockstor_storageadmin_views_snapshot.html'
p110
sg10
S'src/rockstor/storageadmin/views/snapshot'
p111
sg12
g13
(g14
g15
NtRp112
(dp113
g18
I1
sg19
I0
sg20
I157
sg21
I0
sg22
I0
sg23
I157
sg24
I0
sbssg25
S"}\x1dA\xb5\x14\xba\x92S'\x1d\xccf\xbb\xe4\x0b\xcc"
p114
ssS'src_rockstor_storageadmin_views_user'
p115
(dp116
g6
(dp117
g8
S'src_rockstor_storageadmin_views_user.html'
p118
sg10
S'src/rockstor/storageadmin/views/user'
p119
sg12
g13
(g14
g15
NtRp120
(dp121
g18
I1
sg19
I0
sg20
I216
sg21
I0
sg22
I0
sg23
I216
sg24
I0
sbssg25
S'\x98\xa27"N\xfc\\s\x14\xafR\xec\xab\xc7bF'
p122
ssS'src_rockstor_storageadmin_views_views'
p123
(dp124
g6
(dp125
g8
S'src_rockstor_storageadmin_views_views.html'
p126
sg10
S'src/rockstor/storageadmin/views/views'
p127
sg12
g13
(g14
g15
NtRp128
(dp129
g18
I1
sg19
I0
sg20
I0
sg21
I0
sg22
I0
sg23
I0
sg24
I0
sbssg25
S'{\xd99q\x98)\xfekT\xb8H7M\x1c\x94\xba'
p130
ssS'src_rockstor_storageadmin_views_nfs_exports'
p131
(dp132
g6
(dp133
g8
S'src_rockstor_storageadmin_views_nfs_exports.html'
p134
sg10
S'src/rockstor/storageadmin/views/nfs_exports'
p135
sg12
g13
(g14
g15
NtRp136
(dp137
g18
I1
sg19
I0
sg20
I216
sg21
I0
sg22
I0
sg23
I216
sg24
I0
sbssg25
S'\x94\x99I\x9f\xf1A^ \xb1\xdbF<\x88\xfd\xb3\x1e'
p138
ssS'src_rockstor_storageadmin_views_disk_smart'
p139
(dp140
g6
(dp141
g8
S'src_rockstor_storageadmin_views_disk_smart.html'
p142
sg10
S'src/rockstor/storageadmin/views/disk_smart'
p143
sg12
g13
(g14
g15
NtRp144
(dp145
g18
I1
sg19
I0
sg20
I83
sg21
I0
sg22
I0
sg23
I83
sg24
I0
sbssg25
S'\xb0\xacF\xa2o\x10\x82n9\x07\xec\x04\xed\xe0\xca\xc1'
p146
ssS'src_rockstor_storageadmin_views_setup_user'
p147
(dp148
g6
(dp149
g8
S'src_rockstor_storageadmin_views_setup_user.html'
p150
sg10
S'src/rockstor/storageadmin/views/setup_user'
p151
sg12
g13
(g14
g15
NtRp152
(dp153
g18
I1
sg19
I0
sg20
I32
sg21
I0
sg22
I0
sg23
I32
sg24
I0
sbssg25
S'P[/\x9dk2\x85o\xfe\xf1\xe5^Z\x89\xfe!'
p154
ssS'src_rockstor_storageadmin_views_update_subscription'
p155
(dp156
g6
(dp157
g8
S'src_rockstor_storageadmin_views_update_subscription.html'
p158
sg10
S'src/rockstor/storageadmin/views/update_subscription'
p159
sg12
g13
(g14
g15
NtRp160
(dp161
g18
I1
sg19
I0
sg20
I68
sg21
I0
sg22
I0
sg23
I68
sg24
I0
sbssg25
S'|\xaf\xed\xef\x85\xee\xb5\x11\xb7\x98\xc3\x0c\x80+P\xc9'
p162
ssS'src_rockstor_storageadmin_views_pool_balance'
p163
(dp164
g6
(dp165
g8
S'src_rockstor_storageadmin_views_pool_balance.html'
p166
sg10
S'src/rockstor/storageadmin/views/pool_balance'
p167
sg12
g13
(g14
g15
NtRp168
(dp169
g18
I1
sg19
I0
sg20
I72
sg21
I0
sg22
I0
sg23
I72
sg24
I0
sbssg25
S'\xf3\xef\xfdu\x9f]J\xbf\xfb\xa9(\x8fb\xdeu='
p170
ssS'src_rockstor_storageadmin_views_pool'
p171
(dp172
g6
(dp173
g8
S'src_rockstor_storageadmin_views_pool.html'
p174
sg10
S'src/rockstor/storageadmin/views/pool'
p175
sg12
g13
(g14
g15
NtRp176
(dp177
g18
I1
sg19
I0
sg20
I301
sg21
I0
sg22
I0
sg23
I301
sg24
I0
sbssg25
S'\x07\xa4t\xee\xb0\xb7|MD\x1e\xe3B\xd5\xcf\x16\xec'
p178
ssS'src_rockstor_storageadmin_views_pool_scrub'
p179
(dp180
g6
(dp181
g8
S'src_rockstor_storageadmin_views_pool_scrub.html'
p182
sg10
S'src/rockstor/storageadmin/views/pool_scrub'
p183
sg12
g13
(g14
g15
NtRp184
(dp185
g18
I1
sg19
I0
sg20
I58
sg21
I0
sg22
I0
sg23
I58
sg24
I0
sbssg25
S'@\xd0\xbc\xec\x9d\x9a\x9ev\xbe\xc0\xc7\xe3.\xbc\x94\xb5'
p186
ssS'src_rockstor_storageadmin_views_rockon'
p187
(dp188
g6
(dp189
g8
S'src_rockstor_storageadmin_views_rockon.html'
p190
sg10
S'src/rockstor/storageadmin/views/rockon'
p191
sg12
g13
(g14
g15
NtRp192
(dp193
g18
I1
sg19
I0
sg20
I268
sg21
I0
sg22
I0
sg23
I268
sg24
I0
sbssg25
S'\x01\xa1\xd5%C\x8e\xf8kV2\x89\xc9=e*\xed'
p194
ssS'src_rockstor_storageadmin_views_sftp'
p195
(dp196
g6
(dp197
g8
S'src_rockstor_storageadmin_views_sftp.html'
p198
sg10
S'src/rockstor/storageadmin/views/sftp'
p199
sg12
g13
(g14
g15
NtRp200
(dp201
g18
I1
sg19
I0
sg20
I79
sg21
I0
sg22
I0
sg23
I79
sg24
I0
sbssg25
S'\xc4\xb3\x1f\x15K\xb6k\xe8; \xa7\xb9\xdeC\xda\xc1'
p202
ssS'src_rockstor_storageadmin_views_rockon_volume'
p203
(dp204
g6
(dp205
g8
S'src_rockstor_storageadmin_views_rockon_volume.html'
p206
sg10
S'src/rockstor/storageadmin/views/rockon_volume'
p207
sg12
g13
(g14
g15
NtRp208
(dp209
g18
I1
sg19
I0
sg20
I14
sg21
I0
sg22
I0
sg23
I14
sg24
I0
sbssg25
S'\xcfL\xb9\xf0]\x8e\x86\xb5\xd5o\xdaNs\xeb\xf2f'
p210
ssS'src_rockstor_storageadmin_views_network'
p211
(dp212
g6
(dp213
g8
S'src_rockstor_storageadmin_views_network.html'
p214
sg10
S'src/rockstor/storageadmin/views/network'
p215
sg12
g13
(g14
g15
NtRp216
(dp217
g18
I1
sg19
I0
sg20
I268
sg21
I0
sg22
I0
sg23
I268
sg24
I0
sbssg25
S'\xf9\x8eP\xce\x93\xe7`\x00\xe5|\x94\xc3\xbb8w\xab'
p218
ssS'src_rockstor_storageadmin_views_command'
p219
(dp220
g6
(dp221
g8
S'src_rockstor_storageadmin_views_command.html'
p222
sg10
S'src/rockstor/storageadmin/views/command'
p223
sg12
g13
(g14
g15
NtRp224
(dp225
g18
I1
sg19
I0
sg20
I190
sg21
I0
sg22
I0
sg23
I190
sg24
I0
sbssg25
S'\xe0D\x10\xa9\xcb\x8c\x02y\xd0A\xda\xd8\xef\xfc\xa3\xbd'
p226
ssS'src_rockstor_storageadmin_views_disk'
p227
(dp228
g6
(dp229
g8
S'src_rockstor_storageadmin_views_disk.html'
p230
sg10
S'src/rockstor/storageadmin/views/disk'
p231
sg12
g13
(g14
g15
NtRp232
(dp233
g18
I1
sg19
I0
sg20
I227
sg21
I0
sg22
I0
sg23
I227
sg24
I0
sbssg25
S'\xa3\xf4\xa0\x1e\xfbw\xf9\xf1,\xcb\x9cua\x81d\x7f'
p234
ssS'src_rockstor_storageadmin_views_share_helpers'
p235
(dp236
g6
(dp237
g8
S'src_rockstor_storageadmin_views_share_helpers.html'
p238
sg10
S'src/rockstor/storageadmin/views/share_helpers'
p239
sg12
g13
(g14
g15
NtRp240
(dp241
g18
I1
sg19
I0
sg20
I106
sg21
I0
sg22
I0
sg23
I106
sg24
I0
sbssg25
S'_\x18\xb9\xac\xe4\xe7e\xb3CR\x92=\x00\xfd\x18G'
p242
ssS'src_rockstor_storageadmin_views_rockon_custom_config'
p243
(dp244
g6
(dp245
g8
S'src_rockstor_storageadmin_views_rockon_custom_config.html'
p246
sg10
S'src/rockstor/storageadmin/views/rockon_custom_config'
p247
sg12
g13
(g14
g15
NtRp248
(dp249
g18
I1
sg19
I0
sg20
I13
sg21
I0
sg22
I0
sg23
I13
sg24
I0
sbssg25
S'e\x11\xad\x0cp\x9du\xf64\x8f\x8a\xc0\xfe\x82\x19\x82'
p250
ssS'src_rockstor_storageadmin_views_rockon_port'
p251
(dp252
g6
(dp253
g8
S'src_rockstor_storageadmin_views_rockon_port.html'
p254
sg10
S'src/rockstor/storageadmin/views/rockon_port'
p255
sg12
g13
(g14
g15
NtRp256
(dp257
g18
I1
sg19
I0
sg20
I14
sg21
I0
sg22
I0
sg23
I14
sg24
I0
sbssg25
S"\xd9\x80\xab6\xc5\xf6\x840\xebBi\xff\x0f~\xe3'"
p258
ssS'src_rockstor_storageadmin_views_login'
p259
(dp260
g6
(dp261
g8
S'src_rockstor_storageadmin_views_login.html'
p262
sg10
S'src/rockstor/storageadmin/views/login'
p263
sg12
g13
(g14
g15
NtRp264
(dp265
g18
I1
sg19
I0
sg20
I19
sg21
I0
sg22
I0
sg23
I19
sg24
I0
sbssg25
S'\x98\x1d=q\xb7\x1cuMJ0\xfa\xb7P\xfa\x8c;'
p266
ssS'src_rockstor_storageadmin_views_appliances'
p267
(dp268
g6
(dp269
g8
S'src_rockstor_storageadmin_views_appliances.html'
p270
sg10
S'src/rockstor/storageadmin/views/appliances'
p271
sg12
g13
(g14
g15
NtRp272
(dp273
g18
I1
sg19
I0
sg20
I119
sg21
I0
sg22
I0
sg23
I119
sg24
I0
sbssg25
S'O\x00\x07\x96\xe1\xef\x1b\rjH:r\xc6\x12S\xe5'
p274
ssS'src_rockstor_storageadmin_views_rockon_utils'
p275
(dp276
g6
(dp277
g8
S'src_rockstor_storageadmin_views_rockon_utils.html'
p278
sg10
S'src/rockstor/storageadmin/views/rockon_utils'
p279
sg12
g13
(g14
g15
NtRp280
(dp281
g18
I1
sg19
I0
sg20
I25
sg21
I0
sg22
I0
sg23
I25
sg24
I0
sbssg25
S'kHd\x96o\xb8\xe2#\xd9{\x9ft\xda\x80\xc5w'
p282
ssS'src_rockstor_storageadmin_views_samba'
p283
(dp284
g6
(dp285
g8
S'src_rockstor_storageadmin_views_samba.html'
p286
sg10
S'src/rockstor/storageadmin/views/samba'
p287
sg12
g13
(g14
g15
NtRp288
(dp289
g18
I1
sg19
I0
sg20
I159
sg21
I0
sg22
I0
sg23
I159
sg24
I0
sbssg25
S'2*;$&%Q\xc1\x05\x91\xaa\xd9\xdf\xbb1N'
p290
ssS'src_rockstor_storageadmin_views_config_backup'
p291
(dp292
g6
(dp293
g8
S'src_rockstor_storageadmin_views_config_backup.html'
p294
sg10
S'src/rockstor/storageadmin/views/config_backup'
p295
sg12
g13
(g14
g15
NtRp296
(dp297
g18
I1
sg19
I0
sg20
I206
sg21
I0
sg22
I0
sg23
I206
sg24
I0
sbssg25
S'\x98\xae\x1d\x13\x98\x03.!("*\xd2u\xccCm'
p298
ssS'src_rockstor_storageadmin_views_group'
p299
(dp300
g6
(dp301
g8
S'src_rockstor_storageadmin_views_group.html'
p302
sg10
S'src/rockstor/storageadmin/views/group'
p303
sg12
g13
(g14
g15
NtRp304
(dp305
g18
I1
sg19
I0
sg20
I77
sg21
I0
sg22
I0
sg23
I77
sg24
I0
sbssg25
S'\x9d9\xc2\x88\xde\xc0xQ\xf6U\xa4\xa4\x12|>S'
p306
ssS'src_rockstor_storageadmin_views_rockon_environment'
p307
(dp308
g6
(dp309
g8
S'src_rockstor_storageadmin_views_rockon_environment.html'
p310
sg10
S'src/rockstor/storageadmin/views/rockon_environment'
p311
sg12
g13
(g14
g15
NtRp312
(dp313
g18
I1
sg19
I0
sg20
I14
sg21
I0
sg22
I0
sg23
I14
sg24
I0
sbssg25
S'\xd1R\xff\x9a\xf4\x00\x93\x1b\x91\xe4K}\x03+\xe2\xc6'
p314
ssS'src_rockstor_storageadmin_views_share_command'
p315
(dp316
g6
(dp317
g8
S'src_rockstor_storageadmin_views_share_command.html'
p318
sg10
S'src/rockstor/storageadmin/views/share_command'
p319
sg12
g13
(g14
g15
NtRp320
(dp321
g18
I1
sg19
I0
sg20
I49
sg21
I0
sg22
I0
sg23
I49
sg24
I0
sbssg25
S'\x1dq?\xe6\xd1.AC\xb1\xa9\x0e\x0f\xfa\xc3\xedn'
p322
ssS'src_rockstor_storageadmin_views_share_acl'
p323
(dp324
g6
(dp325
g8
S'src_rockstor_storageadmin_views_share_acl.html'
p326
sg10
S'src/rockstor/storageadmin/views/share_acl'
p327
sg12
g13
(g14
g15
NtRp328
(dp329
g18
I1
sg19
I0
sg20
I34
sg21
I0
sg22
I0
sg23
I34
sg24
I0
sbssg25
S'\xae\xba(\x9b\x80jF\xf8dn\xb6 \xafl\x04\xcc'
p330
ssS'src_rockstor_storageadmin_views_dashboardconfig'
p331
(dp332
g6
(dp333
g8
S'src_rockstor_storageadmin_views_dashboardconfig.html'
p334
sg10
S'src/rockstor/storageadmin/views/dashboardconfig'
p335
sg12
g13
(g14
g15
NtRp336
(dp337
g18
I1
sg19
I0
sg20
I54
sg21
I0
sg22
I0
sg23
I54
sg24
I0
sbssg25
S'\x9fu\t\xf5\x92\x7f9X\x06\xb6c\xc5;2:\xf0'
p338
ssS'src_rockstor_storageadmin_views_rockon_discourse'
p339
(dp340
g6
(dp341
g8
S'src_rockstor_storageadmin_views_rockon_discourse.html'
p342
sg10
S'src/rockstor/storageadmin/views/rockon_discourse'
p343
sg12
g13
(g14
g15
NtRp344
(dp345
g18
I1
sg19
I0
sg20
I74
sg21
I0
sg22
I0
sg23
I74
sg24
I0
sbssg25
S'\xa4\\nc\xdeB\xc3U}V\x8a@\xff-H\x19'
p346
ssS'src_rockstor_storageadmin_views_home'
p347
(dp348
g6
(dp349
g8
S'src_rockstor_storageadmin_views_home.html'
p350
sg10
S'src/rockstor/storageadmin/views/home'
p351
sg12
g13
(g14
g15
NtRp352
(dp353
g18
I1
sg19
I0
sg20
I40
sg21
I0
sg22
I0
sg23
I40
sg24
I0
sbssg25
S'\x9c\xe4\x7fLNlM\x8d\xf7\xd9\r\xcd\xfb-\xaa]'
p354
sssS'version'
p355
S'3.7.1'
p356
sS'settings'
p357
S'\xf7G\xb2\xb3\xccSqW\x1b6\xc1B$\xfe\xc4\xef'
p358
sS'format'
p359
I1
s.