(dp1
S'files'
p2
(dp3
S'src_rockstor_storageadmin_views_rockon_id'
p4
(dp5
S'index'
p6
(dp7
S'html_filename'
p8
S'src_rockstor_storageadmin_views_rockon_id.html'
p9
sS'name'
p10
S'src/rockstor/storageadmin/views/rockon_id'
p11
sS'nums'
p12
ccopy_reg
_reconstructor
p13
(ccoverage.results
Numbers
p14
c__builtin__
object
p15
NtRp16
(dp17
S'n_files'
p18
I1
sS'n_branches'
p19
I0
sS'n_statements'
p20
I142
sS'n_excluded'
p21
I0
sS'n_partial_branches'
p22
I0
sS'n_missing'
p23
I125
sS'n_missing_branches'
p24
I0
sbssS'hash'
p25
S'Q*\x06\xf1;yM\xf1\x8e\x89\xe6\xed\xd31\x14{'
p26
ssS'src_rockstor_storageadmin_views___init__'
p27
(dp28
g6
(dp29
g8
S'src_rockstor_storageadmin_views___init__.html'
p30
sg10
S'src/rockstor/storageadmin/views/__init__'
p31
sg12
g13
(g14
g15
NtRp32
(dp33
g18
I1
sg19
I0
sg20
I33
sg21
I0
sg22
I0
sg23
I0
sg24
I0
sbssg25
S'\xd2Rn\xa1;\x08d4\x85a6\x82\x16\x80\x97\xa4'
p34
ssS'src_rockstor_storageadmin_views_ug_helpers'
p35
(dp36
g6
(dp37
g8
S'src_rockstor_storageadmin_views_ug_helpers.html'
p38
sg10
S'src/rockstor/storageadmin/views/ug_helpers'
p39
sg12
g13
(g14
g15
NtRp40
(dp41
g18
I1
sg19
I0
sg20
I63
sg21
I0
sg22
I0
sg23
I31
sg24
I0
sbssg25
S'\x19B~k\xfb\xa4\xefXr!\x99\xae\\\xfd\x9bu'
p42
ssS'src_rockstor_storageadmin_views_email_client'
p43
(dp44
g6
(dp45
g8
S'src_rockstor_storageadmin_views_email_client.html'
p46
sg10
S'src/rockstor/storageadmin/views/email_client'
p47
sg12
g13
(g14
g15
NtRp48
(dp49
g18
I1
sg19
I0
sg20
I109
sg21
I0
sg22
I0
sg23
I44
sg24
I0
sbssg25
S'\x94\x8cg\x81\xc7\x1a\x12\x7f\x82&\xa7C\xabm\xd81'
p50
ssS'src_rockstor_storageadmin_views_tls_certificate'
p51
(dp52
g6
(dp53
g8
S'src_rockstor_storageadmin_views_tls_certificate.html'
p54
sg10
S'src/rockstor/storageadmin/views/tls_certificate'
p55
sg12
g13
(g14
g15
NtRp56
(dp57
g18
I1
sg19
I0
sg20
I53
sg21
I0
sg22
I0
sg23
I16
sg24
I0
sbssg25
S'\xf5\x9f\x80&\xaa\xba\xe5=\x8b\xdb\xab\x1b\x99\x84\xa9\xbe'
p58
ssS'src_rockstor_storageadmin_views_oauth_app'
p59
(dp60
g6
(dp61
g8
S'src_rockstor_storageadmin_views_oauth_app.html'
p62
sg10
S'src/rockstor/storageadmin/views/oauth_app'
p63
sg12
g13
(g14
g15
NtRp64
(dp65
g18
I1
sg19
I0
sg20
I51
sg21
I0
sg22
I0
sg23
I13
sg24
I0
sbssg25
S'l\x08f\xfe\xec+[\xaff\xbfp\x13q\xdbQ\xcc'
p66
ssS'src_rockstor_storageadmin_views_netatalk'
p67
(dp68
g6
(dp69
g8
S'src_rockstor_storageadmin_views_netatalk.html'
p70
sg10
S'src/rockstor/storageadmin/views/netatalk'
p71
sg12
g13
(g14
g15
NtRp72
(dp73
g18
I1
sg19
I0
sg20
I93
sg21
I0
sg22
I0
sg23
I13
sg24
I0
sbssg25
S'vH\xe2\xee\xf2$\x02`\xc5N\x84\xfa\x8f\x81\x84k'
p74
ssS'src_rockstor_storageadmin_views_clone_helpers'
p75
(dp76
g6
(dp77
g8
S'src_rockstor_storageadmin_views_clone_helpers.html'
p78
sg10
S'src/rockstor/storageadmin/views/clone_helpers'
p79
sg12
g13
(g14
g15
NtRp80
(dp81
g18
I1
sg19
I0
sg20
I31
sg21
I0
sg22
I0
sg23
I23
sg24
I0
sbssg25
S'\x07\x18\x1d\x01\x19s\xd9\x9f/\xe5\xe9\xb4P\x80\xd2m'
p82
ssS'src_rockstor_storageadmin_views_rockon_json'
p83
(dp84
g6
(dp85
S'html_filename'
p86
S'src_rockstor_storageadmin_views_rockon_json.html'
p87
sS'name'
p88
S'src/rockstor/storageadmin/views/rockon_json'
p89
sS'nums'
p90
g13
(g14
g15
NtRp91
(dp92
g18
I1
sg19
I0
sg20
I10
sg21
I0
sg22
I0
sg23
I10
sg24
I0
sbssg25
S'\xdb&\x14\xd7\x1cP\x82\xa2\x10\xd3TM\r\xa9TP'
p93
ssS'src_rockstor_storageadmin_views_snapshot'
p94
(dp95
g6
(dp96
g8
S'src_rockstor_storageadmin_views_snapshot.html'
p97
sg10
S'src/rockstor/storageadmin/views/snapshot'
p98
sg12
g13
(g14
g15
NtRp99
(dp100
g18
I1
sg19
I0
sg20
I155
sg21
I0
sg22
I0
sg23
I37
sg24
I0
sbssg25
S'O\xf5m;\xd0.\xaa\x15\x9d\xf0pI]\xb2CY'
p101
ssS'src_rockstor_storageadmin_views_user'
p102
(dp103
g6
(dp104
g8
S'src_rockstor_storageadmin_views_user.html'
p105
sg10
S'src/rockstor/storageadmin/views/user'
p106
sg12
g13
(g14
g15
NtRp107
(dp108
g18
I1
sg19
I0
sg20
I214
sg21
I0
sg22
I0
sg23
I15
sg24
I0
sbssg25
S'\x7f\x87\xcf\xf6\x84\xd2\xdf\xfb\xb8\xcf~\xb8z[\xf0\xdb'
p109
ssS'src_rockstor_storageadmin_views_views'
p110
(dp111
g6
(dp112
g86
S'src_rockstor_storageadmin_views_views.html'
p113
sg88
S'src/rockstor/storageadmin/views/views'
p114
sg90
g13
(g14
g15
NtRp115
(dp116
g18
I1
sg19
I0
sg20
I0
sg21
I0
sg22
I0
sg23
I0
sg24
I0
sbssg25
S'{\xd99q\x98)\xfekT\xb8H7M\x1c\x94\xba'
p117
ssS'src_rockstor_storageadmin_views_rockon_helpers'
p118
(dp119
g6
(dp120
g8
S'src_rockstor_storageadmin_views_rockon_helpers.html'
p121
sg10
S'src/rockstor/storageadmin/views/rockon_helpers'
p122
sg12
g13
(g14
g15
NtRp123
(dp124
g18
I1
sg19
I0
sg20
I195
sg21
I0
sg22
I0
sg23
I160
sg24
I0
sbssg25
S'I\xb1\xb0f\x95\xf0\x8dm\xad\xd7\xec\xe1C\xe5\x00\x9d'
p125
ssS'src_rockstor_storageadmin_views_disk_smart'
p126
(dp127
g6
(dp128
g8
S'src_rockstor_storageadmin_views_disk_smart.html'
p129
sg10
S'src/rockstor/storageadmin/views/disk_smart'
p130
sg12
g13
(g14
g15
NtRp131
(dp132
g18
I1
sg19
I0
sg20
I86
sg21
I0
sg22
I0
sg23
I46
sg24
I0
sbssg25
S',K\xd2X\x1b\x9a\x04G\x15\xfeS{%\x17\x10 '
p133
ssS'src_rockstor_storageadmin_views_setup_user'
p134
(dp135
g6
(dp136
g8
S'src_rockstor_storageadmin_views_setup_user.html'
p137
sg10
S'src/rockstor/storageadmin/views/setup_user'
p138
sg12
g13
(g14
g15
NtRp139
(dp140
g18
I1
sg19
I0
sg20
I32
sg21
I0
sg22
I0
sg23
I20
sg24
I0
sbssg25
S'\xec\x94\x84\x1a\x9aM2\xb5p\xca\xa2\x96\x95\x1cq\n'
p141
ssS'src_rockstor_storageadmin_views_update_subscription'
p142
(dp143
g6
(dp144
g8
S'src_rockstor_storageadmin_views_update_subscription.html'
p145
sg10
S'src/rockstor/storageadmin/views/update_subscription'
p146
sg12
g13
(g14
g15
NtRp147
(dp148
g18
I1
sg19
I0
sg20
I67
sg21
I0
sg22
I0
sg23
I36
sg24
I0
sbssg25
S'xL"\xd3m\xf2\xbe\x9c\x0e\xe1\xff\x81\x0e\xf5\xe1\xb4'
p149
ssS'src_rockstor_storageadmin_views_pool_balance'
p150
(dp151
g6
(dp152
g8
S'src_rockstor_storageadmin_views_pool_balance.html'
p153
sg10
S'src/rockstor/storageadmin/views/pool_balance'
p154
sg12
g13
(g14
g15
NtRp155
(dp156
g18
I1
sg19
I0
sg20
I67
sg21
I0
sg22
I0
sg23
I23
sg24
I0
sbssg25
S'\x91\x9a\xb2\xb5!\x1f\x05\x8f\xd9\x11w3\x1c\x11$\xb2'
p157
ssS'src_rockstor_storageadmin_views_rockon_volume'
p158
(dp159
g6
(dp160
g8
S'src_rockstor_storageadmin_views_rockon_volume.html'
p161
sg10
S'src/rockstor/storageadmin/views/rockon_volume'
p162
sg12
g13
(g14
g15
NtRp163
(dp164
g18
I1
sg19
I0
sg20
I14
sg21
I0
sg22
I0
sg23
I7
sg24
I0
sbssg25
S'\xf9\x1eb\xf5\x1c\x14\xfbh-\xd2\x9fJ\x90=\xafH'
p165
ssS'src_rockstor_storageadmin_views_pool_scrub'
p166
(dp167
g6
(dp168
g8
S'src_rockstor_storageadmin_views_pool_scrub.html'
p169
sg10
S'src/rockstor/storageadmin/views/pool_scrub'
p170
sg12
g13
(g14
g15
NtRp171
(dp172
g18
I1
sg19
I0
sg20
I58
sg21
I0
sg22
I0
sg23
I6
sg24
I0
sbssg25
S'\xc3\xb6Af\x03\x0e\xbf\xf8R\x0b\xa9\xab\xc3\x1aw\xd2'
p173
ssS'src_rockstor_storageadmin_views_rockon'
p174
(dp175
g6
(dp176
g8
S'src_rockstor_storageadmin_views_rockon.html'
p177
sg10
S'src/rockstor/storageadmin/views/rockon'
p178
sg12
g13
(g14
g15
NtRp179
(dp180
g18
I1
sg19
I0
sg20
I166
sg21
I0
sg22
I0
sg23
I145
sg24
I0
sbssg25
S'G<i\x8e\xb8p\xcf#\xec\x9f+\xf89\xc9\xb1\xf5'
p181
ssS'src_rockstor_storageadmin_views_sftp'
p182
(dp183
g6
(dp184
g8
S'src_rockstor_storageadmin_views_sftp.html'
p185
sg10
S'src/rockstor/storageadmin/views/sftp'
p186
sg12
g13
(g14
g15
NtRp187
(dp188
g18
I1
sg19
I0
sg20
I79
sg21
I0
sg22
I0
sg23
I13
sg24
I0
sbssg25
S'u\xbf\xb7\xcf\xa9\xff\x88m\xfd\xa5\xf2>\xd4\xf4\x19\xb4'
p189
ssS'src_rockstor_storageadmin_views_pool'
p190
(dp191
g6
(dp192
g8
S'src_rockstor_storageadmin_views_pool.html'
p193
sg10
S'src/rockstor/storageadmin/views/pool'
p194
sg12
g13
(g14
g15
NtRp195
(dp196
g18
I1
sg19
I0
sg20
I294
sg21
I0
sg22
I0
sg23
I32
sg24
I0
sbssg25
S'N^\xa7\xc1\xce\xc0\x92\x1d\xefP\xbf\xe7\x90\x118\x83'
p197
ssS'src_rockstor_storageadmin_views_network'
p198
(dp199
g6
(dp200
g8
S'src_rockstor_storageadmin_views_network.html'
p201
sg10
S'src/rockstor/storageadmin/views/network'
p202
sg12
g13
(g14
g15
NtRp203
(dp204
g18
I1
sg19
I0
sg20
I156
sg21
I0
sg22
I0
sg23
I32
sg24
I0
sbssg25
S'\xf7\x94\xab\xe2(\xf0\xef\x05\xde\xdbd\xc9gD\xedr'
p205
ssS'src_rockstor_storageadmin_views_command'
p206
(dp207
g6
(dp208
g8
S'src_rockstor_storageadmin_views_command.html'
p209
sg10
S'src/rockstor/storageadmin/views/command'
p210
sg12
g13
(g14
g15
NtRp211
(dp212
g18
I1
sg19
I0
sg20
I178
sg21
I0
sg22
I0
sg23
I45
sg24
I0
sbssg25
S"'\xf3\xaf3\x19\xf8~*\xd3D\x08\x93\xd7\xf5\x04\xcb"
p213
ssS'src_rockstor_storageadmin_views_disk'
p214
(dp215
g6
(dp216
g8
S'src_rockstor_storageadmin_views_disk.html'
p217
sg10
S'src/rockstor/storageadmin/views/disk'
p218
sg12
g13
(g14
g15
NtRp219
(dp220
g18
I1
sg19
I0
sg20
I170
sg21
I0
sg22
I0
sg23
I78
sg24
I0
sbssg25
S'KV\xe8Y4\x08\xe0\xce\x92\xe4\x9b\x94\xfb\xb7\xf4\x12'
p221
ssS'src_rockstor_storageadmin_views_share_helpers'
p222
(dp223
g6
(dp224
g8
S'src_rockstor_storageadmin_views_share_helpers.html'
p225
sg10
S'src/rockstor/storageadmin/views/share_helpers'
p226
sg12
g13
(g14
g15
NtRp227
(dp228
g18
I1
sg19
I0
sg20
I106
sg21
I0
sg22
I0
sg23
I86
sg24
I0
sbssg25
S' cA\x04U\xd2C\xb6W\xbf\xba\xc0\xef]\xbbl'
p229
ssS'src_rockstor_storageadmin_views_rockon_custom_config'
p230
(dp231
g6
(dp232
g8
S'src_rockstor_storageadmin_views_rockon_custom_config.html'
p233
sg10
S'src/rockstor/storageadmin/views/rockon_custom_config'
p234
sg12
g13
(g14
g15
NtRp235
(dp236
g18
I1
sg19
I0
sg20
I13
sg21
I0
sg22
I0
sg23
I6
sg24
I0
sbssg25
S'\x94V\xf46\xb3\xb9\x15\x8b*~\xddTb\xcb\xe8='
p237
ssS'src_rockstor_storageadmin_views_rockon_port'
p238
(dp239
g6
(dp240
g8
S'src_rockstor_storageadmin_views_rockon_port.html'
p241
sg10
S'src/rockstor/storageadmin/views/rockon_port'
p242
sg12
g13
(g14
g15
NtRp243
(dp244
g18
I1
sg19
I0
sg20
I14
sg21
I0
sg22
I0
sg23
I7
sg24
I0
sbssg25
S'=\xe8\x94\x1e\xce\xb5*f\xad\x8f\xba\x14\x922M\xb0'
p245
ssS'src_rockstor_storageadmin_views_login'
p246
(dp247
g6
(dp248
g8
S'src_rockstor_storageadmin_views_login.html'
p249
sg10
S'src/rockstor/storageadmin/views/login'
p250
sg12
g13
(g14
g15
NtRp251
(dp252
g18
I1
sg19
I0
sg20
I19
sg21
I0
sg22
I0
sg23
I2
sg24
I0
sbssg25
S'w\xe0UfT\x8d\x89\xe8XlG\xed\xa4\xb9\x97,'
p253
ssS'src_rockstor_storageadmin_views_appliances'
p254
(dp255
g6
(dp256
g8
S'src_rockstor_storageadmin_views_appliances.html'
p257
sg10
S'src/rockstor/storageadmin/views/appliances'
p258
sg12
g13
(g14
g15
NtRp259
(dp260
g18
I1
sg19
I0
sg20
I105
sg21
I0
sg22
I0
sg23
I34
sg24
I0
sbssg25
S'q\xb3R\xb6;\x98\xde\xd1\xcd\x01W\x13\x01\xf6\x13\xcd'
p261
ssS'src_rockstor_storageadmin_views_dashboardconfig'
p262
(dp263
g6
(dp264
g8
S'src_rockstor_storageadmin_views_dashboardconfig.html'
p265
sg10
S'src/rockstor/storageadmin/views/dashboardconfig'
p266
sg12
g13
(g14
g15
NtRp267
(dp268
g18
I1
sg19
I0
sg20
I54
sg21
I0
sg22
I0
sg23
I12
sg24
I0
sbssg25
S"\xeb\xca%\xbfhE\xdc\xef\x18<\x7fP\xd7]'\xa9"
p269
ssS'src_rockstor_storageadmin_views_share'
p270
(dp271
g6
(dp272
g8
S'src_rockstor_storageadmin_views_share.html'
p273
sg10
S'src/rockstor/storageadmin/views/share'
p274
sg12
g13
(g14
g15
NtRp275
(dp276
g18
I1
sg19
I0
sg20
I172
sg21
I0
sg22
I0
sg23
I7
sg24
I0
sbssg25
S'j\xad]\xcd\xac\xaf\x9c\xcb_\xf9\xca\x90\xbf\xf2mn'
p277
ssS'src_rockstor_storageadmin_views_samba'
p278
(dp279
g6
(dp280
g8
S'src_rockstor_storageadmin_views_samba.html'
p281
sg10
S'src/rockstor/storageadmin/views/samba'
p282
sg12
g13
(g14
g15
NtRp283
(dp284
g18
I1
sg19
I0
sg20
I153
sg21
I0
sg22
I0
sg23
I5
sg24
I0
sbssg25
S'E\x913NM\xfb\x01\xfd\x1a\xa8i\xbc\x03\x89\x0e3'
p285
ssS'src_rockstor_storageadmin_views_config_backup'
p286
(dp287
g6
(dp288
g8
S'src_rockstor_storageadmin_views_config_backup.html'
p289
sg10
S'src/rockstor/storageadmin/views/config_backup'
p290
sg12
g13
(g14
g15
NtRp291
(dp292
g18
I1
sg19
I0
sg20
I206
sg21
I0
sg22
I0
sg23
I121
sg24
I0
sbssg25
S'\xef$@\x01\xc0\xcc\xe8]\xaa\x80?$\xc5\xc3\x0f5'
p293
ssS'src_rockstor_storageadmin_views_group'
p294
(dp295
g6
(dp296
g8
S'src_rockstor_storageadmin_views_group.html'
p297
sg10
S'src/rockstor/storageadmin/views/group'
p298
sg12
g13
(g14
g15
NtRp299
(dp300
g18
I1
sg19
I0
sg20
I72
sg21
I0
sg22
I0
sg23
I7
sg24
I0
sbssg25
S'\xf1\x1e}+]\x15.\xb4\xffm}\xef\xe8;Y\x04'
p301
ssS'src_rockstor_storageadmin_views_share_command'
p302
(dp303
g6
(dp304
g8
S'src_rockstor_storageadmin_views_share_command.html'
p305
sg10
S'src/rockstor/storageadmin/views/share_command'
p306
sg12
g13
(g14
g15
NtRp307
(dp308
g18
I1
sg19
I0
sg20
I49
sg21
I0
sg22
I0
sg23
I0
sg24
I0
sbssg25
S'\xb2)\x13\xb7*q\x1e\xc5EN\x86\xc9D\xa8~v'
p309
ssS'src_rockstor_storageadmin_views_share_acl'
p310
(dp311
g6
(dp312
g8
S'src_rockstor_storageadmin_views_share_acl.html'
p313
sg10
S'src/rockstor/storageadmin/views/share_acl'
p314
sg12
g13
(g14
g15
NtRp315
(dp316
g18
I1
sg19
I0
sg20
I34
sg21
I0
sg22
I0
sg23
I4
sg24
I0
sbssg25
S'\xc4>\x1a\xbeq\x00Id\xf8\x17\x04V\xe5e\xed:'
p317
ssS'src_rockstor_storageadmin_views_nfs_exports'
p318
(dp319
g6
(dp320
g8
S'src_rockstor_storageadmin_views_nfs_exports.html'
p321
sg10
S'src/rockstor/storageadmin/views/nfs_exports'
p322
sg12
g13
(g14
g15
NtRp323
(dp324
g18
I1
sg19
I0
sg20
I214
sg21
I0
sg22
I0
sg23
I4
sg24
I0
sbssg25
S'\xba\x08F\xd9\x0f\xffQ\xef\x0e\x90w\x9c&\x9bH<'
p325
ssS'src_rockstor_storageadmin_views_home'
p326
(dp327
g6
(dp328
g8
S'src_rockstor_storageadmin_views_home.html'
p329
sg10
S'src/rockstor/storageadmin/views/home'
p330
sg12
g13
(g14
g15
NtRp331
(dp332
g18
I1
sg19
I0
sg20
I36
sg21
I0
sg22
I0
sg23
I24
sg24
I0
sbssg25
S'\x0b\x8c\xa5KzED\xa8\xda\t@\x8a\xf7\xab\x01\xd5'
p333
sssS'version'
p334
S'3.7.1'
p335
sS'settings'
p336
S'\x9d\x8a"\x95|\xc8\x9a\x95F\xae\xa6\x93\xab}~N'
p337
sS'format'
p338
I1
s.