(dp1
S'files'
p2
(dp3
S'src_rockstor_storageadmin_views_rockon_id'
p4
(dp5
S'index'
p6
(dp7
S'html_filename'
p8
S'src_rockstor_storageadmin_views_rockon_id.html'
p9
sS'name'
p10
S'src/rockstor/storageadmin/views/rockon_id'
p11
sS'nums'
p12
ccopy_reg
_reconstructor
p13
(ccoverage.results
Numbers
p14
c__builtin__
object
p15
NtRp16
(dp17
S'n_files'
p18
I1
sS'n_branches'
p19
I0
sS'n_statements'
p20
I142
sS'n_excluded'
p21
I0
sS'n_partial_branches'
p22
I0
sS'n_missing'
p23
I142
sS'n_missing_branches'
p24
I0
sbssS'hash'
p25
S'GS\x14\x06\xcf`[\x94\xa1s\xdc\xea\x963\xe4\xd4'
p26
ssS'src_rockstor_storageadmin_views___init__'
p27
(dp28
g6
(dp29
g8
S'src_rockstor_storageadmin_views___init__.html'
p30
sg10
S'src/rockstor/storageadmin/views/__init__'
p31
sg12
g13
(g14
g15
NtRp32
(dp33
g18
I1
sg19
I0
sg20
I33
sg21
I0
sg22
I0
sg23
I8
sg24
I0
sbssg25
S'\xea\xe3\x1e3up\xb7\x95\x00\xf49\xf4\x04s\x18P'
p34
ssS'src_rockstor_storageadmin_views_ug_helpers'
p35
(dp36
g6
(dp37
g8
S'src_rockstor_storageadmin_views_ug_helpers.html'
p38
sg10
S'src/rockstor/storageadmin/views/ug_helpers'
p39
sg12
g13
(g14
g15
NtRp40
(dp41
g18
I1
sg19
I0
sg20
I63
sg21
I0
sg22
I0
sg23
I57
sg24
I0
sbssg25
S'\xeb\x07m\x0c~i\xa82\x999U\x84\xa9\xb7\xab\xcb'
p42
ssS'src_rockstor_storageadmin_views_command'
p43
(dp44
g6
(dp45
g8
S'src_rockstor_storageadmin_views_command.html'
p46
sg10
S'src/rockstor/storageadmin/views/command'
p47
sg12
g13
(g14
g15
NtRp48
(dp49
g18
I1
sg19
I0
sg20
I178
sg21
I0
sg22
I0
sg23
I152
sg24
I0
sbssg25
S'\x93\xd9\x96#d\x86,\xe6\xc9^\xdb\xcf\xff\xe8\xdfX'
p50
ssS'src_rockstor_storageadmin_views_tls_certificate'
p51
(dp52
g6
(dp53
g8
S'src_rockstor_storageadmin_views_tls_certificate.html'
p54
sg10
S'src/rockstor/storageadmin/views/tls_certificate'
p55
sg12
g13
(g14
g15
NtRp56
(dp57
g18
I1
sg19
I0
sg20
I53
sg21
I0
sg22
I0
sg23
I35
sg24
I0
sbssg25
S'#\xeb[\x90\x1f\xb65\xd6\x0b\xeb}\x97\x8e\x85S\x82'
p58
ssS'src_rockstor_storageadmin_views_oauth_app'
p59
(dp60
g6
(dp61
g8
S'src_rockstor_storageadmin_views_oauth_app.html'
p62
sg10
S'src/rockstor/storageadmin/views/oauth_app'
p63
sg12
g13
(g14
g15
NtRp64
(dp65
g18
I1
sg19
I0
sg20
I51
sg21
I0
sg22
I0
sg23
I37
sg24
I0
sbssg25
S'\x8c\xa7Ff\xe9us5b\xed,2\xc7\x88{\xf7'
p66
ssS'src_rockstor_storageadmin_views_netatalk'
p67
(dp68
g6
(dp69
g8
S'src_rockstor_storageadmin_views_netatalk.html'
p70
sg10
S'src/rockstor/storageadmin/views/netatalk'
p71
sg12
g13
(g14
g15
NtRp72
(dp73
g18
I1
sg19
I0
sg20
I93
sg21
I0
sg22
I0
sg23
I68
sg24
I0
sbssg25
S'\xe0)\x1fM,\xc5\xe7\x8bvAEl\xb1\xf3\xe5b'
p74
ssS'src_rockstor_storageadmin_views_nfs_exports'
p75
(dp76
g6
(dp77
g8
S'src_rockstor_storageadmin_views_nfs_exports.html'
p78
sg10
S'src/rockstor/storageadmin/views/nfs_exports'
p79
sg12
g13
(g14
g15
NtRp80
(dp81
g18
I1
sg19
I0
sg20
I214
sg21
I0
sg22
I0
sg23
I178
sg24
I0
sbssg25
S'\xa7\r\xd5\x02\x93\x06<\x82$)\xde\xe3\xc6s=\xc5'
p82
ssS'src_rockstor_storageadmin_views_rockon_json'
p83
(dp84
g6
(dp85
g8
S'src_rockstor_storageadmin_views_rockon_json.html'
p86
sg10
S'src/rockstor/storageadmin/views/rockon_json'
p87
sg12
g13
(g14
g15
NtRp88
(dp89
g18
I1
sg19
I0
sg20
I10
sg21
I0
sg22
I0
sg23
I10
sg24
I0
sbssg25
S'\xdb&\x14\xd7\x1cP\x82\xa2\x10\xd3TM\r\xa9TP'
p90
ssS'src_rockstor_storageadmin_views_snapshot'
p91
(dp92
g6
(dp93
g8
S'src_rockstor_storageadmin_views_snapshot.html'
p94
sg10
S'src/rockstor/storageadmin/views/snapshot'
p95
sg12
g13
(g14
g15
NtRp96
(dp97
g18
I1
sg19
I0
sg20
I155
sg21
I0
sg22
I0
sg23
I127
sg24
I0
sbssg25
S'n\xb1K\x94\xf2\xa6\xd3@Q\x86\x1a\xb92\x8b\x92<'
p98
ssS'src_rockstor_storageadmin_views_user'
p99
(dp100
g6
(dp101
g8
S'src_rockstor_storageadmin_views_user.html'
p102
sg10
S'src/rockstor/storageadmin/views/user'
p103
sg12
g13
(g14
g15
NtRp104
(dp105
g18
I1
sg19
I0
sg20
I214
sg21
I0
sg22
I0
sg23
I186
sg24
I0
sbssg25
S'\xb9\rid\xc2%$M\xe3\x05>w\xe12\xc6\xa0'
p106
ssS'src_rockstor_storageadmin_views_views'
p107
(dp108
g6
(dp109
g8
S'src_rockstor_storageadmin_views_views.html'
p110
sg10
S'src/rockstor/storageadmin/views/views'
p111
sg12
g13
(g14
g15
NtRp112
(dp113
g18
I1
sg19
I0
sg20
I0
sg21
I0
sg22
I0
sg23
I0
sg24
I0
sbssg25
S'{\xd99q\x98)\xfekT\xb8H7M\x1c\x94\xba'
p114
ssS'src_rockstor_storageadmin_views_rockon_helpers'
p115
(dp116
g6
(dp117
g8
S'src_rockstor_storageadmin_views_rockon_helpers.html'
p118
sg10
S'src/rockstor/storageadmin/views/rockon_helpers'
p119
sg12
g13
(g14
g15
NtRp120
(dp121
g18
I1
sg19
I0
sg20
I196
sg21
I0
sg22
I0
sg23
I181
sg24
I0
sbssg25
S'\xc2l\xba.bP\x99\xdaG[3\\\x9f\\9?'
p122
ssS'src_rockstor_storageadmin_views_clone_helpers'
p123
(dp124
g6
(dp125
g8
S'src_rockstor_storageadmin_views_clone_helpers.html'
p126
sg10
S'src/rockstor/storageadmin/views/clone_helpers'
p127
sg12
g13
(g14
g15
NtRp128
(dp129
g18
I1
sg19
I0
sg20
I31
sg21
I0
sg22
I0
sg23
I23
sg24
I0
sbssg25
S'\x07\x18\x1d\x01\x19s\xd9\x9f/\xe5\xe9\xb4P\x80\xd2m'
p130
ssS'src_rockstor_storageadmin_views_disk'
p131
(dp132
g6
(dp133
g8
S'src_rockstor_storageadmin_views_disk.html'
p134
sg10
S'src/rockstor/storageadmin/views/disk'
p135
sg12
g13
(g14
g15
NtRp136
(dp137
g18
I1
sg19
I0
sg20
I185
sg21
I0
sg22
I0
sg23
I148
sg24
I0
sbssg25
S'\x8f.\x91\xbf\x97H\xdee\xacD\xb8\x8e\xb0n\xb0\xa8'
p138
ssS'src_rockstor_storageadmin_views_setup_user'
p139
(dp140
g6
(dp141
g8
S'src_rockstor_storageadmin_views_setup_user.html'
p142
sg10
S'src/rockstor/storageadmin/views/setup_user'
p143
sg12
g13
(g14
g15
NtRp144
(dp145
g18
I1
sg19
I0
sg20
I32
sg21
I0
sg22
I0
sg23
I20
sg24
I0
sbssg25
S'\xec\x94\x84\x1a\x9aM2\xb5p\xca\xa2\x96\x95\x1cq\n'
p146
ssS'src_rockstor_storageadmin_views_update_subscription'
p147
(dp148
g6
(dp149
g8
S'src_rockstor_storageadmin_views_update_subscription.html'
p150
sg10
S'src/rockstor/storageadmin/views/update_subscription'
p151
sg12
g13
(g14
g15
NtRp152
(dp153
g18
I1
sg19
I0
sg20
I67
sg21
I0
sg22
I0
sg23
I67
sg24
I0
sbssg25
S'T\xa6\xe6h\x91\xd0Q\x1d\x9f\x97\xa2\xb2\xc9\xbb\xd8\xbd'
p154
ssS'src_rockstor_storageadmin_views_pool_balance'
p155
(dp156
g6
(dp157
g8
S'src_rockstor_storageadmin_views_pool_balance.html'
p158
sg10
S'src/rockstor/storageadmin/views/pool_balance'
p159
sg12
g13
(g14
g15
NtRp160
(dp161
g18
I1
sg19
I0
sg20
I67
sg21
I0
sg22
I0
sg23
I47
sg24
I0
sbssg25
S'9x\xa8\xcf\x0f\xaa\xf9\xbf\x81\xed\xc1TJ\xf8\xff='
p162
ssS'src_rockstor_storageadmin_views_rockon_volume'
p163
(dp164
g6
(dp165
g8
S'src_rockstor_storageadmin_views_rockon_volume.html'
p166
sg10
S'src/rockstor/storageadmin/views/rockon_volume'
p167
sg12
g13
(g14
g15
NtRp168
(dp169
g18
I1
sg19
I0
sg20
I14
sg21
I0
sg22
I0
sg23
I14
sg24
I0
sbssg25
S'\xe1+l\xe8\xce\xe2\xf2\xd8]\xc5\x9d6\x86C\x86Z'
p170
ssS'src_rockstor_storageadmin_views_pool_scrub'
p171
(dp172
g6
(dp173
g8
S'src_rockstor_storageadmin_views_pool_scrub.html'
p174
sg10
S'src/rockstor/storageadmin/views/pool_scrub'
p175
sg12
g13
(g14
g15
NtRp176
(dp177
g18
I1
sg19
I0
sg20
I58
sg21
I0
sg22
I0
sg23
I41
sg24
I0
sbssg25
S'\x9a\xef\xa4\x9f\x7f\xb4\xf4\xbeo\xca\x8e\xbeG\xd1N\xae'
p178
ssS'src_rockstor_storageadmin_views_rockon'
p179
(dp180
g6
(dp181
g8
S'src_rockstor_storageadmin_views_rockon.html'
p182
sg10
S'src/rockstor/storageadmin/views/rockon'
p183
sg12
g13
(g14
g15
NtRp184
(dp185
g18
I1
sg19
I0
sg20
I209
sg21
I0
sg22
I0
sg23
I200
sg24
I0
sbssg25
S'e\x929\xca\xf8\xb4x{\x11>\x0b\xaa\x00\xf4$\xf0'
p186
ssS'src_rockstor_storageadmin_views_sftp'
p187
(dp188
g6
(dp189
g8
S'src_rockstor_storageadmin_views_sftp.html'
p190
sg10
S'src/rockstor/storageadmin/views/sftp'
p191
sg12
g13
(g14
g15
NtRp192
(dp193
g18
I1
sg19
I0
sg20
I79
sg21
I0
sg22
I0
sg23
I58
sg24
I0
sbssg25
S'\xb9\xf7gA\x0f\x0b\xa9\xe0\xf5\x89\xa2\xf0V\xde\x82\xf6'
p194
ssS'src_rockstor_storageadmin_views_pool'
p195
(dp196
g6
(dp197
g8
S'src_rockstor_storageadmin_views_pool.html'
p198
sg10
S'src/rockstor/storageadmin/views/pool'
p199
sg12
g13
(g14
g15
NtRp200
(dp201
g18
I1
sg19
I0
sg20
I294
sg21
I0
sg22
I0
sg23
I263
sg24
I0
sbssg25
S'K\xb8J0\x11Gb\xfb)\xc4\xb9\xde(\xfb\xb5\xa9'
p202
ssS'src_rockstor_storageadmin_views_network'
p203
(dp204
g6
(dp205
g8
S'src_rockstor_storageadmin_views_network.html'
p206
sg10
S'src/rockstor/storageadmin/views/network'
p207
sg12
g13
(g14
g15
NtRp208
(dp209
g18
I1
sg19
I0
sg20
I156
sg21
I0
sg22
I0
sg23
I125
sg24
I0
sbssg25
S'\x9f\x94\x8e\x02\xa0B\x9e\xd3\xce\r\xb4\xf3L\xbe\x8f\x00'
p210
ssS'src_rockstor_storageadmin_views_email_client'
p211
(dp212
g6
(dp213
g8
S'src_rockstor_storageadmin_views_email_client.html'
p214
sg10
S'src/rockstor/storageadmin/views/email_client'
p215
sg12
g13
(g14
g15
NtRp216
(dp217
g18
I1
sg19
I0
sg20
I109
sg21
I0
sg22
I0
sg23
I109
sg24
I0
sbssg25
S"\x8f\x05`\x18fASf\x07\x82\xcb\xfd\xc8\x83T'"
p218
ssS'src_rockstor_storageadmin_views_disk_smart'
p219
(dp220
g6
(dp221
g8
S'src_rockstor_storageadmin_views_disk_smart.html'
p222
sg10
S'src/rockstor/storageadmin/views/disk_smart'
p223
sg12
g13
(g14
g15
NtRp224
(dp225
g18
I1
sg19
I0
sg20
I86
sg21
I0
sg22
I0
sg23
I86
sg24
I0
sbssg25
S'E\x8aT\x86\xa7R\xdc\xe2=z/\xb5\xd6v\xba\x9e'
p226
ssS'src_rockstor_storageadmin_views_share_helpers'
p227
(dp228
g6
(dp229
g8
S'src_rockstor_storageadmin_views_share_helpers.html'
p230
sg10
S'src/rockstor/storageadmin/views/share_helpers'
p231
sg12
g13
(g14
g15
NtRp232
(dp233
g18
I1
sg19
I0
sg20
I106
sg21
I0
sg22
I0
sg23
I91
sg24
I0
sbssg25
S'\x86?\xa1\x8c\xaf\xf5\x7f\xdb[\xee\xba\xc9\xe3\xc8\xd4q'
p234
ssS'src_rockstor_storageadmin_views_rockon_custom_config'
p235
(dp236
g6
(dp237
g8
S'src_rockstor_storageadmin_views_rockon_custom_config.html'
p238
sg10
S'src/rockstor/storageadmin/views/rockon_custom_config'
p239
sg12
g13
(g14
g15
NtRp240
(dp241
g18
I1
sg19
I0
sg20
I13
sg21
I0
sg22
I0
sg23
I13
sg24
I0
sbssg25
S"\x1f5m\x11\xca O\x06'>\x80\n\xe8\xc1\x15B"
p242
ssS'src_rockstor_storageadmin_views_rockon_port'
p243
(dp244
g6
(dp245
g8
S'src_rockstor_storageadmin_views_rockon_port.html'
p246
sg10
S'src/rockstor/storageadmin/views/rockon_port'
p247
sg12
g13
(g14
g15
NtRp248
(dp249
g18
I1
sg19
I0
sg20
I14
sg21
I0
sg22
I0
sg23
I14
sg24
I0
sbssg25
S'\xce\x1a\x1b\xe2\x8b\x08\xc8W~\x92\xbcD\xe8\x13\xd7h'
p250
ssS'src_rockstor_storageadmin_views_login'
p251
(dp252
g6
(dp253
g8
S'src_rockstor_storageadmin_views_login.html'
p254
sg10
S'src/rockstor/storageadmin/views/login'
p255
sg12
g13
(g14
g15
NtRp256
(dp257
g18
I1
sg19
I0
sg20
I19
sg21
I0
sg22
I0
sg23
I10
sg24
I0
sbssg25
S'\xaa\x82\x89\x0f\x9c\xecAJX\x02\x7f\xd4H \xa7r'
p258
ssS'src_rockstor_storageadmin_views_appliances'
p259
(dp260
g6
(dp261
g8
S'src_rockstor_storageadmin_views_appliances.html'
p262
sg10
S'src/rockstor/storageadmin/views/appliances'
p263
sg12
g13
(g14
g15
NtRp264
(dp265
g18
I1
sg19
I0
sg20
I105
sg21
I0
sg22
I0
sg23
I80
sg24
I0
sbssg25
S'\x98\xdc\xd2\x1dd%\x8d\x94\xba\x98\x8f\xe8\x87XyQ'
p266
ssS'src_rockstor_storageadmin_views_share'
p267
(dp268
g6
(dp269
g8
S'src_rockstor_storageadmin_views_share.html'
p270
sg10
S'src/rockstor/storageadmin/views/share'
p271
sg12
g13
(g14
g15
NtRp272
(dp273
g18
I1
sg19
I0
sg20
I175
sg21
I0
sg22
I0
sg23
I143
sg24
I0
sbssg25
S'y\x86bJ\t\xe7G\xd8\xf7\x89S\xeb\xb9\xbd\xf4\x9f'
p274
ssS'src_rockstor_storageadmin_views_samba'
p275
(dp276
g6
(dp277
g8
S'src_rockstor_storageadmin_views_samba.html'
p278
sg10
S'src/rockstor/storageadmin/views/samba'
p279
sg12
g13
(g14
g15
NtRp280
(dp281
g18
I1
sg19
I0
sg20
I153
sg21
I0
sg22
I0
sg23
I126
sg24
I0
sbssg25
S'\t\xe06@\xa2\xc3,\xe1s\xbfTL\x95q\xc4\x0f'
p282
ssS'src_rockstor_storageadmin_views_config_backup'
p283
(dp284
g6
(dp285
g8
S'src_rockstor_storageadmin_views_config_backup.html'
p286
sg10
S'src/rockstor/storageadmin/views/config_backup'
p287
sg12
g13
(g14
g15
NtRp288
(dp289
g18
I1
sg19
I0
sg20
I206
sg21
I0
sg22
I0
sg23
I206
sg24
I0
sbssg25
S'\x98\xae\x1d\x13\x98\x03.!("*\xd2u\xccCm'
p290
ssS'src_rockstor_storageadmin_views_group'
p291
(dp292
g6
(dp293
g8
S'src_rockstor_storageadmin_views_group.html'
p294
sg10
S'src/rockstor/storageadmin/views/group'
p295
sg12
g13
(g14
g15
NtRp296
(dp297
g18
I1
sg19
I0
sg20
I72
sg21
I0
sg22
I0
sg23
I50
sg24
I0
sbssg25
S'\xe1\xae\x1a,~\x8f\x94\xdcB\xb4\x06,\x0cKp\x03'
p298
ssS'src_rockstor_storageadmin_views_share_command'
p299
(dp300
g6
(dp301
g8
S'src_rockstor_storageadmin_views_share_command.html'
p302
sg10
S'src/rockstor/storageadmin/views/share_command'
p303
sg12
g13
(g14
g15
NtRp304
(dp305
g18
I1
sg19
I0
sg20
I49
sg21
I0
sg22
I0
sg23
I30
sg24
I0
sbssg25
S'\xfb{\xe8P\xc1w\xc5\x9b\xe2\xad\xf4\x0cdq\xf6q'
p306
ssS'src_rockstor_storageadmin_views_share_acl'
p307
(dp308
g6
(dp309
g8
S'src_rockstor_storageadmin_views_share_acl.html'
p310
sg10
S'src/rockstor/storageadmin/views/share_acl'
p311
sg12
g13
(g14
g15
NtRp312
(dp313
g18
I1
sg19
I0
sg20
I34
sg21
I0
sg22
I0
sg23
I22
sg24
I0
sbssg25
S'Ag\xdb\r\x7f\xe7\xa8rK,h8\xcb\xb8yQ'
p314
ssS'src_rockstor_storageadmin_views_dashboardconfig'
p315
(dp316
g6
(dp317
g8
S'src_rockstor_storageadmin_views_dashboardconfig.html'
p318
sg10
S'src/rockstor/storageadmin/views/dashboardconfig'
p319
sg12
g13
(g14
g15
NtRp320
(dp321
g18
I1
sg19
I0
sg20
I54
sg21
I0
sg22
I0
sg23
I35
sg24
I0
sbssg25
S'*\x0c\xc7l\x84t\xd59R\xb1\x0b\xe7Fsk\xd7'
p322
ssS'src_rockstor_storageadmin_views_home'
p323
(dp324
g6
(dp325
g8
S'src_rockstor_storageadmin_views_home.html'
p326
sg10
S'src/rockstor/storageadmin/views/home'
p327
sg12
g13
(g14
g15
NtRp328
(dp329
g18
I1
sg19
I0
sg20
I36
sg21
I0
sg22
I0
sg23
I24
sg24
I0
sbssg25
S'\x0b\x8c\xa5KzED\xa8\xda\t@\x8a\xf7\xab\x01\xd5'
p330
sssS'version'
p331
S'3.7.1'
p332
sS'settings'
p333
S'\xc3|\r\t\xa4*(`Hm\xf9\x00\xca\x9b\xc7\x1c'
p334
sS'format'
p335
I1
s.