(dp1
S'files'
p2
(dp3
S'src_rockstor_storageadmin_views_rockon_id'
p4
(dp5
S'index'
p6
(dp7
S'html_filename'
p8
S'src_rockstor_storageadmin_views_rockon_id.html'
p9
sS'name'
p10
S'src/rockstor/storageadmin/views/rockon_id'
p11
sS'nums'
p12
ccopy_reg
_reconstructor
p13
(ccoverage.results
Numbers
p14
c__builtin__
object
p15
NtRp16
(dp17
S'n_files'
p18
I1
sS'n_branches'
p19
I0
sS'n_statements'
p20
I130
sS'n_excluded'
p21
I0
sS'n_partial_branches'
p22
I0
sS'n_missing'
p23
I115
sS'n_missing_branches'
p24
I0
sbssS'hash'
p25
S'\xc7\x1a\xef\xd6\xd2\x07=\x89\xd5\xd5\xbb\xb7\x0f\xa4\xb6\x97'
p26
ssS'src_rockstor_storageadmin_views___init__'
p27
(dp28
g6
(dp29
g8
S'src_rockstor_storageadmin_views___init__.html'
p30
sg10
S'src/rockstor/storageadmin/views/__init__'
p31
sg12
g13
(g14
g15
NtRp32
(dp33
g18
I1
sg19
I0
sg20
I36
sg21
I0
sg22
I0
sg23
I0
sg24
I0
sbssg25
S'\xb6\xd2\x11D\xf0[\x9a\xf0|(\xea\x02>\x03D\x81'
p34
ssS'src_rockstor_storageadmin_views_ug_helpers'
p35
(dp36
g6
(dp37
g8
S'src_rockstor_storageadmin_views_ug_helpers.html'
p38
sg10
S'src/rockstor/storageadmin/views/ug_helpers'
p39
sg12
g13
(g14
g15
NtRp40
(dp41
g18
I1
sg19
I0
sg20
I20
sg21
I0
sg22
I0
sg23
I14
sg24
I0
sbssg25
S'.4\x08\x9a\x0bai\xbc\xdc\xca\xe8\x1b\xab\x99\xf86'
p42
ssS'src_rockstor_storageadmin_views_plugin'
p43
(dp44
g6
(dp45
g8
S'src_rockstor_storageadmin_views_plugin.html'
p46
sg10
S'src/rockstor/storageadmin/views/plugin'
p47
sg12
g13
(g14
g15
NtRp48
(dp49
g18
I1
sg19
I0
sg20
I13
sg21
I0
sg22
I0
sg23
I1
sg24
I0
sbssg25
S'\xa8\x12\xe6\xde@G<\xff\xe96\xc1av/l*'
p50
ssS'src_rockstor_storageadmin_views_adv_nfs_exports'
p51
(dp52
g6
(dp53
g8
S'src_rockstor_storageadmin_views_adv_nfs_exports.html'
p54
sg10
S'src/rockstor/storageadmin/views/adv_nfs_exports'
p55
sg12
g13
(g14
g15
NtRp56
(dp57
g18
I1
sg19
I0
sg20
I45
sg21
I0
sg22
I0
sg23
I32
sg24
I0
sbssg25
S'7\xe6\xbc\xce\xb4\xe1\xc6\xeb\r\xfe\x9f`\xfc\xbbe\x7f'
p58
ssS'src_rockstor_storageadmin_views_rockon_helpers'
p59
(dp60
g6
(dp61
g8
S'src_rockstor_storageadmin_views_rockon_helpers.html'
p62
sg10
S'src/rockstor/storageadmin/views/rockon_helpers'
p63
sg12
g13
(g14
g15
NtRp64
(dp65
g18
I1
sg19
I0
sg20
I121
sg21
I0
sg22
I0
sg23
I103
sg24
I0
sbssg25
S'\xd4\x04Vr\rG\xf9\x1e\xf3I\x01E4k\xda_'
p66
ssS'src_rockstor_storageadmin_views_tls_certificate'
p67
(dp68
g6
(dp69
g8
S'src_rockstor_storageadmin_views_tls_certificate.html'
p70
sg10
S'src/rockstor/storageadmin/views/tls_certificate'
p71
sg12
g13
(g14
g15
NtRp72
(dp73
g18
I1
sg19
I0
sg20
I53
sg21
I0
sg22
I0
sg23
I35
sg24
I0
sbssg25
S'\xa8\x16s \x96\xe9\x9b\xb5\xbd\xa9_9X\xbc\xd3C'
p74
ssS'src_rockstor_storageadmin_views_oauth_app'
p75
(dp76
g6
(dp77
g8
S'src_rockstor_storageadmin_views_oauth_app.html'
p78
sg10
S'src/rockstor/storageadmin/views/oauth_app'
p79
sg12
g13
(g14
g15
NtRp80
(dp81
g18
I1
sg19
I0
sg20
I47
sg21
I0
sg22
I0
sg23
I34
sg24
I0
sbssg25
S'\te\xa1#\x04\xe9;\xf7\x05\xaf\xea\xcc\x13*7S'
p82
ssS'src_rockstor_storageadmin_views_netatalk'
p83
(dp84
g6
(dp85
g8
S'src_rockstor_storageadmin_views_netatalk.html'
p86
sg10
S'src/rockstor/storageadmin/views/netatalk'
p87
sg12
g13
(g14
g15
NtRp88
(dp89
g18
I1
sg19
I0
sg20
I95
sg21
I0
sg22
I0
sg23
I70
sg24
I0
sbssg25
S'e\xd6\t\xa02J\xc2\xe6d\xd8\t%\xf1\xc5}\xe2'
p90
ssS'src_rockstor_storageadmin_views_clone_helpers'
p91
(dp92
g6
(dp93
g8
S'src_rockstor_storageadmin_views_clone_helpers.html'
p94
sg10
S'src/rockstor/storageadmin/views/clone_helpers'
p95
sg12
g13
(g14
g15
NtRp96
(dp97
g18
I1
sg19
I0
sg20
I32
sg21
I0
sg22
I0
sg23
I24
sg24
I0
sbssg25
S'\x80\x18|U\xe2\xa5\x999\xef\xb8G\xc2\xbf\xe2\x0c\x88'
p98
ssS'src_rockstor_storageadmin_views_share_command'
p99
(dp100
g6
(dp101
g8
S'src_rockstor_storageadmin_views_share_command.html'
p102
sg10
S'src/rockstor/storageadmin/views/share_command'
p103
sg12
g13
(g14
g15
NtRp104
(dp105
g18
I1
sg19
I0
sg20
I81
sg21
I0
sg22
I0
sg23
I63
sg24
I0
sbssg25
S'\xde\x16oT&\xff\xf9\xcc\xb5F\xf9\x9fUk\xaaO'
p106
ssS'src_rockstor_storageadmin_views_serializers'
p107
(dp108
g6
(dp109
g8
S'src_rockstor_storageadmin_views_serializers.html'
p110
sg10
S'src/rockstor/storageadmin/views/serializers'
p111
sg12
g13
(g14
g15
NtRp112
(dp113
g18
I1
sg19
I0
sg20
I8
sg21
I0
sg22
I0
sg23
I8
sg24
I0
sbssg25
S'B\x91_\xf9\x1d\x8bsBs\xff\xce\xc0\x83[cn'
p114
ssS'src_rockstor_storageadmin_views_pool_import'
p115
(dp116
g6
(dp117
g8
S'src_rockstor_storageadmin_views_pool_import.html'
p118
sg10
S'src/rockstor/storageadmin/views/pool_import'
p119
sg12
g13
(g14
g15
NtRp120
(dp121
g18
I1
sg19
I0
sg20
I70
sg21
I0
sg22
I0
sg23
I70
sg24
I0
sbssg25
S'\x91\xaa\x7f2\xef\xcb\xf3M\xec\xacoM%C\x12\xda'
p122
ssS'src_rockstor_storageadmin_views_snapshot'
p123
(dp124
g6
(dp125
g8
S'src_rockstor_storageadmin_views_snapshot.html'
p126
sg10
S'src/rockstor/storageadmin/views/snapshot'
p127
sg12
g13
(g14
g15
NtRp128
(dp129
g18
I1
sg19
I0
sg20
I152
sg21
I0
sg22
I0
sg23
I127
sg24
I0
sbssg25
S'\xa2t\xc4\xe7t\xce)\xeb{n\xe9\x88>\xb8G\x80'
p130
ssS'src_rockstor_storageadmin_views_views'
p131
(dp132
g6
(dp133
g8
S'src_rockstor_storageadmin_views_views.html'
p134
sg10
S'src/rockstor/storageadmin/views/views'
p135
sg12
g13
(g14
g15
NtRp136
(dp137
g18
I1
sg19
I0
sg20
I0
sg21
I0
sg22
I0
sg23
I0
sg24
I0
sbssg25
S'{\xd99q\x98)\xfekT\xb8H7M\x1c\x94\xba'
p138
ssS'src_rockstor_storageadmin_views_nfs_exports'
p139
(dp140
g6
(dp141
g8
S'src_rockstor_storageadmin_views_nfs_exports.html'
p142
sg10
S'src/rockstor/storageadmin/views/nfs_exports'
p143
sg12
g13
(g14
g15
NtRp144
(dp145
g18
I1
sg19
I0
sg20
I108
sg21
I0
sg22
I0
sg23
I87
sg24
I0
sbssg25
S'\xa5\x04\x8e\x19\xc1\xd7\xfc\x18\x85\xcf\xae\xea\x15\xcc8}'
p146
ssS'src_rockstor_storageadmin_views_disk_smart'
p147
(dp148
g6
(dp149
g8
S'src_rockstor_storageadmin_views_disk_smart.html'
p150
sg10
S'src/rockstor/storageadmin/views/disk_smart'
p151
sg12
g13
(g14
g15
NtRp152
(dp153
g18
I1
sg19
I0
sg20
I85
sg21
I0
sg22
I0
sg23
I64
sg24
I0
sbssg25
S'\xda\xf3"A4\xb0j\xfb\x17\xcbq\x13y\xb9\x10\x87'
p154
ssS'src_rockstor_storageadmin_views_setup_user'
p155
(dp156
g6
(dp157
g8
S'src_rockstor_storageadmin_views_setup_user.html'
p158
sg10
S'src/rockstor/storageadmin/views/setup_user'
p159
sg12
g13
(g14
g15
NtRp160
(dp161
g18
I1
sg19
I0
sg20
I32
sg21
I0
sg22
I0
sg23
I20
sg24
I0
sbssg25
S'\xec\x94\x84\x1a\x9aM2\xb5p\xca\xa2\x96\x95\x1cq\n'
p162
ssS'src_rockstor_storageadmin_views_share_iscsi'
p163
(dp164
g6
(dp165
g8
S'src_rockstor_storageadmin_views_share_iscsi.html'
p166
sg10
S'src/rockstor/storageadmin/views/share_iscsi'
p167
sg12
g13
(g14
g15
NtRp168
(dp169
g18
I1
sg19
I0
sg20
I59
sg21
I0
sg22
I0
sg23
I43
sg24
I0
sbssg25
S'0\x04\xd3SN\x0c\xa6\x96\xadx^\xa1\xaa\xd8 \x0b'
p170
ssS'src_rockstor_storageadmin_views_pool_balance'
p171
(dp172
g6
(dp173
g8
S'src_rockstor_storageadmin_views_pool_balance.html'
p174
sg10
S'src/rockstor/storageadmin/views/pool_balance'
p175
sg12
g13
(g14
g15
NtRp176
(dp177
g18
I1
sg19
I0
sg20
I56
sg21
I0
sg22
I0
sg23
I39
sg24
I0
sbssg25
S'\x07\x17\x19.?\x9aP=[\xe8\xad\x88\x8a\xc7\xfeB'
p178
ssS'src_rockstor_storageadmin_views_pool'
p179
(dp180
g6
(dp181
g8
S'src_rockstor_storageadmin_views_pool.html'
p182
sg10
S'src/rockstor/storageadmin/views/pool'
p183
sg12
g13
(g14
g15
NtRp184
(dp185
g18
I1
sg19
I0
sg20
I285
sg21
I0
sg22
I0
sg23
I48
sg24
I0
sbssg25
S'\xa1\x95#\x04\xbbb\xc9\xfe#\xbb\xcbQ\xc6c\xdb\xc8'
p186
ssS'src_rockstor_storageadmin_views_pool_scrub'
p187
(dp188
g6
(dp189
g8
S'src_rockstor_storageadmin_views_pool_scrub.html'
p190
sg10
S'src/rockstor/storageadmin/views/pool_scrub'
p191
sg12
g13
(g14
g15
NtRp192
(dp193
g18
I1
sg19
I0
sg20
I60
sg21
I0
sg22
I0
sg23
I43
sg24
I0
sbssg25
S'\xfe\xf2\x8c\xe6Q\x0f\x9b\xdd\x00dX|\x003\x87w'
p194
ssS'src_rockstor_storageadmin_views_rockon'
p195
(dp196
g6
(dp197
g8
S'src_rockstor_storageadmin_views_rockon.html'
p198
sg10
S'src/rockstor/storageadmin/views/rockon'
p199
sg12
g13
(g14
g15
NtRp200
(dp201
g18
I1
sg19
I0
sg20
I107
sg21
I0
sg22
I0
sg23
I89
sg24
I0
sbssg25
S'\x161@{\\oB\xc2\xf6\xb7\xa80\xe6\xe4\xcf+'
p202
ssS'src_rockstor_storageadmin_views_sftp'
p203
(dp204
g6
(dp205
g8
S'src_rockstor_storageadmin_views_sftp.html'
p206
sg10
S'src/rockstor/storageadmin/views/sftp'
p207
sg12
g13
(g14
g15
NtRp208
(dp209
g18
I1
sg19
I0
sg20
I79
sg21
I0
sg22
I0
sg23
I58
sg24
I0
sbssg25
S'\xb9\xf7gA\x0f\x0b\xa9\xe0\xf5\x89\xa2\xf0V\xde\x82\xf6'
p210
ssS'src_rockstor_storageadmin_views_rockon_volume'
p211
(dp212
g6
(dp213
g8
S'src_rockstor_storageadmin_views_rockon_volume.html'
p214
sg10
S'src/rockstor/storageadmin/views/rockon_volume'
p215
sg12
g13
(g14
g15
NtRp216
(dp217
g18
I1
sg19
I0
sg20
I14
sg21
I0
sg22
I0
sg23
I7
sg24
I0
sbssg25
S"b\x81\xfc:\xc84|\xeb1\x9bHb'R\xe8K"
p218
ssS'src_rockstor_storageadmin_views_network'
p219
(dp220
g6
(dp221
g8
S'src_rockstor_storageadmin_views_network.html'
p222
sg10
S'src/rockstor/storageadmin/views/network'
p223
sg12
g13
(g14
g15
NtRp224
(dp225
g18
I1
sg19
I0
sg20
I122
sg21
I0
sg22
I0
sg23
I99
sg24
I0
sbssg25
S'\xb3\x14\xc1y\xe6C\xab\xdc6\x11\x81V>\xb5m\x87'
p226
ssS'src_rockstor_storageadmin_views_command'
p227
(dp228
g6
(dp229
g8
S'src_rockstor_storageadmin_views_command.html'
p230
sg10
S'src/rockstor/storageadmin/views/command'
p231
sg12
g13
(g14
g15
NtRp232
(dp233
g18
I1
sg19
I0
sg20
I185
sg21
I0
sg22
I0
sg23
I160
sg24
I0
sbssg25
S'\xd7\x82J\x92\xec\x81\xe8;\xf7\xda\xf9\x987\xffZh'
p234
ssS'src_rockstor_storageadmin_views_user'
p235
(dp236
g6
(dp237
g8
S'src_rockstor_storageadmin_views_user.html'
p238
sg10
S'src/rockstor/storageadmin/views/user'
p239
sg12
g13
(g14
g15
NtRp240
(dp241
g18
I1
sg19
I0
sg20
I208
sg21
I0
sg22
I0
sg23
I180
sg24
I0
sbssg25
S'\xc7\xdc_\x85\n\xe4\xec\xa9D3\x1e\x90\xef)y\xa1'
p242
ssS'src_rockstor_storageadmin_views_support'
p243
(dp244
g6
(dp245
g8
S'src_rockstor_storageadmin_views_support.html'
p246
sg10
S'src/rockstor/storageadmin/views/support'
p247
sg12
g13
(g14
g15
NtRp248
(dp249
g18
I1
sg19
I0
sg20
I74
sg21
I0
sg22
I0
sg23
I49
sg24
I0
sbssg25
S'\xbdKJ\xfd\x10d\xf2\xd6&%\x7f!\x19w\x14\xe2'
p250
ssS'src_rockstor_storageadmin_views_disk'
p251
(dp252
g6
(dp253
g8
S'src_rockstor_storageadmin_views_disk.html'
p254
sg10
S'src/rockstor/storageadmin/views/disk'
p255
sg12
g13
(g14
g15
NtRp256
(dp257
g18
I1
sg19
I0
sg20
I145
sg21
I0
sg22
I0
sg23
I114
sg24
I0
sbssg25
S'\x14\xa9\xd9\xe46h\xb5j\x0e\xfbV4\xa3/\xc5\xae'
p258
ssS'src_rockstor_storageadmin_views_share_helpers'
p259
(dp260
g6
(dp261
g8
S'src_rockstor_storageadmin_views_share_helpers.html'
p262
sg10
S'src/rockstor/storageadmin/views/share_helpers'
p263
sg12
g13
(g14
g15
NtRp264
(dp265
g18
I1
sg19
I0
sg20
I35
sg21
I0
sg22
I0
sg23
I25
sg24
I0
sbssg25
S'I\x81\xcfL\xfa\x9a\xf3\x03\xd4/\x0e\xa0/J\xa1{'
p266
ssS'src_rockstor_storageadmin_views_rockon_custom_config'
p267
(dp268
g6
(dp269
g8
S'src_rockstor_storageadmin_views_rockon_custom_config.html'
p270
sg10
S'src/rockstor/storageadmin/views/rockon_custom_config'
p271
sg12
g13
(g14
g15
NtRp272
(dp273
g18
I1
sg19
I0
sg20
I13
sg21
I0
sg22
I0
sg23
I6
sg24
I0
sbssg25
S'r\xd7n\x99\x11GR\xa3\x19v\xd9\x16\xcf\xb1V\xe6'
p274
ssS'src_rockstor_storageadmin_views_installed_plugin'
p275
(dp276
g6
(dp277
g8
S'src_rockstor_storageadmin_views_installed_plugin.html'
p278
sg10
S'src/rockstor/storageadmin/views/installed_plugin'
p279
sg12
g13
(g14
g15
NtRp280
(dp281
g18
I1
sg19
I0
sg20
I26
sg21
I0
sg22
I0
sg23
I12
sg24
I0
sbssg25
S'\x1f\xbe\xf7\xf2Bv\x8e\x0b}\x1b\xde\x1d\xb1\xa0P\x94'
p282
ssS'src_rockstor_storageadmin_views_share_nfs'
p283
(dp284
g6
(dp285
g8
S'src_rockstor_storageadmin_views_share_nfs.html'
p286
sg10
S'src/rockstor/storageadmin/views/share_nfs'
p287
sg12
g13
(g14
g15
NtRp288
(dp289
g18
I1
sg19
I0
sg20
I81
sg21
I0
sg22
I0
sg23
I61
sg24
I0
sbssg25
S'\x00|\x02fu\x1a\xcbr\xf3\xaco}\xfa\xe5\xc0\xb5'
p290
ssS'src_rockstor_storageadmin_views_rockon_port'
p291
(dp292
g6
(dp293
g8
S'src_rockstor_storageadmin_views_rockon_port.html'
p294
sg10
S'src/rockstor/storageadmin/views/rockon_port'
p295
sg12
g13
(g14
g15
NtRp296
(dp297
g18
I1
sg19
I0
sg20
I14
sg21
I0
sg22
I0
sg23
I7
sg24
I0
sbssg25
S'\xda\xe3\x0f@\xd0sN\x8au\xb5\x9a\x15=\xee(R'
p298
ssS'src_rockstor_storageadmin_views_login'
p299
(dp300
g6
(dp301
g8
S'src_rockstor_storageadmin_views_login.html'
p302
sg10
S'src/rockstor/storageadmin/views/login'
p303
sg12
g13
(g14
g15
NtRp304
(dp305
g18
I1
sg19
I0
sg20
I19
sg21
I0
sg22
I0
sg23
I10
sg24
I0
sbssg25
S'\xaa\x82\x89\x0f\x9c\xecAJX\x02\x7f\xd4H \xa7r'
p306
ssS'src_rockstor_storageadmin_views_appliances'
p307
(dp308
g6
(dp309
g8
S'src_rockstor_storageadmin_views_appliances.html'
p310
sg10
S'src/rockstor/storageadmin/views/appliances'
p311
sg12
g13
(g14
g15
NtRp312
(dp313
g18
I1
sg19
I0
sg20
I114
sg21
I0
sg22
I0
sg23
I90
sg24
I0
sbssg25
S'\t\xf6\x94\xad\x1dZ`v\x9a\x01m\x1e6\xacV\xbb'
p314
ssS'src_rockstor_storageadmin_views_nfs_helpers'
p315
(dp316
g6
(dp317
g8
S'src_rockstor_storageadmin_views_nfs_helpers.html'
p318
sg10
S'src/rockstor/storageadmin/views/nfs_helpers'
p319
sg12
g13
(g14
g15
NtRp320
(dp321
g18
I1
sg19
I0
sg20
I87
sg21
I0
sg22
I0
sg23
I73
sg24
I0
sbssg25
S'\x9c\xa3\x89Z\x91R\xb8u\xeb\x17\\\xce[\xbamR'
p322
ssS'src_rockstor_storageadmin_views_share'
p323
(dp324
g6
(dp325
g8
S'src_rockstor_storageadmin_views_share.html'
p326
sg10
S'src/rockstor/storageadmin/views/share'
p327
sg12
g13
(g14
g15
NtRp328
(dp329
g18
I1
sg19
I0
sg20
I147
sg21
I0
sg22
I0
sg23
I122
sg24
I0
sbssg25
S'\x1b\x04\x87)\xa8\xd7V\x98\xee0#\xc6\x95*lP'
p330
ssS'src_rockstor_storageadmin_views_samba'
p331
(dp332
g6
(dp333
g8
S'src_rockstor_storageadmin_views_samba.html'
p334
sg10
S'src/rockstor/storageadmin/views/samba'
p335
sg12
g13
(g14
g15
NtRp336
(dp337
g18
I1
sg19
I0
sg20
I154
sg21
I0
sg22
I0
sg23
I128
sg24
I0
sbssg25
S'\xaf.\xb0\xd9\xcc\xef\xbaD\xf7a\xa5Y\xe7\xde\x03\x18'
p338
ssS'src_rockstor_storageadmin_views_group'
p339
(dp340
g6
(dp341
g8
S'src_rockstor_storageadmin_views_group.html'
p342
sg10
S'src/rockstor/storageadmin/views/group'
p343
sg12
g13
(g14
g15
NtRp344
(dp345
g18
I1
sg19
I0
sg20
I71
sg21
I0
sg22
I0
sg23
I49
sg24
I0
sbssg25
S'&\xef)A\x8c>q\x13\xf86\xea\xe9\xc8V~\x85'
p346
ssS'src_rockstor_storageadmin_views_share_acl'
p347
(dp348
g6
(dp349
g8
S'src_rockstor_storageadmin_views_share_acl.html'
p350
sg10
S'src/rockstor/storageadmin/views/share_acl'
p351
sg12
g13
(g14
g15
NtRp352
(dp353
g18
I1
sg19
I0
sg20
I35
sg21
I0
sg22
I0
sg23
I23
sg24
I0
sbssg25
S'\xaa\xa4I\xa2\xfd!W\xc4\xc9\xdfc\x9cRX4\x89'
p354
ssS'src_rockstor_storageadmin_views_dashboardconfig'
p355
(dp356
g6
(dp357
g8
S'src_rockstor_storageadmin_views_dashboardconfig.html'
p358
sg10
S'src/rockstor/storageadmin/views/dashboardconfig'
p359
sg12
g13
(g14
g15
NtRp360
(dp361
g18
I1
sg19
I0
sg20
I54
sg21
I0
sg22
I0
sg23
I35
sg24
I0
sbssg25
S'*\x0c\xc7l\x84t\xd59R\xb1\x0b\xe7Fsk\xd7'
p362
ssS'src_rockstor_storageadmin_views_home'
p363
(dp364
g6
(dp365
g8
S'src_rockstor_storageadmin_views_home.html'
p366
sg10
S'src/rockstor/storageadmin/views/home'
p367
sg12
g13
(g14
g15
NtRp368
(dp369
g18
I1
sg19
I0
sg20
I37
sg21
I0
sg22
I0
sg23
I24
sg24
I0
sbssg25
S'oy\x89\x93\xae\xdd\xefTuZM\x7f\xcc\x11y\xe4'
p370
sssS'version'
p371
S'3.7.1'
p372
sS'settings'
p373
S'\x1c\xae\x14\xdd\x18\xfc@\xc6!a\xf2\xc4 \xd2\xeeK'
p374
sS'format'
p375
I1
s.