(dp1
S'files'
p2
(dp3
S'src_rockstor_storageadmin_views_rockon_id'
p4
(dp5
S'index'
p6
(dp7
S'html_filename'
p8
S'src_rockstor_storageadmin_views_rockon_id.html'
p9
sS'name'
p10
S'src/rockstor/storageadmin/views/rockon_id'
p11
sS'nums'
p12
ccopy_reg
_reconstructor
p13
(ccoverage.results
Numbers
p14
c__builtin__
object
p15
NtRp16
(dp17
S'n_files'
p18
I1
sS'n_branches'
p19
I0
sS'n_statements'
p20
I142
sS'n_excluded'
p21
I0
sS'n_partial_branches'
p22
I0
sS'n_missing'
p23
I125
sS'n_missing_branches'
p24
I0
sbssS'hash'
p25
S'Q*\x06\xf1;yM\xf1\x8e\x89\xe6\xed\xd31\x14{'
p26
ssS'src_rockstor_storageadmin_views___init__'
p27
(dp28
g6
(dp29
g8
S'src_rockstor_storageadmin_views___init__.html'
p30
sg10
S'src/rockstor/storageadmin/views/__init__'
p31
sg12
g13
(g14
g15
NtRp32
(dp33
g18
I1
sg19
I0
sg20
I34
sg21
I0
sg22
I0
sg23
I0
sg24
I0
sbssg25
S'5\x14\xe8\xa86\xffo\x13S\xfdH\xcf\xe1\xf4\x85\xba'
p34
ssS'src_rockstor_storageadmin_views_ug_helpers'
p35
(dp36
g6
(dp37
g8
S'src_rockstor_storageadmin_views_ug_helpers.html'
p38
sg10
S'src/rockstor/storageadmin/views/ug_helpers'
p39
sg12
g13
(g14
g15
NtRp40
(dp41
g18
I1
sg19
I0
sg20
I63
sg21
I0
sg22
I0
sg23
I15
sg24
I0
sbssg25
S'IU\xdf\xfd\xc0!N\x81=]\x1e\\k%\r\xbd'
p42
ssS'src_rockstor_storageadmin_views_adv_nfs_exports'
p43
(dp44
g6
(dp45
g8
S'src_rockstor_storageadmin_views_adv_nfs_exports.html'
p46
sg10
S'src/rockstor/storageadmin/views/adv_nfs_exports'
p47
sg12
g13
(g14
g15
NtRp48
(dp49
g18
I1
sg19
I0
sg20
I45
sg21
I0
sg22
I0
sg23
I32
sg24
I0
sbssg25
S'7\xe6\xbc\xce\xb4\xe1\xc6\xeb\r\xfe\x9f`\xfc\xbbe\x7f'
p50
ssS'src_rockstor_storageadmin_views_tls_certificate'
p51
(dp52
g6
(dp53
g8
S'src_rockstor_storageadmin_views_tls_certificate.html'
p54
sg10
S'src/rockstor/storageadmin/views/tls_certificate'
p55
sg12
g13
(g14
g15
NtRp56
(dp57
g18
I1
sg19
I0
sg20
I53
sg21
I0
sg22
I0
sg23
I35
sg24
I0
sbssg25
S'\xa8\x16s \x96\xe9\x9b\xb5\xbd\xa9_9X\xbc\xd3C'
p58
ssS'src_rockstor_storageadmin_views_oauth_app'
p59
(dp60
g6
(dp61
g8
S'src_rockstor_storageadmin_views_oauth_app.html'
p62
sg10
S'src/rockstor/storageadmin/views/oauth_app'
p63
sg12
g13
(g14
g15
NtRp64
(dp65
g18
I1
sg19
I0
sg20
I47
sg21
I0
sg22
I0
sg23
I34
sg24
I0
sbssg25
S'\te\xa1#\x04\xe9;\xf7\x05\xaf\xea\xcc\x13*7S'
p66
ssS'src_rockstor_storageadmin_views_netatalk'
p67
(dp68
g6
(dp69
g8
S'src_rockstor_storageadmin_views_netatalk.html'
p70
sg10
S'src/rockstor/storageadmin/views/netatalk'
p71
sg12
g13
(g14
g15
NtRp72
(dp73
g18
I1
sg19
I0
sg20
I95
sg21
I0
sg22
I0
sg23
I70
sg24
I0
sbssg25
S'e\xd6\t\xa02J\xc2\xe6d\xd8\t%\xf1\xc5}\xe2'
p74
ssS'src_rockstor_storageadmin_views_disk'
p75
(dp76
g6
(dp77
g8
S'src_rockstor_storageadmin_views_disk.html'
p78
sg10
S'src/rockstor/storageadmin/views/disk'
p79
sg12
g13
(g14
g15
NtRp80
(dp81
g18
I1
sg19
I0
sg20
I161
sg21
I0
sg22
I0
sg23
I86
sg24
I0
sbssg25
S'\r\xaa\x93\xd5\xe3\xed\xa7\xdc\x94\x06E\x9d\x08\x8aAR'
p82
ssS'src_rockstor_storageadmin_views_nfs_exports'
p83
(dp84
g6
(dp85
g8
S'src_rockstor_storageadmin_views_nfs_exports.html'
p86
sg10
S'src/rockstor/storageadmin/views/nfs_exports'
p87
sg12
g13
(g14
g15
NtRp88
(dp89
g18
I1
sg19
I0
sg20
I108
sg21
I0
sg22
I0
sg23
I87
sg24
I0
sbssg25
S'\xa5\x04\x8e\x19\xc1\xd7\xfc\x18\x85\xcf\xae\xea\x15\xcc8}'
p90
ssS'src_rockstor_storageadmin_views_rockon_json'
p91
(dp92
g6
(dp93
g8
S'src_rockstor_storageadmin_views_rockon_json.html'
p94
sg10
S'src/rockstor/storageadmin/views/rockon_json'
p95
sg12
g13
(g14
g15
NtRp96
(dp97
g18
I1
sg19
I0
sg20
I10
sg21
I0
sg22
I0
sg23
I10
sg24
I0
sbssg25
S'\xdb&\x14\xd7\x1cP\x82\xa2\x10\xd3TM\r\xa9TP'
p98
ssS'src_rockstor_storageadmin_views_snapshot'
p99
(dp100
g6
(dp101
g8
S'src_rockstor_storageadmin_views_snapshot.html'
p102
sg10
S'src/rockstor/storageadmin/views/snapshot'
p103
sg12
g13
(g14
g15
NtRp104
(dp105
g18
I1
sg19
I0
sg20
I184
sg21
I0
sg22
I0
sg23
I155
sg24
I0
sbssg25
S'\xcd!v\x11\x82\xe2q/\xfd5\xa9\x00@\xac\x16\xe0'
p106
ssS'src_rockstor_storageadmin_views_pool_import'
p107
(dp108
g6
(dp109
g8
S'src_rockstor_storageadmin_views_pool_import.html'
p110
sg10
S'src/rockstor/storageadmin/views/pool_import'
p111
sg12
g13
(g14
g15
NtRp112
(dp113
g18
I1
sg19
I0
sg20
I70
sg21
I0
sg22
I0
sg23
I70
sg24
I0
sbssg25
S'\x91\xaa\x7f2\xef\xcb\xf3M\xec\xacoM%C\x12\xda'
p114
ssS'src_rockstor_storageadmin_views_user'
p115
(dp116
g6
(dp117
g8
S'src_rockstor_storageadmin_views_user.html'
p118
sg10
S'src/rockstor/storageadmin/views/user'
p119
sg12
g13
(g14
g15
NtRp120
(dp121
g18
I1
sg19
I0
sg20
I206
sg21
I0
sg22
I0
sg23
I10
sg24
I0
sbssg25
S'\xe2]\xf8\xb8\xfc\n\x066\x8b\xb8(\xae\xaejh\xd1'
p122
ssS'src_rockstor_storageadmin_views_views'
p123
(dp124
g6
(dp125
g8
S'src_rockstor_storageadmin_views_views.html'
p126
sg10
S'src/rockstor/storageadmin/views/views'
p127
sg12
g13
(g14
g15
NtRp128
(dp129
g18
I1
sg19
I0
sg20
I0
sg21
I0
sg22
I0
sg23
I0
sg24
I0
sbssg25
S'{\xd99q\x98)\xfekT\xb8H7M\x1c\x94\xba'
p130
ssS'src_rockstor_storageadmin_views_rockon_helpers'
p131
(dp132
g6
(dp133
S'html_filename'
p134
S'src_rockstor_storageadmin_views_rockon_helpers.html'
p135
sS'name'
p136
S'src/rockstor/storageadmin/views/rockon_helpers'
p137
sS'nums'
p138
g13
(g14
g15
NtRp139
(dp140
g18
I1
sg19
I0
sg20
I196
sg21
I0
sg22
I0
sg23
I161
sg24
I0
sbssg25
S'\x84-\x98\n\xd8^\xb5\xbf\xfa\xfb\r\xfc_\x0f\xf4\x8a'
p141
ssS'src_rockstor_storageadmin_views_clone_helpers'
p142
(dp143
g6
(dp144
g8
S'src_rockstor_storageadmin_views_clone_helpers.html'
p145
sg10
S'src/rockstor/storageadmin/views/clone_helpers'
p146
sg12
g13
(g14
g15
NtRp147
(dp148
g18
I1
sg19
I0
sg20
I32
sg21
I0
sg22
I0
sg23
I24
sg24
I0
sbssg25
S'\x80\x18|U\xe2\xa5\x999\xef\xb8G\xc2\xbf\xe2\x0c\x88'
p149
ssS'src_rockstor_storageadmin_views_share_iscsi'
p150
(dp151
g6
(dp152
g8
S'src_rockstor_storageadmin_views_share_iscsi.html'
p153
sg10
S'src/rockstor/storageadmin/views/share_iscsi'
p154
sg12
g13
(g14
g15
NtRp155
(dp156
g18
I1
sg19
I0
sg20
I59
sg21
I0
sg22
I0
sg23
I43
sg24
I0
sbssg25
S'0\x04\xd3SN\x0c\xa6\x96\xadx^\xa1\xaa\xd8 \x0b'
p157
ssS'src_rockstor_storageadmin_views_setup_user'
p158
(dp159
g6
(dp160
g8
S'src_rockstor_storageadmin_views_setup_user.html'
p161
sg10
S'src/rockstor/storageadmin/views/setup_user'
p162
sg12
g13
(g14
g15
NtRp163
(dp164
g18
I1
sg19
I0
sg20
I32
sg21
I0
sg22
I0
sg23
I20
sg24
I0
sbssg25
S'\xec\x94\x84\x1a\x9aM2\xb5p\xca\xa2\x96\x95\x1cq\n'
p165
ssS'src_rockstor_storageadmin_views_pool_balance'
p166
(dp167
g6
(dp168
g8
S'src_rockstor_storageadmin_views_pool_balance.html'
p169
sg10
S'src/rockstor/storageadmin/views/pool_balance'
p170
sg12
g13
(g14
g15
NtRp171
(dp172
g18
I1
sg19
I0
sg20
I56
sg21
I0
sg22
I0
sg23
I39
sg24
I0
sbssg25
S'\x07\x17\x19.?\x9aP=[\xe8\xad\x88\x8a\xc7\xfeB'
p173
ssS'src_rockstor_storageadmin_views_pool'
p174
(dp175
g6
(dp176
g134
S'src_rockstor_storageadmin_views_pool.html'
p177
sg136
S'src/rockstor/storageadmin/views/pool'
p178
sg138
g13
(g14
g15
NtRp179
(dp180
g18
I1
sg19
I0
sg20
I292
sg21
I0
sg22
I0
sg23
I58
sg24
I0
sbssg25
S'\x0f\x96\xd4\xf0\xa3\xa5D#\x9b{6\x94\xa1\xe6\x83i'
p181
ssS'src_rockstor_storageadmin_views_pool_scrub'
p182
(dp183
g6
(dp184
g8
S'src_rockstor_storageadmin_views_pool_scrub.html'
p185
sg10
S'src/rockstor/storageadmin/views/pool_scrub'
p186
sg12
g13
(g14
g15
NtRp187
(dp188
g18
I1
sg19
I0
sg20
I60
sg21
I0
sg22
I0
sg23
I43
sg24
I0
sbssg25
S'\xfe\xf2\x8c\xe6Q\x0f\x9b\xdd\x00dX|\x003\x87w'
p189
ssS'src_rockstor_storageadmin_views_rockon'
p190
(dp191
g6
(dp192
g8
S'src_rockstor_storageadmin_views_rockon.html'
p193
sg10
S'src/rockstor/storageadmin/views/rockon'
p194
sg12
g13
(g14
g15
NtRp195
(dp196
g18
I1
sg19
I0
sg20
I169
sg21
I0
sg22
I0
sg23
I148
sg24
I0
sbssg25
S'\xf3Cu\xb6\xf3\x83l\xbf\xe9\xde\xf3\xa8\xc5\x86Q\xbb'
p197
ssS'src_rockstor_storageadmin_views_sftp'
p198
(dp199
g6
(dp200
g8
S'src_rockstor_storageadmin_views_sftp.html'
p201
sg10
S'src/rockstor/storageadmin/views/sftp'
p202
sg12
g13
(g14
g15
NtRp203
(dp204
g18
I1
sg19
I0
sg20
I79
sg21
I0
sg22
I0
sg23
I58
sg24
I0
sbssg25
S'\xb9\xf7gA\x0f\x0b\xa9\xe0\xf5\x89\xa2\xf0V\xde\x82\xf6'
p205
ssS'src_rockstor_storageadmin_views_rockon_volume'
p206
(dp207
g6
(dp208
g8
S'src_rockstor_storageadmin_views_rockon_volume.html'
p209
sg10
S'src/rockstor/storageadmin/views/rockon_volume'
p210
sg12
g13
(g14
g15
NtRp211
(dp212
g18
I1
sg19
I0
sg20
I14
sg21
I0
sg22
I0
sg23
I7
sg24
I0
sbssg25
S'\xf9\x1eb\xf5\x1c\x14\xfbh-\xd2\x9fJ\x90=\xafH'
p213
ssS'src_rockstor_storageadmin_views_network'
p214
(dp215
g6
(dp216
g8
S'src_rockstor_storageadmin_views_network.html'
p217
sg10
S'src/rockstor/storageadmin/views/network'
p218
sg12
g13
(g14
g15
NtRp219
(dp220
g18
I1
sg19
I0
sg20
I122
sg21
I0
sg22
I0
sg23
I94
sg24
I0
sbssg25
S'\x15Z\x11"O7Tn\xd4\x95c6\xd2\xac\xef\xd6'
p221
ssS'src_rockstor_storageadmin_views_command'
p222
(dp223
g6
(dp224
g8
S'src_rockstor_storageadmin_views_command.html'
p225
sg10
S'src/rockstor/storageadmin/views/command'
p226
sg12
g13
(g14
g15
NtRp227
(dp228
g18
I1
sg19
I0
sg20
I184
sg21
I0
sg22
I0
sg23
I159
sg24
I0
sbssg25
S'\xb6\xeb\xbe\x8ef%\x87\xd9B\x03\xe9b\\\xa8\x0c-'
p229
ssS'src_rockstor_storageadmin_views_support'
p230
(dp231
g6
(dp232
g8
S'src_rockstor_storageadmin_views_support.html'
p233
sg10
S'src/rockstor/storageadmin/views/support'
p234
sg12
g13
(g14
g15
NtRp235
(dp236
g18
I1
sg19
I0
sg20
I74
sg21
I0
sg22
I0
sg23
I49
sg24
I0
sbssg25
S'\xbdKJ\xfd\x10d\xf2\xd6&%\x7f!\x19w\x14\xe2'
p237
ssS'src_rockstor_storageadmin_views_disk_smart'
p238
(dp239
g6
(dp240
g8
S'src_rockstor_storageadmin_views_disk_smart.html'
p241
sg10
S'src/rockstor/storageadmin/views/disk_smart'
p242
sg12
g13
(g14
g15
NtRp243
(dp244
g18
I1
sg19
I0
sg20
I86
sg21
I0
sg22
I0
sg23
I64
sg24
I0
sbssg25
S'_\xbe\x00\xa6\xb4Z1\x1c:\x12J\xd8\x05\xa6\xf0&'
p245
ssS'src_rockstor_storageadmin_views_share_helpers'
p246
(dp247
g6
(dp248
g8
S'src_rockstor_storageadmin_views_share_helpers.html'
p249
sg10
S'src/rockstor/storageadmin/views/share_helpers'
p250
sg12
g13
(g14
g15
NtRp251
(dp252
g18
I1
sg19
I0
sg20
I35
sg21
I0
sg22
I0
sg23
I25
sg24
I0
sbssg25
S'I\x81\xcfL\xfa\x9a\xf3\x03\xd4/\x0e\xa0/J\xa1{'
p253
ssS'src_rockstor_storageadmin_views_rockon_custom_config'
p254
(dp255
g6
(dp256
g8
S'src_rockstor_storageadmin_views_rockon_custom_config.html'
p257
sg10
S'src/rockstor/storageadmin/views/rockon_custom_config'
p258
sg12
g13
(g14
g15
NtRp259
(dp260
g18
I1
sg19
I0
sg20
I13
sg21
I0
sg22
I0
sg23
I6
sg24
I0
sbssg25
S'\x94V\xf46\xb3\xb9\x15\x8b*~\xddTb\xcb\xe8='
p261
ssS'src_rockstor_storageadmin_views_share_nfs'
p262
(dp263
g6
(dp264
g8
S'src_rockstor_storageadmin_views_share_nfs.html'
p265
sg10
S'src/rockstor/storageadmin/views/share_nfs'
p266
sg12
g13
(g14
g15
NtRp267
(dp268
g18
I1
sg19
I0
sg20
I81
sg21
I0
sg22
I0
sg23
I61
sg24
I0
sbssg25
S'\x00|\x02fu\x1a\xcbr\xf3\xaco}\xfa\xe5\xc0\xb5'
p269
ssS'src_rockstor_storageadmin_views_rockon_port'
p270
(dp271
g6
(dp272
g8
S'src_rockstor_storageadmin_views_rockon_port.html'
p273
sg10
S'src/rockstor/storageadmin/views/rockon_port'
p274
sg12
g13
(g14
g15
NtRp275
(dp276
g18
I1
sg19
I0
sg20
I14
sg21
I0
sg22
I0
sg23
I7
sg24
I0
sbssg25
S'=\xe8\x94\x1e\xce\xb5*f\xad\x8f\xba\x14\x922M\xb0'
p277
ssS'src_rockstor_storageadmin_views_login'
p278
(dp279
g6
(dp280
g8
S'src_rockstor_storageadmin_views_login.html'
p281
sg10
S'src/rockstor/storageadmin/views/login'
p282
sg12
g13
(g14
g15
NtRp283
(dp284
g18
I1
sg19
I0
sg20
I19
sg21
I0
sg22
I0
sg23
I10
sg24
I0
sbssg25
S'\xaa\x82\x89\x0f\x9c\xecAJX\x02\x7f\xd4H \xa7r'
p285
ssS'src_rockstor_storageadmin_views_appliances'
p286
(dp287
g6
(dp288
g8
S'src_rockstor_storageadmin_views_appliances.html'
p289
sg10
S'src/rockstor/storageadmin/views/appliances'
p290
sg12
g13
(g14
g15
NtRp291
(dp292
g18
I1
sg19
I0
sg20
I114
sg21
I0
sg22
I0
sg23
I90
sg24
I0
sbssg25
S'\t\xf6\x94\xad\x1dZ`v\x9a\x01m\x1e6\xacV\xbb'
p293
ssS'src_rockstor_storageadmin_views_nfs_helpers'
p294
(dp295
g6
(dp296
g8
S'src_rockstor_storageadmin_views_nfs_helpers.html'
p297
sg10
S'src/rockstor/storageadmin/views/nfs_helpers'
p298
sg12
g13
(g14
g15
NtRp299
(dp300
g18
I1
sg19
I0
sg20
I87
sg21
I0
sg22
I0
sg23
I73
sg24
I0
sbssg25
S'\x9c\xa3\x89Z\x91R\xb8u\xeb\x17\\\xce[\xbamR'
p301
ssS'src_rockstor_storageadmin_views_share'
p302
(dp303
g6
(dp304
g8
S'src_rockstor_storageadmin_views_share.html'
p305
sg10
S'src/rockstor/storageadmin/views/share'
p306
sg12
g13
(g14
g15
NtRp307
(dp308
g18
I1
sg19
I0
sg20
I215
sg21
I0
sg22
I0
sg23
I85
sg24
I0
sbssg25
S'\xf3\xe6\x1d\xae\x1d\xb7JZ\x8a\x0c\xfe\t\xd6\xab\x14\x14'
p309
ssS'src_rockstor_storageadmin_views_samba'
p310
(dp311
g6
(dp312
g8
S'src_rockstor_storageadmin_views_samba.html'
p313
sg10
S'src/rockstor/storageadmin/views/samba'
p314
sg12
g13
(g14
g15
NtRp315
(dp316
g18
I1
sg19
I0
sg20
I148
sg21
I0
sg22
I0
sg23
I0
sg24
I0
sbssg25
S'Bc\x92\x1fws7\xads\xfe\xaa>\xa4\x95\xacc'
p317
ssS'src_rockstor_storageadmin_views_group'
p318
(dp319
g6
(dp320
g8
S'src_rockstor_storageadmin_views_group.html'
p321
sg10
S'src/rockstor/storageadmin/views/group'
p322
sg12
g13
(g14
g15
NtRp323
(dp324
g18
I1
sg19
I0
sg20
I71
sg21
I0
sg22
I0
sg23
I24
sg24
I0
sbssg25
S'`\x98\n#\x8d\x0b_\xfd\x99]Egi\xb2\x83\xb3'
p325
ssS'src_rockstor_storageadmin_views_share_command'
p326
(dp327
g6
(dp328
g8
S'src_rockstor_storageadmin_views_share_command.html'
p329
sg10
S'src/rockstor/storageadmin/views/share_command'
p330
sg12
g13
(g14
g15
NtRp331
(dp332
g18
I1
sg19
I0
sg20
I50
sg21
I0
sg22
I0
sg23
I0
sg24
I0
sbssg25
S'\x19;\xce\xa0x\xcc\xa6\x9cm\x8c\x0c\x0bh\x15\xed/'
p333
ssS'src_rockstor_storageadmin_views_share_acl'
p334
(dp335
g6
(dp336
g8
S'src_rockstor_storageadmin_views_share_acl.html'
p337
sg10
S'src/rockstor/storageadmin/views/share_acl'
p338
sg12
g13
(g14
g15
NtRp339
(dp340
g18
I1
sg19
I0
sg20
I35
sg21
I0
sg22
I0
sg23
I23
sg24
I0
sbssg25
S'\xaa\xa4I\xa2\xfd!W\xc4\xc9\xdfc\x9cRX4\x89'
p341
ssS'src_rockstor_storageadmin_views_dashboardconfig'
p342
(dp343
g6
(dp344
g8
S'src_rockstor_storageadmin_views_dashboardconfig.html'
p345
sg10
S'src/rockstor/storageadmin/views/dashboardconfig'
p346
sg12
g13
(g14
g15
NtRp347
(dp348
g18
I1
sg19
I0
sg20
I54
sg21
I0
sg22
I0
sg23
I35
sg24
I0
sbssg25
S'*\x0c\xc7l\x84t\xd59R\xb1\x0b\xe7Fsk\xd7'
p349
ssS'src_rockstor_storageadmin_views_home'
p350
(dp351
g6
(dp352
g8
S'src_rockstor_storageadmin_views_home.html'
p353
sg10
S'src/rockstor/storageadmin/views/home'
p354
sg12
g13
(g14
g15
NtRp355
(dp356
g18
I1
sg19
I0
sg20
I36
sg21
I0
sg22
I0
sg23
I24
sg24
I0
sbssg25
S'\xff\xed\xfb\x960(\x82Q\x9dp\xcd\x1a{o\x8d\x0f'
p357
sssS'version'
p358
S'3.7.1'
p359
sS'settings'
p360
S'Y\x9f\xc5\x81\x1dg\xc4\x87\x1b\x05su{\xfb\x01T'
p361
sS'format'
p362
I1
s.