(dp1
S'files'
p2
(dp3
S'src_rockstor_storageadmin_views_rockon_id'
p4
(dp5
S'index'
p6
(dp7
S'html_filename'
p8
S'src_rockstor_storageadmin_views_rockon_id.html'
p9
sS'name'
p10
S'src/rockstor/storageadmin/views/rockon_id'
p11
sS'nums'
p12
ccopy_reg
_reconstructor
p13
(ccoverage.results
Numbers
p14
c__builtin__
object
p15
NtRp16
(dp17
S'n_files'
p18
I1
sS'n_branches'
p19
I0
sS'n_statements'
p20
I130
sS'n_excluded'
p21
I0
sS'n_partial_branches'
p22
I0
sS'n_missing'
p23
I130
sS'n_missing_branches'
p24
I0
sbssS'hash'
p25
S'\xc2\xbb\x11\xfe]O\xff9V\x19A\x83\x0b\x82\xbc5'
p26
ssS'src_rockstor_storageadmin_views___init__'
p27
(dp28
g6
(dp29
g8
S'src_rockstor_storageadmin_views___init__.html'
p30
sg10
S'src/rockstor/storageadmin/views/__init__'
p31
sg12
g13
(g14
g15
NtRp32
(dp33
g18
I1
sg19
I0
sg20
I35
sg21
I0
sg22
I0
sg23
I35
sg24
I0
sbssg25
S'\x02\xd9\xcf\x1em\xe5+f)\x90\xf8\xcf\xe4>\xcc\x15'
p34
ssS'src_rockstor_storageadmin_views_ug_helpers'
p35
(dp36
g6
(dp37
g8
S'src_rockstor_storageadmin_views_ug_helpers.html'
p38
sg10
S'src/rockstor/storageadmin/views/ug_helpers'
p39
sg12
g13
(g14
g15
NtRp40
(dp41
g18
I1
sg19
I0
sg20
I20
sg21
I0
sg22
I0
sg23
I20
sg24
I0
sbssg25
S'\x15P\x1d1H\xc6@y\xc0<S@)[\xa1\x89'
p42
ssS'src_rockstor_storageadmin_views_plugin'
p43
(dp44
g6
(dp45
g8
S'src_rockstor_storageadmin_views_plugin.html'
p46
sg10
S'src/rockstor/storageadmin/views/plugin'
p47
sg12
g13
(g14
g15
NtRp48
(dp49
g18
I1
sg19
I0
sg20
I13
sg21
I0
sg22
I0
sg23
I13
sg24
I0
sbssg25
S'\x9d\xafq\x10v\xcdV\xd5\x07*\x0c\xd3i\x9a\xda\xca'
p50
ssS'src_rockstor_storageadmin_views_adv_nfs_exports'
p51
(dp52
g6
(dp53
g8
S'src_rockstor_storageadmin_views_adv_nfs_exports.html'
p54
sg10
S'src/rockstor/storageadmin/views/adv_nfs_exports'
p55
sg12
g13
(g14
g15
NtRp56
(dp57
g18
I1
sg19
I0
sg20
I45
sg21
I0
sg22
I0
sg23
I45
sg24
I0
sbssg25
S'\xbc\x1bJ\xe9\xd9\xf3\x02E\xb5G\xdcy\xac\xe8bR'
p58
ssS'src_rockstor_storageadmin_views_tls_certificate'
p59
(dp60
g6
(dp61
g8
S'src_rockstor_storageadmin_views_tls_certificate.html'
p62
sg10
S'src/rockstor/storageadmin/views/tls_certificate'
p63
sg12
g13
(g14
g15
NtRp64
(dp65
g18
I1
sg19
I0
sg20
I53
sg21
I0
sg22
I0
sg23
I53
sg24
I0
sbssg25
S"?'TIc\x177\x1c\x98X0\xde\xb9\x0e\x83\xac"
p66
ssS'src_rockstor_storageadmin_views_oauth_app'
p67
(dp68
g6
(dp69
g8
S'src_rockstor_storageadmin_views_oauth_app.html'
p70
sg10
S'src/rockstor/storageadmin/views/oauth_app'
p71
sg12
g13
(g14
g15
NtRp72
(dp73
g18
I1
sg19
I0
sg20
I47
sg21
I0
sg22
I0
sg23
I47
sg24
I0
sbssg25
S'\xee\x84\xcf\t\x89g\x9d\xb2\x1d\x89/\xcaT\x03\x1b\xb4'
p74
ssS'src_rockstor_storageadmin_views_share_command'
p75
(dp76
g6
(dp77
g8
S'src_rockstor_storageadmin_views_share_command.html'
p78
sg10
S'src/rockstor/storageadmin/views/share_command'
p79
sg12
g13
(g14
g15
NtRp80
(dp81
g18
I1
sg19
I0
sg20
I81
sg21
I0
sg22
I0
sg23
I81
sg24
I0
sbssg25
S'qo\xc7F\xd3\xd0\x0b\x13\xce\xa0\x8d\xb4\\\xf3^\xbe'
p82
ssS'src_rockstor_storageadmin_views_disk'
p83
(dp84
g6
(dp85
g8
S'src_rockstor_storageadmin_views_disk.html'
p86
sg10
S'src/rockstor/storageadmin/views/disk'
p87
sg12
g13
(g14
g15
NtRp88
(dp89
g18
I1
sg19
I0
sg20
I128
sg21
I0
sg22
I0
sg23
I128
sg24
I0
sbssg25
S'\x1d\x19\xcb\xe0\x00\x1d!\xe6\xa7)\xa8\x12\xea$\x83\xfe'
p90
ssS'src_rockstor_storageadmin_views_nfs_exports'
p91
(dp92
g6
(dp93
g8
S'src_rockstor_storageadmin_views_nfs_exports.html'
p94
sg10
S'src/rockstor/storageadmin/views/nfs_exports'
p95
sg12
g13
(g14
g15
NtRp96
(dp97
g18
I1
sg19
I0
sg20
I108
sg21
I0
sg22
I0
sg23
I108
sg24
I0
sbssg25
S'\x1eN[\xd9\x01j\xbeqY\x8d\x17\t\xac3\xab\xe7'
p98
ssS'src_rockstor_storageadmin_views_netatalk'
p99
(dp100
g6
(dp101
g8
S'src_rockstor_storageadmin_views_netatalk.html'
p102
sg10
S'src/rockstor/storageadmin/views/netatalk'
p103
sg12
g13
(g14
g15
NtRp104
(dp105
g18
I1
sg19
I0
sg20
I95
sg21
I0
sg22
I0
sg23
I95
sg24
I0
sbssg25
S'{\xc6\xa6=\xf0\xa1\xc3R\xaa\x9d\x14%\xdfj\xde\x03'
p106
ssS'src_rockstor_storageadmin_views_snapshot'
p107
(dp108
g6
(dp109
g8
S'src_rockstor_storageadmin_views_snapshot.html'
p110
sg10
S'src/rockstor/storageadmin/views/snapshot'
p111
sg12
g13
(g14
g15
NtRp112
(dp113
g18
I1
sg19
I0
sg20
I152
sg21
I0
sg22
I0
sg23
I152
sg24
I0
sbssg25
S'\x07l\x8ejN,\x8b\x0b*\xd1mY\x04\x19!<'
p114
ssS'src_rockstor_storageadmin_views_pool_import'
p115
(dp116
g6
(dp117
S'html_filename'
p118
S'src_rockstor_storageadmin_views_pool_import.html'
p119
sS'name'
p120
S'src/rockstor/storageadmin/views/pool_import'
p121
sS'nums'
p122
g13
(g14
g15
NtRp123
(dp124
g18
I1
sg19
I0
sg20
I70
sg21
I0
sg22
I0
sg23
I70
sg24
I0
sbssg25
S'\x91\xaa\x7f2\xef\xcb\xf3M\xec\xacoM%C\x12\xda'
p125
ssS'src_rockstor_storageadmin_views_user'
p126
(dp127
g6
(dp128
g8
S'src_rockstor_storageadmin_views_user.html'
p129
sg10
S'src/rockstor/storageadmin/views/user'
p130
sg12
g13
(g14
g15
NtRp131
(dp132
g18
I1
sg19
I0
sg20
I208
sg21
I0
sg22
I0
sg23
I208
sg24
I0
sbssg25
S'+1\x0b\xc1\xba\xb8\x81B\xd0\xa8\x1d\xc8\\T]\x89'
p133
ssS'src_rockstor_storageadmin_views_views'
p134
(dp135
g6
(dp136
g118
S'src_rockstor_storageadmin_views_views.html'
p137
sg120
S'src/rockstor/storageadmin/views/views'
p138
sg122
g13
(g14
g15
NtRp139
(dp140
g18
I1
sg19
I0
sg20
I0
sg21
I0
sg22
I0
sg23
I0
sg24
I0
sbssg25
S'{\xd99q\x98)\xfekT\xb8H7M\x1c\x94\xba'
p141
ssS'src_rockstor_storageadmin_views_rockon_helpers'
p142
(dp143
g6
(dp144
g8
S'src_rockstor_storageadmin_views_rockon_helpers.html'
p145
sg10
S'src/rockstor/storageadmin/views/rockon_helpers'
p146
sg12
g13
(g14
g15
NtRp147
(dp148
g18
I1
sg19
I0
sg20
I121
sg21
I0
sg22
I0
sg23
I121
sg24
I0
sbssg25
S'\x8d\xeco\xf6\x96G\xc7v\xc5\rVy\xe5\xd5d\x8d'
p149
ssS'src_rockstor_storageadmin_views_clone_helpers'
p150
(dp151
g6
(dp152
g8
S'src_rockstor_storageadmin_views_clone_helpers.html'
p153
sg10
S'src/rockstor/storageadmin/views/clone_helpers'
p154
sg12
g13
(g14
g15
NtRp155
(dp156
g18
I1
sg19
I0
sg20
I32
sg21
I0
sg22
I0
sg23
I32
sg24
I0
sbssg25
S'#\xa3\x13%\x91\xcbg\xa4\xee\x85s\xbd\xe0\x04\xe4\xf9'
p157
ssS'src_rockstor_storageadmin_views_serializers'
p158
(dp159
g6
(dp160
g118
S'src_rockstor_storageadmin_views_serializers.html'
p161
sg120
S'src/rockstor/storageadmin/views/serializers'
p162
sg122
g13
(g14
g15
NtRp163
(dp164
g18
I1
sg19
I0
sg20
I8
sg21
I0
sg22
I0
sg23
I8
sg24
I0
sbssg25
S'B\x91_\xf9\x1d\x8bsBs\xff\xce\xc0\x83[cn'
p165
ssS'src_rockstor_storageadmin_views_setup_user'
p166
(dp167
g6
(dp168
g8
S'src_rockstor_storageadmin_views_setup_user.html'
p169
sg10
S'src/rockstor/storageadmin/views/setup_user'
p170
sg12
g13
(g14
g15
NtRp171
(dp172
g18
I1
sg19
I0
sg20
I32
sg21
I0
sg22
I0
sg23
I32
sg24
I0
sbssg25
S'P[/\x9dk2\x85o\xfe\xf1\xe5^Z\x89\xfe!'
p173
ssS'src_rockstor_storageadmin_views_share_iscsi'
p174
(dp175
g6
(dp176
g8
S'src_rockstor_storageadmin_views_share_iscsi.html'
p177
sg10
S'src/rockstor/storageadmin/views/share_iscsi'
p178
sg12
g13
(g14
g15
NtRp179
(dp180
g18
I1
sg19
I0
sg20
I59
sg21
I0
sg22
I0
sg23
I59
sg24
I0
sbssg25
S'\x1fY5\xfa4\xd2b\x026\xc4\xe5\xect\xda(\xcc'
p181
ssS'src_rockstor_storageadmin_views_pool_balance'
p182
(dp183
g6
(dp184
g8
S'src_rockstor_storageadmin_views_pool_balance.html'
p185
sg10
S'src/rockstor/storageadmin/views/pool_balance'
p186
sg12
g13
(g14
g15
NtRp187
(dp188
g18
I1
sg19
I0
sg20
I56
sg21
I0
sg22
I0
sg23
I56
sg24
I0
sbssg25
S'\xf5\x89o\xff\xad\xde\xe2\x14\x92\tc\x83M\x91\xa9\x82'
p189
ssS'src_rockstor_storageadmin_views_pool'
p190
(dp191
g6
(dp192
g8
S'src_rockstor_storageadmin_views_pool.html'
p193
sg10
S'src/rockstor/storageadmin/views/pool'
p194
sg12
g13
(g14
g15
NtRp195
(dp196
g18
I1
sg19
I0
sg20
I285
sg21
I0
sg22
I0
sg23
I285
sg24
I0
sbssg25
S'\x10\xe6\xdd72\x8bO\xbc\x1d\xe0\xeaz\x9f\xe0\x1d\x0e'
p197
ssS'src_rockstor_storageadmin_views_pool_scrub'
p198
(dp199
g6
(dp200
g8
S'src_rockstor_storageadmin_views_pool_scrub.html'
p201
sg10
S'src/rockstor/storageadmin/views/pool_scrub'
p202
sg12
g13
(g14
g15
NtRp203
(dp204
g18
I1
sg19
I0
sg20
I60
sg21
I0
sg22
I0
sg23
I60
sg24
I0
sbssg25
S'\x93\xf8I\xc4\x82\xccs|\xd6h\xc8\xac*_[<'
p205
ssS'src_rockstor_storageadmin_views_rockon'
p206
(dp207
g6
(dp208
g8
S'src_rockstor_storageadmin_views_rockon.html'
p209
sg10
S'src/rockstor/storageadmin/views/rockon'
p210
sg12
g13
(g14
g15
NtRp211
(dp212
g18
I1
sg19
I0
sg20
I107
sg21
I0
sg22
I0
sg23
I107
sg24
I0
sbssg25
S'=\xb6\xb6:\x7f@\x84\x88\xaa\xd3\x8c`\x0c<W2'
p213
ssS'src_rockstor_storageadmin_views_sftp'
p214
(dp215
g6
(dp216
g8
S'src_rockstor_storageadmin_views_sftp.html'
p217
sg10
S'src/rockstor/storageadmin/views/sftp'
p218
sg12
g13
(g14
g15
NtRp219
(dp220
g18
I1
sg19
I0
sg20
I79
sg21
I0
sg22
I0
sg23
I79
sg24
I0
sbssg25
S'\xc4\xb3\x1f\x15K\xb6k\xe8; \xa7\xb9\xdeC\xda\xc1'
p221
ssS'src_rockstor_storageadmin_views_rockon_volume'
p222
(dp223
g6
(dp224
g8
S'src_rockstor_storageadmin_views_rockon_volume.html'
p225
sg10
S'src/rockstor/storageadmin/views/rockon_volume'
p226
sg12
g13
(g14
g15
NtRp227
(dp228
g18
I1
sg19
I0
sg20
I14
sg21
I0
sg22
I0
sg23
I14
sg24
I0
sbssg25
S'E[i\xaam\xcfV\x88\x8d\xb9\xb9\x99\xec\x89\xdfj'
p229
ssS'src_rockstor_storageadmin_views_network'
p230
(dp231
g6
(dp232
g8
S'src_rockstor_storageadmin_views_network.html'
p233
sg10
S'src/rockstor/storageadmin/views/network'
p234
sg12
g13
(g14
g15
NtRp235
(dp236
g18
I1
sg19
I0
sg20
I122
sg21
I0
sg22
I0
sg23
I122
sg24
I0
sbssg25
S'\xe2\xd0\xf7t\x1e\xa6\xf9L\x99\x1a^\x97\xe3&\xd4$'
p237
ssS'src_rockstor_storageadmin_views_command'
p238
(dp239
g6
(dp240
g8
S'src_rockstor_storageadmin_views_command.html'
p241
sg10
S'src/rockstor/storageadmin/views/command'
p242
sg12
g13
(g14
g15
NtRp243
(dp244
g18
I1
sg19
I0
sg20
I185
sg21
I0
sg22
I0
sg23
I185
sg24
I0
sbssg25
S'b\x1b\\\xf2\x85\xee\xc6\xddO\xf0x\x0f\x06$]\x90'
p245
ssS'src_rockstor_storageadmin_views_support'
p246
(dp247
g6
(dp248
g8
S'src_rockstor_storageadmin_views_support.html'
p249
sg10
S'src/rockstor/storageadmin/views/support'
p250
sg12
g13
(g14
g15
NtRp251
(dp252
g18
I1
sg19
I0
sg20
I74
sg21
I0
sg22
I0
sg23
I74
sg24
I0
sbssg25
S'P\xea\xcdP\x0c\xf5\x9e\xda^\x92\xf4\xbd\xff\x03=\xef'
p253
ssS'src_rockstor_storageadmin_views_disk_smart'
p254
(dp255
g6
(dp256
g118
S'src_rockstor_storageadmin_views_disk_smart.html'
p257
sg120
S'src/rockstor/storageadmin/views/disk_smart'
p258
sg122
g13
(g14
g15
NtRp259
(dp260
g18
I1
sg19
I0
sg20
I67
sg21
I0
sg22
I0
sg23
I67
sg24
I0
sbssg25
S'\x0e\x18\xc7\xba\xa0B\x81\xbc\xc9\xa5\xac%\x93\x98j\t'
p261
ssS'src_rockstor_storageadmin_views_share_helpers'
p262
(dp263
g6
(dp264
g8
S'src_rockstor_storageadmin_views_share_helpers.html'
p265
sg10
S'src/rockstor/storageadmin/views/share_helpers'
p266
sg12
g13
(g14
g15
NtRp267
(dp268
g18
I1
sg19
I0
sg20
I35
sg21
I0
sg22
I0
sg23
I35
sg24
I0
sbssg25
S'\xfaq\xd4\xdb)3\x0f\x94/\xe0\r\x0b\x1b\x91\xb1\x84'
p269
ssS'src_rockstor_storageadmin_views_rockon_custom_config'
p270
(dp271
g6
(dp272
g8
S'src_rockstor_storageadmin_views_rockon_custom_config.html'
p273
sg10
S'src/rockstor/storageadmin/views/rockon_custom_config'
p274
sg12
g13
(g14
g15
NtRp275
(dp276
g18
I1
sg19
I0
sg20
I13
sg21
I0
sg22
I0
sg23
I13
sg24
I0
sbssg25
S'\x8b\xefJ\xb6\x1b\xc5\x8a\xe6\xe6p\xdc\x81\x86\x0e\xb59'
p277
ssS'src_rockstor_storageadmin_views_installed_plugin'
p278
(dp279
g6
(dp280
g8
S'src_rockstor_storageadmin_views_installed_plugin.html'
p281
sg10
S'src/rockstor/storageadmin/views/installed_plugin'
p282
sg12
g13
(g14
g15
NtRp283
(dp284
g18
I1
sg19
I0
sg20
I26
sg21
I0
sg22
I0
sg23
I26
sg24
I0
sbssg25
S'\xfa\x9a\x9df\xe8\xa9\xbc\x12\x84\x13\x17X*\xb9\x1d\xeb'
p285
ssS'src_rockstor_storageadmin_views_share_nfs'
p286
(dp287
g6
(dp288
g8
S'src_rockstor_storageadmin_views_share_nfs.html'
p289
sg10
S'src/rockstor/storageadmin/views/share_nfs'
p290
sg12
g13
(g14
g15
NtRp291
(dp292
g18
I1
sg19
I0
sg20
I81
sg21
I0
sg22
I0
sg23
I81
sg24
I0
sbssg25
S'ZnY\xaeFa\x8f\x05\xef\x92Fp\xcf\x91\x0b\x8c'
p293
ssS'src_rockstor_storageadmin_views_rockon_port'
p294
(dp295
g6
(dp296
g8
S'src_rockstor_storageadmin_views_rockon_port.html'
p297
sg10
S'src/rockstor/storageadmin/views/rockon_port'
p298
sg12
g13
(g14
g15
NtRp299
(dp300
g18
I1
sg19
I0
sg20
I14
sg21
I0
sg22
I0
sg23
I14
sg24
I0
sbssg25
S'\xbe\x90\xcd\x88\x1b\xf3f\xb7\xd86m\x00N\x1d;j'
p301
ssS'src_rockstor_storageadmin_views_login'
p302
(dp303
g6
(dp304
g8
S'src_rockstor_storageadmin_views_login.html'
p305
sg10
S'src/rockstor/storageadmin/views/login'
p306
sg12
g13
(g14
g15
NtRp307
(dp308
g18
I1
sg19
I0
sg20
I19
sg21
I0
sg22
I0
sg23
I19
sg24
I0
sbssg25
S'\x98\x1d=q\xb7\x1cuMJ0\xfa\xb7P\xfa\x8c;'
p309
ssS'src_rockstor_storageadmin_views_test'
p310
(dp311
g6
(dp312
g118
S'src_rockstor_storageadmin_views_test.html'
p313
sg120
S'src/rockstor/storageadmin/views/test'
p314
sg122
g13
(g14
g15
NtRp315
(dp316
g18
I1
sg19
I0
sg20
I12
sg21
I0
sg22
I0
sg23
I12
sg24
I0
sbssg25
S'\x87\xc7\x8e\x94D\x17\xf4\x9a\xee\x93D\x00\x1a5\xfd\xb3'
p317
ssS'src_rockstor_storageadmin_views_appliances'
p318
(dp319
g6
(dp320
g8
S'src_rockstor_storageadmin_views_appliances.html'
p321
sg10
S'src/rockstor/storageadmin/views/appliances'
p322
sg12
g13
(g14
g15
NtRp323
(dp324
g18
I1
sg19
I0
sg20
I114
sg21
I0
sg22
I0
sg23
I114
sg24
I0
sbssg25
S'\x95\x93\xab(\x11\xdf\xf8X\xc4\x8e\xee:\x1f\xfd\x08e'
p325
ssS'src_rockstor_storageadmin_views_nfs_helpers'
p326
(dp327
g6
(dp328
g8
S'src_rockstor_storageadmin_views_nfs_helpers.html'
p329
sg10
S'src/rockstor/storageadmin/views/nfs_helpers'
p330
sg12
g13
(g14
g15
NtRp331
(dp332
g18
I1
sg19
I0
sg20
I87
sg21
I0
sg22
I0
sg23
I87
sg24
I0
sbssg25
S'v\xd8\x93o\xdb)\xc4\xf65d\xe0=\xe7\xce2\xe0'
p333
ssS'src_rockstor_storageadmin_views_share'
p334
(dp335
g6
(dp336
g8
S'src_rockstor_storageadmin_views_share.html'
p337
sg10
S'src/rockstor/storageadmin/views/share'
p338
sg12
g13
(g14
g15
NtRp339
(dp340
g18
I1
sg19
I0
sg20
I147
sg21
I0
sg22
I0
sg23
I147
sg24
I0
sbssg25
S'\xf3\x02\xb5\xcd5\x87\xa4\xb7_C\xb1b14\xff\xbe'
p341
ssS'src_rockstor_storageadmin_views_samba'
p342
(dp343
g6
(dp344
g8
S'src_rockstor_storageadmin_views_samba.html'
p345
sg10
S'src/rockstor/storageadmin/views/samba'
p346
sg12
g13
(g14
g15
NtRp347
(dp348
g18
I1
sg19
I0
sg20
I154
sg21
I0
sg22
I0
sg23
I154
sg24
I0
sbssg25
S'qT\x86,\x81\xae\xe1\t\x14\xcb\x93\xeb*\xc3\x96M'
p349
ssS'src_rockstor_storageadmin_views_group'
p350
(dp351
g6
(dp352
g8
S'src_rockstor_storageadmin_views_group.html'
p353
sg10
S'src/rockstor/storageadmin/views/group'
p354
sg12
g13
(g14
g15
NtRp355
(dp356
g18
I1
sg19
I0
sg20
I71
sg21
I0
sg22
I0
sg23
I71
sg24
I0
sbssg25
S'\xf9\xd3g\xd9\x1a\x13?s\xac \xff\xc0\xfdn!\xa5'
p357
ssS'src_rockstor_storageadmin_views_share_acl'
p358
(dp359
g6
(dp360
g8
S'src_rockstor_storageadmin_views_share_acl.html'
p361
sg10
S'src/rockstor/storageadmin/views/share_acl'
p362
sg12
g13
(g14
g15
NtRp363
(dp364
g18
I1
sg19
I0
sg20
I35
sg21
I0
sg22
I0
sg23
I35
sg24
I0
sbssg25
S'p\x82\xcc\xd6\xbfn\x8d\x89\x10r3\xf5\xdc\x8a\xca\x90'
p365
ssS'src_rockstor_storageadmin_views_dashboardconfig'
p366
(dp367
g6
(dp368
g8
S'src_rockstor_storageadmin_views_dashboardconfig.html'
p369
sg10
S'src/rockstor/storageadmin/views/dashboardconfig'
p370
sg12
g13
(g14
g15
NtRp371
(dp372
g18
I1
sg19
I0
sg20
I54
sg21
I0
sg22
I0
sg23
I54
sg24
I0
sbssg25
S'\x9fu\t\xf5\x92\x7f9X\x06\xb6c\xc5;2:\xf0'
p373
ssS'src_rockstor_storageadmin_views_home'
p374
(dp375
g6
(dp376
g8
S'src_rockstor_storageadmin_views_home.html'
p377
sg10
S'src/rockstor/storageadmin/views/home'
p378
sg12
g13
(g14
g15
NtRp379
(dp380
g18
I1
sg19
I0
sg20
I37
sg21
I0
sg22
I0
sg23
I37
sg24
I0
sbssg25
S'c[\xc7]\x80M\x19\xe0\x8d\x1b\xaf\xb2\xc1\xfa\x0f\xcf'
p381
sssS'version'
p382
S'3.7.1'
p383
sS'settings'
p384
S'\xc5\xe2\x1cdy$/\xac\x91\xb07\xe6\x19M^\x91'
p385
sS'format'
p386
I1
s.