(dp1
S'files'
p2
(dp3
S'src_rockstor_storageadmin_views_rockon_id'
p4
(dp5
S'index'
p6
(dp7
S'html_filename'
p8
S'src_rockstor_storageadmin_views_rockon_id.html'
p9
sS'name'
p10
S'src/rockstor/storageadmin/views/rockon_id'
p11
sS'nums'
p12
ccopy_reg
_reconstructor
p13
(ccoverage.results
Numbers
p14
c__builtin__
object
p15
NtRp16
(dp17
S'n_files'
p18
I1
sS'n_branches'
p19
I0
sS'n_statements'
p20
I142
sS'n_excluded'
p21
I0
sS'n_partial_branches'
p22
I0
sS'n_missing'
p23
I142
sS'n_missing_branches'
p24
I0
sbssS'hash'
p25
S'GS\x14\x06\xcf`[\x94\xa1s\xdc\xea\x963\xe4\xd4'
p26
ssS'src_rockstor_storageadmin_views___init__'
p27
(dp28
g6
(dp29
g8
S'src_rockstor_storageadmin_views___init__.html'
p30
sg10
S'src/rockstor/storageadmin/views/__init__'
p31
sg12
g13
(g14
g15
NtRp32
(dp33
g18
I1
sg19
I0
sg20
I36
sg21
I0
sg22
I0
sg23
I36
sg24
I0
sbssg25
S'\xbbEQ\xc8!\xe7\xd9\x1c\x13\x88\xe3\x8a\xc0\xa7\xc4\x03'
p34
ssS'src_rockstor_storageadmin_views_ug_helpers'
p35
(dp36
g6
(dp37
g8
S'src_rockstor_storageadmin_views_ug_helpers.html'
p38
sg10
S'src/rockstor/storageadmin/views/ug_helpers'
p39
sg12
g13
(g14
g15
NtRp40
(dp41
g18
I1
sg19
I0
sg20
I63
sg21
I0
sg22
I0
sg23
I63
sg24
I0
sbssg25
S'\xb4\xa2C\xad-\x11\xbb\xc6k@t>\xefm, '
p42
ssS'src_rockstor_storageadmin_views_adv_nfs_exports'
p43
(dp44
g6
(dp45
g8
S'src_rockstor_storageadmin_views_adv_nfs_exports.html'
p46
sg10
S'src/rockstor/storageadmin/views/adv_nfs_exports'
p47
sg12
g13
(g14
g15
NtRp48
(dp49
g18
I1
sg19
I0
sg20
I44
sg21
I0
sg22
I0
sg23
I44
sg24
I0
sbssg25
S'3\xa64.\xe8S!3k.1\x04<\xf9\xb0\\'
p50
ssS'src_rockstor_storageadmin_views_tls_certificate'
p51
(dp52
g6
(dp53
g8
S'src_rockstor_storageadmin_views_tls_certificate.html'
p54
sg10
S'src/rockstor/storageadmin/views/tls_certificate'
p55
sg12
g13
(g14
g15
NtRp56
(dp57
g18
I1
sg19
I0
sg20
I53
sg21
I0
sg22
I0
sg23
I53
sg24
I0
sbssg25
S'\x8c\xab\x01p*\xf6}0\x91\xd5\x0ez\xef6\xee\x10'
p58
ssS'src_rockstor_storageadmin_views_oauth_app'
p59
(dp60
g6
(dp61
g8
S'src_rockstor_storageadmin_views_oauth_app.html'
p62
sg10
S'src/rockstor/storageadmin/views/oauth_app'
p63
sg12
g13
(g14
g15
NtRp64
(dp65
g18
I1
sg19
I0
sg20
I47
sg21
I0
sg22
I0
sg23
I47
sg24
I0
sbssg25
S'\xab\xd5\xdfi!y{>&\xe40\x16\xd6\xc4>\xb2'
p66
ssS'src_rockstor_storageadmin_views_netatalk'
p67
(dp68
g6
(dp69
g8
S'src_rockstor_storageadmin_views_netatalk.html'
p70
sg10
S'src/rockstor/storageadmin/views/netatalk'
p71
sg12
g13
(g14
g15
NtRp72
(dp73
g18
I1
sg19
I0
sg20
I94
sg21
I0
sg22
I0
sg23
I94
sg24
I0
sbssg25
S'\x93\xc5|"\x97H\xfbt\xf5\x0c\x14\xa2;\xd2\x90\x10'
p74
ssS'src_rockstor_storageadmin_views_disk'
p75
(dp76
g6
(dp77
g8
S'src_rockstor_storageadmin_views_disk.html'
p78
sg10
S'src/rockstor/storageadmin/views/disk'
p79
sg12
g13
(g14
g15
NtRp80
(dp81
g18
I1
sg19
I0
sg20
I170
sg21
I0
sg22
I0
sg23
I170
sg24
I0
sbssg25
S'W\xf6\x81*.\xb9d\xc9\xa0\xac+v\xccT\xfc\xb5'
p82
ssS'src_rockstor_storageadmin_views_nfs_exports'
p83
(dp84
g6
(dp85
g8
S'src_rockstor_storageadmin_views_nfs_exports.html'
p86
sg10
S'src/rockstor/storageadmin/views/nfs_exports'
p87
sg12
g13
(g14
g15
NtRp88
(dp89
g18
I1
sg19
I0
sg20
I106
sg21
I0
sg22
I0
sg23
I106
sg24
I0
sbssg25
S'\x0c"\xd3sg\x9aF\xd0}\xb3_\x84\x97\xa4p\x84'
p90
ssS'src_rockstor_storageadmin_views_rockon_json'
p91
(dp92
g6
(dp93
g8
S'src_rockstor_storageadmin_views_rockon_json.html'
p94
sg10
S'src/rockstor/storageadmin/views/rockon_json'
p95
sg12
g13
(g14
g15
NtRp96
(dp97
g18
I1
sg19
I0
sg20
I10
sg21
I0
sg22
I0
sg23
I10
sg24
I0
sbssg25
S'\xdb&\x14\xd7\x1cP\x82\xa2\x10\xd3TM\r\xa9TP'
p98
ssS'src_rockstor_storageadmin_views_snapshot'
p99
(dp100
g6
(dp101
g8
S'src_rockstor_storageadmin_views_snapshot.html'
p102
sg10
S'src/rockstor/storageadmin/views/snapshot'
p103
sg12
g13
(g14
g15
NtRp104
(dp105
g18
I1
sg19
I0
sg20
I157
sg21
I0
sg22
I0
sg23
I157
sg24
I0
sbssg25
S'S\xa7\xc2\xf8\x0f\\\x02:\xfa\x1a5\xcf\xf1\x0e\x0b\xae'
p106
ssS'src_rockstor_storageadmin_views_user'
p107
(dp108
g6
(dp109
g8
S'src_rockstor_storageadmin_views_user.html'
p110
sg10
S'src/rockstor/storageadmin/views/user'
p111
sg12
g13
(g14
g15
NtRp112
(dp113
g18
I1
sg19
I0
sg20
I214
sg21
I0
sg22
I0
sg23
I214
sg24
I0
sbssg25
S'\x16Cw\x1b\xad\xc6\xe3J\x19\xbb\xbfA\xd4\x8f\x92\xc7'
p114
ssS'src_rockstor_storageadmin_views_views'
p115
(dp116
g6
(dp117
g8
S'src_rockstor_storageadmin_views_views.html'
p118
sg10
S'src/rockstor/storageadmin/views/views'
p119
sg12
g13
(g14
g15
NtRp120
(dp121
g18
I1
sg19
I0
sg20
I0
sg21
I0
sg22
I0
sg23
I0
sg24
I0
sbssg25
S'{\xd99q\x98)\xfekT\xb8H7M\x1c\x94\xba'
p122
ssS'src_rockstor_storageadmin_views_rockon_helpers'
p123
(dp124
g6
(dp125
g8
S'src_rockstor_storageadmin_views_rockon_helpers.html'
p126
sg10
S'src/rockstor/storageadmin/views/rockon_helpers'
p127
sg12
g13
(g14
g15
NtRp128
(dp129
g18
I1
sg19
I0
sg20
I195
sg21
I0
sg22
I0
sg23
I195
sg24
I0
sbssg25
S'1\xcbb\xb8\x87\x1b\xeak\xbap\\\x0f.\x0e\x91\x12'
p130
ssS'src_rockstor_storageadmin_views_clone_helpers'
p131
(dp132
g6
(dp133
g8
S'src_rockstor_storageadmin_views_clone_helpers.html'
p134
sg10
S'src/rockstor/storageadmin/views/clone_helpers'
p135
sg12
g13
(g14
g15
NtRp136
(dp137
g18
I1
sg19
I0
sg20
I31
sg21
I0
sg22
I0
sg23
I31
sg24
I0
sbssg25
S'H\xf6\x04\xa3\x1e4\xbd\xb7\xd5\xcb+U\xefj\xe4\x08'
p138
ssS'src_rockstor_storageadmin_views_share_iscsi'
p139
(dp140
g6
(dp141
g8
S'src_rockstor_storageadmin_views_share_iscsi.html'
p142
sg10
S'src/rockstor/storageadmin/views/share_iscsi'
p143
sg12
g13
(g14
g15
NtRp144
(dp145
g18
I1
sg19
I0
sg20
I58
sg21
I0
sg22
I0
sg23
I58
sg24
I0
sbssg25
S'\x80\x1e;\xe3\x06\x87\xad\x99\xb9\x86\xbd\x00\xbc#=R'
p146
ssS'src_rockstor_storageadmin_views_setup_user'
p147
(dp148
g6
(dp149
g8
S'src_rockstor_storageadmin_views_setup_user.html'
p150
sg10
S'src/rockstor/storageadmin/views/setup_user'
p151
sg12
g13
(g14
g15
NtRp152
(dp153
g18
I1
sg19
I0
sg20
I32
sg21
I0
sg22
I0
sg23
I32
sg24
I0
sbssg25
S'P[/\x9dk2\x85o\xfe\xf1\xe5^Z\x89\xfe!'
p154
ssS'src_rockstor_storageadmin_views_pool_balance'
p155
(dp156
g6
(dp157
g8
S'src_rockstor_storageadmin_views_pool_balance.html'
p158
sg10
S'src/rockstor/storageadmin/views/pool_balance'
p159
sg12
g13
(g14
g15
NtRp160
(dp161
g18
I1
sg19
I0
sg20
I67
sg21
I0
sg22
I0
sg23
I67
sg24
I0
sbssg25
S"s`)\xad\xb4\xe6\x1a\x93\x1f\xdf\xce\r\xc0'PC"
p162
ssS'src_rockstor_storageadmin_views_pool'
p163
(dp164
g6
(dp165
g8
S'src_rockstor_storageadmin_views_pool.html'
p166
sg10
S'src/rockstor/storageadmin/views/pool'
p167
sg12
g13
(g14
g15
NtRp168
(dp169
g18
I1
sg19
I0
sg20
I289
sg21
I0
sg22
I0
sg23
I289
sg24
I0
sbssg25
S"AmE\xa5\x0c\xca\x91g?:'x\x08\x9dX$"
p170
ssS'src_rockstor_storageadmin_views_pool_scrub'
p171
(dp172
g6
(dp173
g8
S'src_rockstor_storageadmin_views_pool_scrub.html'
p174
sg10
S'src/rockstor/storageadmin/views/pool_scrub'
p175
sg12
g13
(g14
g15
NtRp176
(dp177
g18
I1
sg19
I0
sg20
I58
sg21
I0
sg22
I0
sg23
I58
sg24
I0
sbssg25
S'@\xd0\xbc\xec\x9d\x9a\x9ev\xbe\xc0\xc7\xe3.\xbc\x94\xb5'
p178
ssS'src_rockstor_storageadmin_views_email'
p179
(dp180
g6
(dp181
g8
S'src_rockstor_storageadmin_views_email.html'
p182
sg10
S'src/rockstor/storageadmin/views/email'
p183
sg12
g13
(g14
g15
NtRp184
(dp185
g18
I1
sg19
I0
sg20
I79
sg21
I0
sg22
I0
sg23
I79
sg24
I0
sbssg25
S'\xbf\xdcO1\x8d\xc6\x16\xc83Q\xad7\x8bg\xf2\x9e'
p186
ssS'src_rockstor_storageadmin_views_rockon'
p187
(dp188
g6
(dp189
g8
S'src_rockstor_storageadmin_views_rockon.html'
p190
sg10
S'src/rockstor/storageadmin/views/rockon'
p191
sg12
g13
(g14
g15
NtRp192
(dp193
g18
I1
sg19
I0
sg20
I166
sg21
I0
sg22
I0
sg23
I166
sg24
I0
sbssg25
S'\x0b\xa1\xc94\x1e@xG\x90\xfd\x15{d\x19\xe34'
p194
ssS'src_rockstor_storageadmin_views_sftp'
p195
(dp196
g6
(dp197
g8
S'src_rockstor_storageadmin_views_sftp.html'
p198
sg10
S'src/rockstor/storageadmin/views/sftp'
p199
sg12
g13
(g14
g15
NtRp200
(dp201
g18
I1
sg19
I0
sg20
I79
sg21
I0
sg22
I0
sg23
I79
sg24
I0
sbssg25
S'\xc4\xb3\x1f\x15K\xb6k\xe8; \xa7\xb9\xdeC\xda\xc1'
p202
ssS'src_rockstor_storageadmin_views_rockon_volume'
p203
(dp204
g6
(dp205
g8
S'src_rockstor_storageadmin_views_rockon_volume.html'
p206
sg10
S'src/rockstor/storageadmin/views/rockon_volume'
p207
sg12
g13
(g14
g15
NtRp208
(dp209
g18
I1
sg19
I0
sg20
I14
sg21
I0
sg22
I0
sg23
I14
sg24
I0
sbssg25
S'\xe1+l\xe8\xce\xe2\xf2\xd8]\xc5\x9d6\x86C\x86Z'
p210
ssS'src_rockstor_storageadmin_views_network'
p211
(dp212
g6
(dp213
g8
S'src_rockstor_storageadmin_views_network.html'
p214
sg10
S'src/rockstor/storageadmin/views/network'
p215
sg12
g13
(g14
g15
NtRp216
(dp217
g18
I1
sg19
I0
sg20
I157
sg21
I0
sg22
I0
sg23
I157
sg24
I0
sbssg25
S'\xbcD\x1b\x1e\xb9=g\x88T\\V\\u\x98\xf5\x86'
p218
ssS'src_rockstor_storageadmin_views_command'
p219
(dp220
g6
(dp221
g8
S'src_rockstor_storageadmin_views_command.html'
p222
sg10
S'src/rockstor/storageadmin/views/command'
p223
sg12
g13
(g14
g15
NtRp224
(dp225
g18
I1
sg19
I0
sg20
I185
sg21
I0
sg22
I0
sg23
I185
sg24
I0
sbssg25
S'a\xf8\xf2]3\xfc\xc5\x86>@kN>\x1aT_'
p226
ssS'src_rockstor_storageadmin_views_support'
p227
(dp228
g6
(dp229
g8
S'src_rockstor_storageadmin_views_support.html'
p230
sg10
S'src/rockstor/storageadmin/views/support'
p231
sg12
g13
(g14
g15
NtRp232
(dp233
g18
I1
sg19
I0
sg20
I74
sg21
I0
sg22
I0
sg23
I74
sg24
I0
sbssg25
S'P\xea\xcdP\x0c\xf5\x9e\xda^\x92\xf4\xbd\xff\x03=\xef'
p234
ssS'src_rockstor_storageadmin_views_disk_smart'
p235
(dp236
g6
(dp237
g8
S'src_rockstor_storageadmin_views_disk_smart.html'
p238
sg10
S'src/rockstor/storageadmin/views/disk_smart'
p239
sg12
g13
(g14
g15
NtRp240
(dp241
g18
I1
sg19
I0
sg20
I86
sg21
I0
sg22
I0
sg23
I86
sg24
I0
sbssg25
S"(k#\x9flz'\x81\xde(D\xf1\xd9\x00H\xf0"
p242
ssS'src_rockstor_storageadmin_views_share_helpers'
p243
(dp244
g6
(dp245
g8
S'src_rockstor_storageadmin_views_share_helpers.html'
p246
sg10
S'src/rockstor/storageadmin/views/share_helpers'
p247
sg12
g13
(g14
g15
NtRp248
(dp249
g18
I1
sg19
I0
sg20
I108
sg21
I0
sg22
I0
sg23
I108
sg24
I0
sbssg25
S'}5\x8aj$\xd7/\xd4Q4j\x91b\xd35\xbf'
p250
ssS'src_rockstor_storageadmin_views_rockon_custom_config'
p251
(dp252
g6
(dp253
g8
S'src_rockstor_storageadmin_views_rockon_custom_config.html'
p254
sg10
S'src/rockstor/storageadmin/views/rockon_custom_config'
p255
sg12
g13
(g14
g15
NtRp256
(dp257
g18
I1
sg19
I0
sg20
I13
sg21
I0
sg22
I0
sg23
I13
sg24
I0
sbssg25
S"\x1f5m\x11\xca O\x06'>\x80\n\xe8\xc1\x15B"
p258
ssS'src_rockstor_storageadmin_views_share_nfs'
p259
(dp260
g6
(dp261
g8
S'src_rockstor_storageadmin_views_share_nfs.html'
p262
sg10
S'src/rockstor/storageadmin/views/share_nfs'
p263
sg12
g13
(g14
g15
NtRp264
(dp265
g18
I1
sg19
I0
sg20
I81
sg21
I0
sg22
I0
sg23
I81
sg24
I0
sbssg25
S'\xde\xb2\t2\xa4S6;\\\xcal\x00\x08PT\xc1'
p266
ssS'src_rockstor_storageadmin_views_rockon_port'
p267
(dp268
g6
(dp269
g8
S'src_rockstor_storageadmin_views_rockon_port.html'
p270
sg10
S'src/rockstor/storageadmin/views/rockon_port'
p271
sg12
g13
(g14
g15
NtRp272
(dp273
g18
I1
sg19
I0
sg20
I14
sg21
I0
sg22
I0
sg23
I14
sg24
I0
sbssg25
S'\xce\x1a\x1b\xe2\x8b\x08\xc8W~\x92\xbcD\xe8\x13\xd7h'
p274
ssS'src_rockstor_storageadmin_views_login'
p275
(dp276
g6
(dp277
g8
S'src_rockstor_storageadmin_views_login.html'
p278
sg10
S'src/rockstor/storageadmin/views/login'
p279
sg12
g13
(g14
g15
NtRp280
(dp281
g18
I1
sg19
I0
sg20
I19
sg21
I0
sg22
I0
sg23
I19
sg24
I0
sbssg25
S'\x98\x1d=q\xb7\x1cuMJ0\xfa\xb7P\xfa\x8c;'
p282
ssS'src_rockstor_storageadmin_views_appliances'
p283
(dp284
g6
(dp285
g8
S'src_rockstor_storageadmin_views_appliances.html'
p286
sg10
S'src/rockstor/storageadmin/views/appliances'
p287
sg12
g13
(g14
g15
NtRp288
(dp289
g18
I1
sg19
I0
sg20
I114
sg21
I0
sg22
I0
sg23
I114
sg24
I0
sbssg25
S'\x95\x93\xab(\x11\xdf\xf8X\xc4\x8e\xee:\x1f\xfd\x08e'
p290
ssS'src_rockstor_storageadmin_views_nfs_helpers'
p291
(dp292
g6
(dp293
g8
S'src_rockstor_storageadmin_views_nfs_helpers.html'
p294
sg10
S'src/rockstor/storageadmin/views/nfs_helpers'
p295
sg12
g13
(g14
g15
NtRp296
(dp297
g18
I1
sg19
I0
sg20
I76
sg21
I0
sg22
I0
sg23
I76
sg24
I0
sbssg25
S'q\xfa\xbf\xa8~\x01\x0f\xc3Z>\x01\x18\xb2\x0c\xab\x1e'
p298
ssS'src_rockstor_storageadmin_views_share'
p299
(dp300
g6
(dp301
g8
S'src_rockstor_storageadmin_views_share.html'
p302
sg10
S'src/rockstor/storageadmin/views/share'
p303
sg12
g13
(g14
g15
NtRp304
(dp305
g18
I1
sg19
I0
sg20
I172
sg21
I0
sg22
I0
sg23
I172
sg24
I0
sbssg25
S'\xa7\x00\xaa\x8a[\xe1\xdfRL\x8cy\xa5\x9fj|&'
p306
ssS'src_rockstor_storageadmin_views_samba'
p307
(dp308
g6
(dp309
g8
S'src_rockstor_storageadmin_views_samba.html'
p310
sg10
S'src/rockstor/storageadmin/views/samba'
p311
sg12
g13
(g14
g15
NtRp312
(dp313
g18
I1
sg19
I0
sg20
I146
sg21
I0
sg22
I0
sg23
I146
sg24
I0
sbssg25
S'\xd6\xde\x9e\x0e)\xff\x94\xe3\x04I\\\\(\xd6%V'
p314
ssS'src_rockstor_storageadmin_views_config_backup'
p315
(dp316
g6
(dp317
g8
S'src_rockstor_storageadmin_views_config_backup.html'
p318
sg10
S'src/rockstor/storageadmin/views/config_backup'
p319
sg12
g13
(g14
g15
NtRp320
(dp321
g18
I1
sg19
I0
sg20
I206
sg21
I0
sg22
I0
sg23
I206
sg24
I0
sbssg25
S'\x86\x02Nq\x9c\x9a\t\x14\xc8\x95\xe4N\xb8bgq'
p322
ssS'src_rockstor_storageadmin_views_group'
p323
(dp324
g6
(dp325
g8
S'src_rockstor_storageadmin_views_group.html'
p326
sg10
S'src/rockstor/storageadmin/views/group'
p327
sg12
g13
(g14
g15
NtRp328
(dp329
g18
I1
sg19
I0
sg20
I72
sg21
I0
sg22
I0
sg23
I72
sg24
I0
sbssg25
S'1*\xff\xf8[\x1b]\x8a8\x04\xf5\xb7\\SD\x11'
p330
ssS'src_rockstor_storageadmin_views_share_command'
p331
(dp332
g6
(dp333
g8
S'src_rockstor_storageadmin_views_share_command.html'
p334
sg10
S'src/rockstor/storageadmin/views/share_command'
p335
sg12
g13
(g14
g15
NtRp336
(dp337
g18
I1
sg19
I0
sg20
I49
sg21
I0
sg22
I0
sg23
I49
sg24
I0
sbssg25
S'\x1dq?\xe6\xd1.AC\xb1\xa9\x0e\x0f\xfa\xc3\xedn'
p338
ssS'src_rockstor_storageadmin_views_share_acl'
p339
(dp340
g6
(dp341
g8
S'src_rockstor_storageadmin_views_share_acl.html'
p342
sg10
S'src/rockstor/storageadmin/views/share_acl'
p343
sg12
g13
(g14
g15
NtRp344
(dp345
g18
I1
sg19
I0
sg20
I34
sg21
I0
sg22
I0
sg23
I34
sg24
I0
sbssg25
S'\xae\xba(\x9b\x80jF\xf8dn\xb6 \xafl\x04\xcc'
p346
ssS'src_rockstor_storageadmin_views_dashboardconfig'
p347
(dp348
g6
(dp349
g8
S'src_rockstor_storageadmin_views_dashboardconfig.html'
p350
sg10
S'src/rockstor/storageadmin/views/dashboardconfig'
p351
sg12
g13
(g14
g15
NtRp352
(dp353
g18
I1
sg19
I0
sg20
I54
sg21
I0
sg22
I0
sg23
I54
sg24
I0
sbssg25
S'\x9fu\t\xf5\x92\x7f9X\x06\xb6c\xc5;2:\xf0'
p354
ssS'src_rockstor_storageadmin_views_home'
p355
(dp356
g6
(dp357
g8
S'src_rockstor_storageadmin_views_home.html'
p358
sg10
S'src/rockstor/storageadmin/views/home'
p359
sg12
g13
(g14
g15
NtRp360
(dp361
g18
I1
sg19
I0
sg20
I36
sg21
I0
sg22
I0
sg23
I36
sg24
I0
sbssg25
S'8\xc1q.\x93\xe3Y\xcf\x15Z\xc3\xcfa\x91\xb4\x11'
p362
sssS'version'
p363
S'3.7.1'
p364
sS'settings'
p365
S'\xe1At\xd4r\xde\x87\xd4\xaet\xa3\x86\xe2\x14\xba.'
p366
sS'format'
p367
I1
s.