(dp1
S'files'
p2
(dp3
S'src_rockstor_storageadmin_views_rockon_id'
p4
(dp5
S'index'
p6
(dp7
S'html_filename'
p8
S'src_rockstor_storageadmin_views_rockon_id.html'
p9
sS'name'
p10
S'src/rockstor/storageadmin/views/rockon_id'
p11
sS'nums'
p12
ccopy_reg
_reconstructor
p13
(ccoverage.results
Numbers
p14
c__builtin__
object
p15
NtRp16
(dp17
S'n_files'
p18
I1
sS'n_branches'
p19
I0
sS'n_statements'
p20
I130
sS'n_excluded'
p21
I0
sS'n_partial_branches'
p22
I0
sS'n_missing'
p23
I115
sS'n_missing_branches'
p24
I0
sbssS'hash'
p25
S'5\x86\x9b+H\n\xe9`\x8e:\x9b{0\x19S\x89'
p26
ssS'src_rockstor_storageadmin_views___init__'
p27
(dp28
g6
(dp29
g8
S'src_rockstor_storageadmin_views___init__.html'
p30
sg10
S'src/rockstor/storageadmin/views/__init__'
p31
sg12
g13
(g14
g15
NtRp32
(dp33
g18
I1
sg19
I0
sg20
I34
sg21
I0
sg22
I0
sg23
I0
sg24
I0
sbssg25
S"i\xd2\xdd^\xda\xdf'\x1b.\xd1dg\xcf;\x1b\xbc"
p34
ssS'src_rockstor_storageadmin_views_ug_helpers'
p35
(dp36
g6
(dp37
g8
S'src_rockstor_storageadmin_views_ug_helpers.html'
p38
sg10
S'src/rockstor/storageadmin/views/ug_helpers'
p39
sg12
g13
(g14
g15
NtRp40
(dp41
g18
I1
sg19
I0
sg20
I20
sg21
I0
sg22
I0
sg23
I14
sg24
I0
sbssg25
S'.4\x08\x9a\x0bai\xbc\xdc\xca\xe8\x1b\xab\x99\xf86'
p42
ssS'src_rockstor_storageadmin_views_plugin'
p43
(dp44
g6
(dp45
g8
S'src_rockstor_storageadmin_views_plugin.html'
p46
sg10
S'src/rockstor/storageadmin/views/plugin'
p47
sg12
g13
(g14
g15
NtRp48
(dp49
g18
I1
sg19
I0
sg20
I13
sg21
I0
sg22
I0
sg23
I1
sg24
I0
sbssg25
S'\xa8\x12\xe6\xde@G<\xff\xe96\xc1av/l*'
p50
ssS'src_rockstor_storageadmin_views_adv_nfs_exports'
p51
(dp52
g6
(dp53
g8
S'src_rockstor_storageadmin_views_adv_nfs_exports.html'
p54
sg10
S'src/rockstor/storageadmin/views/adv_nfs_exports'
p55
sg12
g13
(g14
g15
NtRp56
(dp57
g18
I1
sg19
I0
sg20
I51
sg21
I0
sg22
I0
sg23
I38
sg24
I0
sbssg25
S'0g\xdfX;\xed\x81\xcbw\xb9\x03E\xd3\x8d\xa9\x9d'
p58
ssS'src_rockstor_storageadmin_views_rockon_helpers'
p59
(dp60
g6
(dp61
g8
S'src_rockstor_storageadmin_views_rockon_helpers.html'
p62
sg10
S'src/rockstor/storageadmin/views/rockon_helpers'
p63
sg12
g13
(g14
g15
NtRp64
(dp65
g18
I1
sg19
I0
sg20
I121
sg21
I0
sg22
I0
sg23
I103
sg24
I0
sbssg25
S'\xd4\x04Vr\rG\xf9\x1e\xf3I\x01E4k\xda_'
p66
ssS'src_rockstor_storageadmin_views_tls_certificate'
p67
(dp68
g6
(dp69
g8
S'src_rockstor_storageadmin_views_tls_certificate.html'
p70
sg10
S'src/rockstor/storageadmin/views/tls_certificate'
p71
sg12
g13
(g14
g15
NtRp72
(dp73
g18
I1
sg19
I0
sg20
I53
sg21
I0
sg22
I0
sg23
I35
sg24
I0
sbssg25
S'\xdc\xc8\n\xe2K\x18\x08\xd3P\xfa\x0b@\xe9\xc5\xe7y'
p74
ssS'src_rockstor_storageadmin_views_oauth_app'
p75
(dp76
g6
(dp77
g8
S'src_rockstor_storageadmin_views_oauth_app.html'
p78
sg10
S'src/rockstor/storageadmin/views/oauth_app'
p79
sg12
g13
(g14
g15
NtRp80
(dp81
g18
I1
sg19
I0
sg20
I47
sg21
I0
sg22
I0
sg23
I34
sg24
I0
sbssg25
S'\n\x05[mx\xecx\xcd\x1a\x80\xa8\xd4[\xea~\xc7'
p82
ssS'src_rockstor_storageadmin_views_netatalk'
p83
(dp84
g6
(dp85
g8
S'src_rockstor_storageadmin_views_netatalk.html'
p86
sg10
S'src/rockstor/storageadmin/views/netatalk'
p87
sg12
g13
(g14
g15
NtRp88
(dp89
g18
I1
sg19
I0
sg20
I93
sg21
I0
sg22
I0
sg23
I70
sg24
I0
sbssg25
S'NCD\xa0H\xd2+\xbf^t<\x03\x01\x1a>y'
p90
ssS'src_rockstor_storageadmin_views_clone_helpers'
p91
(dp92
g6
(dp93
g8
S'src_rockstor_storageadmin_views_clone_helpers.html'
p94
sg10
S'src/rockstor/storageadmin/views/clone_helpers'
p95
sg12
g13
(g14
g15
NtRp96
(dp97
g18
I1
sg19
I0
sg20
I32
sg21
I0
sg22
I0
sg23
I24
sg24
I0
sbssg25
S'\x80\x18|U\xe2\xa5\x999\xef\xb8G\xc2\xbf\xe2\x0c\x88'
p98
ssS'src_rockstor_storageadmin_views_share_command'
p99
(dp100
g6
(dp101
g8
S'src_rockstor_storageadmin_views_share_command.html'
p102
sg10
S'src/rockstor/storageadmin/views/share_command'
p103
sg12
g13
(g14
g15
NtRp104
(dp105
g18
I1
sg19
I0
sg20
I81
sg21
I0
sg22
I0
sg23
I63
sg24
I0
sbssg25
S'\x1f\n\xb9\\-<u\x81\x02)\x19\x18_4X\x92'
p106
ssS'src_rockstor_storageadmin_views_serializers'
p107
(dp108
g6
(dp109
g8
S'src_rockstor_storageadmin_views_serializers.html'
p110
sg10
S'src/rockstor/storageadmin/views/serializers'
p111
sg12
g13
(g14
g15
NtRp112
(dp113
g18
I1
sg19
I0
sg20
I8
sg21
I0
sg22
I0
sg23
I8
sg24
I0
sbssg25
S'B\x91_\xf9\x1d\x8bsBs\xff\xce\xc0\x83[cn'
p114
ssS'src_rockstor_storageadmin_views_pool_import'
p115
(dp116
g6
(dp117
g8
S'src_rockstor_storageadmin_views_pool_import.html'
p118
sg10
S'src/rockstor/storageadmin/views/pool_import'
p119
sg12
g13
(g14
g15
NtRp120
(dp121
g18
I1
sg19
I0
sg20
I70
sg21
I0
sg22
I0
sg23
I70
sg24
I0
sbssg25
S'\x91\xaa\x7f2\xef\xcb\xf3M\xec\xacoM%C\x12\xda'
p122
ssS'src_rockstor_storageadmin_views_snapshot'
p123
(dp124
g6
(dp125
g8
S'src_rockstor_storageadmin_views_snapshot.html'
p126
sg10
S'src/rockstor/storageadmin/views/snapshot'
p127
sg12
g13
(g14
g15
NtRp128
(dp129
g18
I1
sg19
I0
sg20
I177
sg21
I0
sg22
I0
sg23
I151
sg24
I0
sbssg25
S'\xd5\x8e\xf4F\xbd{c\x16\x89\x9c\xdf\x03\xd3\x0b\xafc'
p130
ssS'src_rockstor_storageadmin_views_views'
p131
(dp132
g6
(dp133
g8
S'src_rockstor_storageadmin_views_views.html'
p134
sg10
S'src/rockstor/storageadmin/views/views'
p135
sg12
g13
(g14
g15
NtRp136
(dp137
g18
I1
sg19
I0
sg20
I0
sg21
I0
sg22
I0
sg23
I0
sg24
I0
sbssg25
S'{\xd99q\x98)\xfekT\xb8H7M\x1c\x94\xba'
p138
ssS'src_rockstor_storageadmin_views_nfs_exports'
p139
(dp140
g6
(dp141
g8
S'src_rockstor_storageadmin_views_nfs_exports.html'
p142
sg10
S'src/rockstor/storageadmin/views/nfs_exports'
p143
sg12
g13
(g14
g15
NtRp144
(dp145
g18
I1
sg19
I0
sg20
I105
sg21
I0
sg22
I0
sg23
I87
sg24
I0
sbssg25
S'4\xae\xc1\x7fp+[W({\xe0\xabh\xf1\x8d6'
p146
ssS'src_rockstor_storageadmin_views_disk_smart'
p147
(dp148
g6
(dp149
g8
S'src_rockstor_storageadmin_views_disk_smart.html'
p150
sg10
S'src/rockstor/storageadmin/views/disk_smart'
p151
sg12
g13
(g14
g15
NtRp152
(dp153
g18
I1
sg19
I0
sg20
I67
sg21
I0
sg22
I0
sg23
I67
sg24
I0
sbssg25
S'\x0e\x18\xc7\xba\xa0B\x81\xbc\xc9\xa5\xac%\x93\x98j\t'
p154
ssS'src_rockstor_storageadmin_views_setup_user'
p155
(dp156
g6
(dp157
g8
S'src_rockstor_storageadmin_views_setup_user.html'
p158
sg10
S'src/rockstor/storageadmin/views/setup_user'
p159
sg12
g13
(g14
g15
NtRp160
(dp161
g18
I1
sg19
I0
sg20
I34
sg21
I0
sg22
I0
sg23
I21
sg24
I0
sbssg25
S' \xeew\x1e3sVVK\xe4\xa6\xfd;\xb8z\xa2'
p162
ssS'src_rockstor_storageadmin_views_share_iscsi'
p163
(dp164
g6
(dp165
g8
S'src_rockstor_storageadmin_views_share_iscsi.html'
p166
sg10
S'src/rockstor/storageadmin/views/share_iscsi'
p167
sg12
g13
(g14
g15
NtRp168
(dp169
g18
I1
sg19
I0
sg20
I59
sg21
I0
sg22
I0
sg23
I43
sg24
I0
sbssg25
S"D*!\xf6\x1bvT\xb9#\rzfr'\xa70"
p170
ssS'src_rockstor_storageadmin_views_pool_balance'
p171
(dp172
g6
(dp173
g8
S'src_rockstor_storageadmin_views_pool_balance.html'
p174
sg10
S'src/rockstor/storageadmin/views/pool_balance'
p175
sg12
g13
(g14
g15
NtRp176
(dp177
g18
I1
sg19
I0
sg20
I55
sg21
I0
sg22
I0
sg23
I39
sg24
I0
sbssg25
S'\x81m\xd9\xe4p\xf9\xfd\xbf\x1d0\x9a~\xa6\x1b1I'
p178
ssS'src_rockstor_storageadmin_views_pool'
p179
(dp180
g6
(dp181
g8
S'src_rockstor_storageadmin_views_pool.html'
p182
sg10
S'src/rockstor/storageadmin/views/pool'
p183
sg12
g13
(g14
g15
NtRp184
(dp185
g18
I1
sg19
I0
sg20
I281
sg21
I0
sg22
I0
sg23
I121
sg24
I0
sbssg25
S'\xb6\xc8\xdd\xf8\x85\xfb\xf9\xda\xe0\x93\x137#\x16Gh'
p186
ssS'src_rockstor_storageadmin_views_pool_scrub'
p187
(dp188
g6
(dp189
g8
S'src_rockstor_storageadmin_views_pool_scrub.html'
p190
sg10
S'src/rockstor/storageadmin/views/pool_scrub'
p191
sg12
g13
(g14
g15
NtRp192
(dp193
g18
I1
sg19
I0
sg20
I60
sg21
I0
sg22
I0
sg23
I43
sg24
I0
sbssg25
S'a\x8d\x8b\x12q\xb3\x1d\x0c\xe7h\x80C\xa9\xcd\xb7\xd5'
p194
ssS'src_rockstor_storageadmin_views_rockon'
p195
(dp196
g6
(dp197
g8
S'src_rockstor_storageadmin_views_rockon.html'
p198
sg10
S'src/rockstor/storageadmin/views/rockon'
p199
sg12
g13
(g14
g15
NtRp200
(dp201
g18
I1
sg19
I0
sg20
I107
sg21
I0
sg22
I0
sg23
I89
sg24
I0
sbssg25
S'8\x95\xe9\x99\x18!e\xf4\x1a\x14\xd2\xc8\x89\xe6j\xac'
p202
ssS'src_rockstor_storageadmin_views_sftp'
p203
(dp204
g6
(dp205
g8
S'src_rockstor_storageadmin_views_sftp.html'
p206
sg10
S'src/rockstor/storageadmin/views/sftp'
p207
sg12
g13
(g14
g15
NtRp208
(dp209
g18
I1
sg19
I0
sg20
I77
sg21
I0
sg22
I0
sg23
I58
sg24
I0
sbssg25
S'Y\xd1R1\xf5\x9f\x90\xd5\xa2+\x9e"\xae\x1d\xe4\xb5'
p210
ssS'src_rockstor_storageadmin_views_rockon_volume'
p211
(dp212
g6
(dp213
g8
S'src_rockstor_storageadmin_views_rockon_volume.html'
p214
sg10
S'src/rockstor/storageadmin/views/rockon_volume'
p215
sg12
g13
(g14
g15
NtRp216
(dp217
g18
I1
sg19
I0
sg20
I14
sg21
I0
sg22
I0
sg23
I7
sg24
I0
sbssg25
S'\xdf~\x9f\xf4=\xf1\xea\x84\xa1\xa6\x10W\xdex^\xc8'
p218
ssS'src_rockstor_storageadmin_views_network'
p219
(dp220
g6
(dp221
g8
S'src_rockstor_storageadmin_views_network.html'
p222
sg10
S'src/rockstor/storageadmin/views/network'
p223
sg12
g13
(g14
g15
NtRp224
(dp225
g18
I1
sg19
I0
sg20
I117
sg21
I0
sg22
I0
sg23
I99
sg24
I0
sbssg25
S'\xec\xde\x8cedn\x19z\xfaa\x1e\x18h\xe0:\x9a'
p226
ssS'src_rockstor_storageadmin_views_command'
p227
(dp228
g6
(dp229
g8
S'src_rockstor_storageadmin_views_command.html'
p230
sg10
S'src/rockstor/storageadmin/views/command'
p231
sg12
g13
(g14
g15
NtRp232
(dp233
g18
I1
sg19
I0
sg20
I185
sg21
I0
sg22
I0
sg23
I160
sg24
I0
sbssg25
S'_\x17\x1cvVj9\x04\x87\xf8\x8a\x87\x82\x02P\x9b'
p234
ssS'src_rockstor_storageadmin_views_user'
p235
(dp236
g6
(dp237
g8
S'src_rockstor_storageadmin_views_user.html'
p238
sg10
S'src/rockstor/storageadmin/views/user'
p239
sg12
g13
(g14
g15
NtRp240
(dp241
g18
I1
sg19
I0
sg20
I201
sg21
I0
sg22
I0
sg23
I176
sg24
I0
sbssg25
S's\x1cd\x0b\xcaB\x16D<\xa0\x7f\x10A\x91\n%'
p242
ssS'src_rockstor_storageadmin_views_support'
p243
(dp244
g6
(dp245
g8
S'src_rockstor_storageadmin_views_support.html'
p246
sg10
S'src/rockstor/storageadmin/views/support'
p247
sg12
g13
(g14
g15
NtRp248
(dp249
g18
I1
sg19
I0
sg20
I74
sg21
I0
sg22
I0
sg23
I49
sg24
I0
sbssg25
S'\xbe\xc0\xe1\x9b\xe5\xa1\x04v\xd0\x0c\xb9U\x97\xa74\xe0'
p250
ssS'src_rockstor_storageadmin_views_disk'
p251
(dp252
g6
(dp253
g8
S'src_rockstor_storageadmin_views_disk.html'
p254
sg10
S'src/rockstor/storageadmin/views/disk'
p255
sg12
g13
(g14
g15
NtRp256
(dp257
g18
I1
sg19
I0
sg20
I118
sg21
I0
sg22
I0
sg23
I97
sg24
I0
sbssg25
S'\xa2\x05CF1"\xc3jd\xec\xd9\xdc}\xdb)\xe2'
p258
ssS'src_rockstor_storageadmin_views_share_helpers'
p259
(dp260
g6
(dp261
g8
S'src_rockstor_storageadmin_views_share_helpers.html'
p262
sg10
S'src/rockstor/storageadmin/views/share_helpers'
p263
sg12
g13
(g14
g15
NtRp264
(dp265
g18
I1
sg19
I0
sg20
I35
sg21
I0
sg22
I0
sg23
I25
sg24
I0
sbssg25
S'I\x81\xcfL\xfa\x9a\xf3\x03\xd4/\x0e\xa0/J\xa1{'
p266
ssS'src_rockstor_storageadmin_views_rockon_custom_config'
p267
(dp268
g6
(dp269
g8
S'src_rockstor_storageadmin_views_rockon_custom_config.html'
p270
sg10
S'src/rockstor/storageadmin/views/rockon_custom_config'
p271
sg12
g13
(g14
g15
NtRp272
(dp273
g18
I1
sg19
I0
sg20
I13
sg21
I0
sg22
I0
sg23
I6
sg24
I0
sbssg25
S'\xc3\x8d\xf8Nl\xb1\xbb\xd3\xadf\xbc\x17\xa5\x1b*\x9a'
p274
ssS'src_rockstor_storageadmin_views_installed_plugin'
p275
(dp276
g6
(dp277
g8
S'src_rockstor_storageadmin_views_installed_plugin.html'
p278
sg10
S'src/rockstor/storageadmin/views/installed_plugin'
p279
sg12
g13
(g14
g15
NtRp280
(dp281
g18
I1
sg19
I0
sg20
I26
sg21
I0
sg22
I0
sg23
I12
sg24
I0
sbssg25
S']\xd8>\xc1\x86d\xe7\xb4\x1f\xf4\x0e\xd9/%\x12\xf7'
p282
ssS'src_rockstor_storageadmin_views_share_nfs'
p283
(dp284
g6
(dp285
g8
S'src_rockstor_storageadmin_views_share_nfs.html'
p286
sg10
S'src/rockstor/storageadmin/views/share_nfs'
p287
sg12
g13
(g14
g15
NtRp288
(dp289
g18
I1
sg19
I0
sg20
I78
sg21
I0
sg22
I0
sg23
I61
sg24
I0
sbssg25
S'\xf0\x83\xd0j \xbc{\xb8\x9ci|\x1eqsC\xb5'
p290
ssS'src_rockstor_storageadmin_views_rockon_port'
p291
(dp292
g6
(dp293
g8
S'src_rockstor_storageadmin_views_rockon_port.html'
p294
sg10
S'src/rockstor/storageadmin/views/rockon_port'
p295
sg12
g13
(g14
g15
NtRp296
(dp297
g18
I1
sg19
I0
sg20
I14
sg21
I0
sg22
I0
sg23
I7
sg24
I0
sbssg25
S'>\xf3\xcd\xc9\x1cg\xef\xe7\xe6\xc56\xdb\xb7\xe6\xcd\xd3'
p298
ssS'src_rockstor_storageadmin_views_login'
p299
(dp300
g6
(dp301
g8
S'src_rockstor_storageadmin_views_login.html'
p302
sg10
S'src/rockstor/storageadmin/views/login'
p303
sg12
g13
(g14
g15
NtRp304
(dp305
g18
I1
sg19
I0
sg20
I19
sg21
I0
sg22
I0
sg23
I10
sg24
I0
sbssg25
S'\xe5\x17\xcd\xe2V\xe0\x0bHBfX\xe4\xa2V\x8c\xf3'
p306
ssS'src_rockstor_storageadmin_views_test'
p307
(dp308
g6
(dp309
g8
S'src_rockstor_storageadmin_views_test.html'
p310
sg10
S'src/rockstor/storageadmin/views/test'
p311
sg12
g13
(g14
g15
NtRp312
(dp313
g18
I1
sg19
I0
sg20
I12
sg21
I0
sg22
I0
sg23
I12
sg24
I0
sbssg25
S'\x87\xc7\x8e\x94D\x17\xf4\x9a\xee\x93D\x00\x1a5\xfd\xb3'
p314
ssS'src_rockstor_storageadmin_views_appliances'
p315
(dp316
g6
(dp317
g8
S'src_rockstor_storageadmin_views_appliances.html'
p318
sg10
S'src/rockstor/storageadmin/views/appliances'
p319
sg12
g13
(g14
g15
NtRp320
(dp321
g18
I1
sg19
I0
sg20
I110
sg21
I0
sg22
I0
sg23
I89
sg24
I0
sbssg25
S'm\xbcX\xdbB\x92x\xaf.\xb7\x13\x9fM\xbd\x1e\x11'
p322
ssS'src_rockstor_storageadmin_views_nfs_helpers'
p323
(dp324
g6
(dp325
g8
S'src_rockstor_storageadmin_views_nfs_helpers.html'
p326
sg10
S'src/rockstor/storageadmin/views/nfs_helpers'
p327
sg12
g13
(g14
g15
NtRp328
(dp329
g18
I1
sg19
I0
sg20
I87
sg21
I0
sg22
I0
sg23
I73
sg24
I0
sbssg25
S'\x1fG\x89\xed\x15\xd1\xaeV\xe9mE\xfa\x95(\xc76'
p330
ssS'src_rockstor_storageadmin_views_share'
p331
(dp332
g6
(dp333
g8
S'src_rockstor_storageadmin_views_share.html'
p334
sg10
S'src/rockstor/storageadmin/views/share'
p335
sg12
g13
(g14
g15
NtRp336
(dp337
g18
I1
sg19
I0
sg20
I143
sg21
I0
sg22
I0
sg23
I122
sg24
I0
sbssg25
S'}\x8fq\xc5\x88\xae\xf58\xf2\x82\xaf4\xac/\xc3\xd0'
p338
ssS'src_rockstor_storageadmin_views_samba'
p339
(dp340
g6
(dp341
g8
S'src_rockstor_storageadmin_views_samba.html'
p342
sg10
S'src/rockstor/storageadmin/views/samba'
p343
sg12
g13
(g14
g15
NtRp344
(dp345
g18
I1
sg19
I0
sg20
I144
sg21
I0
sg22
I0
sg23
I122
sg24
I0
sbssg25
S'\xb4\xaew3\xd8p\x08\x16\xf4r%\x89,\xe2\xcbj'
p346
ssS'src_rockstor_storageadmin_views_group'
p347
(dp348
g6
(dp349
g8
S'src_rockstor_storageadmin_views_group.html'
p350
sg10
S'src/rockstor/storageadmin/views/group'
p351
sg12
g13
(g14
g15
NtRp352
(dp353
g18
I1
sg19
I0
sg20
I69
sg21
I0
sg22
I0
sg23
I49
sg24
I0
sbssg25
S'o\xeb\x0e\xb3\x87wv\x0e}\xd2\xa3\xa2\x81_\x98\xaf'
p354
ssS'src_rockstor_storageadmin_views_share_acl'
p355
(dp356
g6
(dp357
g8
S'src_rockstor_storageadmin_views_share_acl.html'
p358
sg10
S'src/rockstor/storageadmin/views/share_acl'
p359
sg12
g13
(g14
g15
NtRp360
(dp361
g18
I1
sg19
I0
sg20
I43
sg21
I0
sg22
I0
sg23
I28
sg24
I0
sbssg25
S'\x14!t73-S\xa7\xdcY\x0c\x19*\x19+ '
p362
ssS'src_rockstor_storageadmin_views_dashboardconfig'
p363
(dp364
g6
(dp365
g8
S'src_rockstor_storageadmin_views_dashboardconfig.html'
p366
sg10
S'src/rockstor/storageadmin/views/dashboardconfig'
p367
sg12
g13
(g14
g15
NtRp368
(dp369
g18
I1
sg19
I0
sg20
I54
sg21
I0
sg22
I0
sg23
I35
sg24
I0
sbssg25
S'\xc6 \xc1y\x86\xb4\x16\xeaR"!f\xc2\xa1\xa0M'
p370
ssS'src_rockstor_storageadmin_views_home'
p371
(dp372
g6
(dp373
g8
S'src_rockstor_storageadmin_views_home.html'
p374
sg10
S'src/rockstor/storageadmin/views/home'
p375
sg12
g13
(g14
g15
NtRp376
(dp377
g18
I1
sg19
I0
sg20
I37
sg21
I0
sg22
I0
sg23
I24
sg24
I0
sbssg25
S"h\xa9iC\x07,\xb9!\xe1I\xd3&'3\xe5\xc4"
p378
sssS'version'
p379
S'3.7.1'
p380
sS'settings'
p381
S'\xe1\x01\x01\x8d>\x99\x08\xaa\xdf\xc7\x7f\xbb\xea\xe6\xe2\x1b'
p382
sS'format'
p383
I1
s.