(dp1
S'files'
p2
(dp3
S'src_rockstor_storageadmin_views_rockon_id'
p4
(dp5
S'index'
p6
(dp7
S'html_filename'
p8
S'src_rockstor_storageadmin_views_rockon_id.html'
p9
sS'name'
p10
S'src/rockstor/storageadmin/views/rockon_id'
p11
sS'nums'
p12
ccopy_reg
_reconstructor
p13
(ccoverage.results
Numbers
p14
c__builtin__
object
p15
NtRp16
(dp17
S'n_files'
p18
I1
sS'n_branches'
p19
I0
sS'n_statements'
p20
I160
sS'n_excluded'
p21
I0
sS'n_partial_branches'
p22
I0
sS'n_missing'
p23
I142
sS'n_missing_branches'
p24
I0
sbssS'hash'
p25
S'\x85\xc9M,G\x1c\xedN=M\xf6\x12\x0c\xc4D;'
p26
ssS'src_rockstor_storageadmin_views___init__'
p27
(dp28
g6
(dp29
g8
S'src_rockstor_storageadmin_views___init__.html'
p30
sg10
S'src/rockstor/storageadmin/views/__init__'
p31
sg12
g13
(g14
g15
NtRp32
(dp33
g18
I1
sg19
I0
sg20
I33
sg21
I0
sg22
I0
sg23
I0
sg24
I0
sbssg25
S',\\\xafF|\r\xd5\r>\xa2\x00\xc3\x82\xb4\x9b\x97'
p34
ssS'src_rockstor_storageadmin_views_ug_helpers'
p35
(dp36
g6
(dp37
g8
S'src_rockstor_storageadmin_views_ug_helpers.html'
p38
sg10
S'src/rockstor/storageadmin/views/ug_helpers'
p39
sg12
g13
(g14
g15
NtRp40
(dp41
g18
I1
sg19
I0
sg20
I63
sg21
I0
sg22
I0
sg23
I57
sg24
I0
sbssg25
S'\x9e8t\xceY\x0b1\xa5\xe6s-4LCx\xb5'
p42
ssS'src_rockstor_storageadmin_views_command'
p43
(dp44
g6
(dp45
g8
S'src_rockstor_storageadmin_views_command.html'
p46
sg10
S'src/rockstor/storageadmin/views/command'
p47
sg12
g13
(g14
g15
NtRp48
(dp49
g18
I1
sg19
I0
sg20
I190
sg21
I0
sg22
I0
sg23
I162
sg24
I0
sbssg25
S'\xb6\xe1hca\x97\x88\xf9\x0exj\x8d\xc8AI8'
p50
ssS'src_rockstor_storageadmin_views_rockon_utils'
p51
(dp52
g6
(dp53
g8
S'src_rockstor_storageadmin_views_rockon_utils.html'
p54
sg10
S'src/rockstor/storageadmin/views/rockon_utils'
p55
sg12
g13
(g14
g15
NtRp56
(dp57
g18
I1
sg19
I0
sg20
I25
sg21
I0
sg22
I0
sg23
I20
sg24
I0
sbssg25
S"\xbd\x9b\xf2\xa2\x13\xaa\xec')\xd0&\xb4\xe3\x8d\xaa="
p58
ssS'src_rockstor_storageadmin_views_tls_certificate'
p59
(dp60
g6
(dp61
g8
S'src_rockstor_storageadmin_views_tls_certificate.html'
p62
sg10
S'src/rockstor/storageadmin/views/tls_certificate'
p63
sg12
g13
(g14
g15
NtRp64
(dp65
g18
I1
sg19
I0
sg20
I53
sg21
I0
sg22
I0
sg23
I35
sg24
I0
sbssg25
S'#\xeb[\x90\x1f\xb65\xd6\x0b\xeb}\x97\x8e\x85S\x82'
p66
ssS'src_rockstor_storageadmin_views_oauth_app'
p67
(dp68
g6
(dp69
g8
S'src_rockstor_storageadmin_views_oauth_app.html'
p70
sg10
S'src/rockstor/storageadmin/views/oauth_app'
p71
sg12
g13
(g14
g15
NtRp72
(dp73
g18
I1
sg19
I0
sg20
I51
sg21
I0
sg22
I0
sg23
I37
sg24
I0
sbssg25
S'U0\x94\x00<\r\x14Q\xe1\xe78\xa8=\x9d\x10K'
p74
ssS'src_rockstor_storageadmin_views_netatalk'
p75
(dp76
g6
(dp77
g8
S'src_rockstor_storageadmin_views_netatalk.html'
p78
sg10
S'src/rockstor/storageadmin/views/netatalk'
p79
sg12
g13
(g14
g15
NtRp80
(dp81
g18
I1
sg19
I0
sg20
I93
sg21
I0
sg22
I0
sg23
I68
sg24
I0
sbssg25
S'\xe0)\x1fM,\xc5\xe7\x8bvAEl\xb1\xf3\xe5b'
p82
ssS'src_rockstor_storageadmin_views_nfs_exports'
p83
(dp84
g6
(dp85
g8
S'src_rockstor_storageadmin_views_nfs_exports.html'
p86
sg10
S'src/rockstor/storageadmin/views/nfs_exports'
p87
sg12
g13
(g14
g15
NtRp88
(dp89
g18
I1
sg19
I0
sg20
I216
sg21
I0
sg22
I0
sg23
I180
sg24
I0
sbssg25
S"\xd7{\x14\xa6\x11\xe2qL'\xd3\xc3Z\xd2\x13\xea\x0c"
p90
ssS'src_rockstor_storageadmin_views_rockon_json'
p91
(dp92
g6
(dp93
g8
S'src_rockstor_storageadmin_views_rockon_json.html'
p94
sg10
S'src/rockstor/storageadmin/views/rockon_json'
p95
sg12
g13
(g14
g15
NtRp96
(dp97
g18
I1
sg19
I0
sg20
I10
sg21
I0
sg22
I0
sg23
I10
sg24
I0
sbssg25
S'\xdb&\x14\xd7\x1cP\x82\xa2\x10\xd3TM\r\xa9TP'
p98
ssS'src_rockstor_storageadmin_views_snapshot'
p99
(dp100
g6
(dp101
g8
S'src_rockstor_storageadmin_views_snapshot.html'
p102
sg10
S'src/rockstor/storageadmin/views/snapshot'
p103
sg12
g13
(g14
g15
NtRp104
(dp105
g18
I1
sg19
I0
sg20
I155
sg21
I0
sg22
I0
sg23
I127
sg24
I0
sbssg25
S'n\xb1K\x94\xf2\xa6\xd3@Q\x86\x1a\xb92\x8b\x92<'
p106
ssS'src_rockstor_storageadmin_views_user'
p107
(dp108
g6
(dp109
g8
S'src_rockstor_storageadmin_views_user.html'
p110
sg10
S'src/rockstor/storageadmin/views/user'
p111
sg12
g13
(g14
g15
NtRp112
(dp113
g18
I1
sg19
I0
sg20
I214
sg21
I0
sg22
I0
sg23
I186
sg24
I0
sbssg25
S'\xb9\rid\xc2%$M\xe3\x05>w\xe12\xc6\xa0'
p114
ssS'src_rockstor_storageadmin_views_views'
p115
(dp116
g6
(dp117
g8
S'src_rockstor_storageadmin_views_views.html'
p118
sg10
S'src/rockstor/storageadmin/views/views'
p119
sg12
g13
(g14
g15
NtRp120
(dp121
g18
I1
sg19
I0
sg20
I0
sg21
I0
sg22
I0
sg23
I0
sg24
I0
sbssg25
S'{\xd99q\x98)\xfekT\xb8H7M\x1c\x94\xba'
p122
ssS'src_rockstor_storageadmin_views_rockon_helpers'
p123
(dp124
g6
(dp125
g8
S'src_rockstor_storageadmin_views_rockon_helpers.html'
p126
sg10
S'src/rockstor/storageadmin/views/rockon_helpers'
p127
sg12
g13
(g14
g15
NtRp128
(dp129
g18
I1
sg19
I0
sg20
I195
sg21
I0
sg22
I0
sg23
I152
sg24
I0
sbssg25
S'\xf3)7\xe0\xeaLHZ\xe8\x8d[\xd0\x07\x85\xd3\x98'
p130
ssS'src_rockstor_storageadmin_views_clone_helpers'
p131
(dp132
g6
(dp133
g8
S'src_rockstor_storageadmin_views_clone_helpers.html'
p134
sg10
S'src/rockstor/storageadmin/views/clone_helpers'
p135
sg12
g13
(g14
g15
NtRp136
(dp137
g18
I1
sg19
I0
sg20
I31
sg21
I0
sg22
I0
sg23
I23
sg24
I0
sbssg25
S'\x07\x18\x1d\x01\x19s\xd9\x9f/\xe5\xe9\xb4P\x80\xd2m'
p138
ssS'src_rockstor_storageadmin_views_disk'
p139
(dp140
g6
(dp141
g8
S'src_rockstor_storageadmin_views_disk.html'
p142
sg10
S'src/rockstor/storageadmin/views/disk'
p143
sg12
g13
(g14
g15
NtRp144
(dp145
g18
I1
sg19
I0
sg20
I198
sg21
I0
sg22
I0
sg23
I160
sg24
I0
sbssg25
S'\xef\xe8\xc6\xd4\x1d%\x0b\x11\x19`\x00\xcey\x9a\x1c\xaf'
p146
ssS'src_rockstor_storageadmin_views_setup_user'
p147
(dp148
g6
(dp149
g8
S'src_rockstor_storageadmin_views_setup_user.html'
p150
sg10
S'src/rockstor/storageadmin/views/setup_user'
p151
sg12
g13
(g14
g15
NtRp152
(dp153
g18
I1
sg19
I0
sg20
I32
sg21
I0
sg22
I0
sg23
I20
sg24
I0
sbssg25
S'\xec\x94\x84\x1a\x9aM2\xb5p\xca\xa2\x96\x95\x1cq\n'
p154
ssS'src_rockstor_storageadmin_views_update_subscription'
p155
(dp156
g6
(dp157
g8
S'src_rockstor_storageadmin_views_update_subscription.html'
p158
sg10
S'src/rockstor/storageadmin/views/update_subscription'
p159
sg12
g13
(g14
g15
NtRp160
(dp161
g18
I1
sg19
I0
sg20
I68
sg21
I0
sg22
I0
sg23
I47
sg24
I0
sbssg25
S"\x17\x90_\xbf\xa3 \x1e\xce\x03\xe3\xa5\xcf\x04'\x1f\x91"
p162
ssS'src_rockstor_storageadmin_views_pool_balance'
p163
(dp164
g6
(dp165
g8
S'src_rockstor_storageadmin_views_pool_balance.html'
p166
sg10
S'src/rockstor/storageadmin/views/pool_balance'
p167
sg12
g13
(g14
g15
NtRp168
(dp169
g18
I1
sg19
I0
sg20
I67
sg21
I0
sg22
I0
sg23
I47
sg24
I0
sbssg25
S'9x\xa8\xcf\x0f\xaa\xf9\xbf\x81\xed\xc1TJ\xf8\xff='
p170
ssS'src_rockstor_storageadmin_views_pool'
p171
(dp172
g6
(dp173
g8
S'src_rockstor_storageadmin_views_pool.html'
p174
sg10
S'src/rockstor/storageadmin/views/pool'
p175
sg12
g13
(g14
g15
NtRp176
(dp177
g18
I1
sg19
I0
sg20
I294
sg21
I0
sg22
I0
sg23
I263
sg24
I0
sbssg25
S'\xae\x95]\x8bi\xfc,\xa5\xde\n\x0b/\xc3z\xb7\x8b'
p178
ssS'src_rockstor_storageadmin_views_pool_scrub'
p179
(dp180
g6
(dp181
g8
S'src_rockstor_storageadmin_views_pool_scrub.html'
p182
sg10
S'src/rockstor/storageadmin/views/pool_scrub'
p183
sg12
g13
(g14
g15
NtRp184
(dp185
g18
I1
sg19
I0
sg20
I58
sg21
I0
sg22
I0
sg23
I41
sg24
I0
sbssg25
S'\x9a\xef\xa4\x9f\x7f\xb4\xf4\xbeo\xca\x8e\xbeG\xd1N\xae'
p186
ssS'src_rockstor_storageadmin_views_rockon'
p187
(dp188
g6
(dp189
g8
S'src_rockstor_storageadmin_views_rockon.html'
p190
sg10
S'src/rockstor/storageadmin/views/rockon'
p191
sg12
g13
(g14
g15
NtRp192
(dp193
g18
I1
sg19
I0
sg20
I265
sg21
I0
sg22
I0
sg23
I235
sg24
I0
sbssg25
S'\xeb)y\xb12Q\x06W\x8a\x0b\x131Kz];'
p194
ssS'src_rockstor_storageadmin_views_sftp'
p195
(dp196
g6
(dp197
g8
S'src_rockstor_storageadmin_views_sftp.html'
p198
sg10
S'src/rockstor/storageadmin/views/sftp'
p199
sg12
g13
(g14
g15
NtRp200
(dp201
g18
I1
sg19
I0
sg20
I79
sg21
I0
sg22
I0
sg23
I58
sg24
I0
sbssg25
S'\xb9\xf7gA\x0f\x0b\xa9\xe0\xf5\x89\xa2\xf0V\xde\x82\xf6'
p202
ssS'src_rockstor_storageadmin_views_rockon_volume'
p203
(dp204
g6
(dp205
g8
S'src_rockstor_storageadmin_views_rockon_volume.html'
p206
sg10
S'src/rockstor/storageadmin/views/rockon_volume'
p207
sg12
g13
(g14
g15
NtRp208
(dp209
g18
I1
sg19
I0
sg20
I14
sg21
I0
sg22
I0
sg23
I7
sg24
I0
sbssg25
S'\x83:\x8e\x86\xe0\x89\x8e-#\xaa}Hs\xf3N\x04'
p210
ssS'src_rockstor_storageadmin_views_network'
p211
(dp212
g6
(dp213
g8
S'src_rockstor_storageadmin_views_network.html'
p214
sg10
S'src/rockstor/storageadmin/views/network'
p215
sg12
g13
(g14
g15
NtRp216
(dp217
g18
I1
sg19
I0
sg20
I264
sg21
I0
sg22
I0
sg23
I210
sg24
I0
sbssg25
S'\xf4\x0b\r\x9cf\x90\x1d\xd7\x1b\xc9\x83`\x86\xb5Q\xbd'
p218
ssS'src_rockstor_storageadmin_views_email_client'
p219
(dp220
g6
(dp221
g8
S'src_rockstor_storageadmin_views_email_client.html'
p222
sg10
S'src/rockstor/storageadmin/views/email_client'
p223
sg12
g13
(g14
g15
NtRp224
(dp225
g18
I1
sg19
I0
sg20
I111
sg21
I0
sg22
I0
sg23
I80
sg24
I0
sbssg25
S'@>`\xed\x90W\x11n\x888\x80*Z\xbf(\xc3'
p226
ssS'src_rockstor_storageadmin_views_disk_smart'
p227
(dp228
g6
(dp229
g8
S'src_rockstor_storageadmin_views_disk_smart.html'
p230
sg10
S'src/rockstor/storageadmin/views/disk_smart'
p231
sg12
g13
(g14
g15
NtRp232
(dp233
g18
I1
sg19
I0
sg20
I86
sg21
I0
sg22
I0
sg23
I64
sg24
I0
sbssg25
S'.d\xeal\xc4:&\xd2\xfd\x01\x18\xb4\xbbP\x81\xd1'
p234
ssS'src_rockstor_storageadmin_views_share_helpers'
p235
(dp236
g6
(dp237
g8
S'src_rockstor_storageadmin_views_share_helpers.html'
p238
sg10
S'src/rockstor/storageadmin/views/share_helpers'
p239
sg12
g13
(g14
g15
NtRp240
(dp241
g18
I1
sg19
I0
sg20
I106
sg21
I0
sg22
I0
sg23
I91
sg24
I0
sbssg25
S'\xd4\xd6T\xa9\xd5\xc5\xd6N\xe3\xcd\x9b\xa1\x9c\xed\x9a\xaf'
p242
ssS'src_rockstor_storageadmin_views_rockon_custom_config'
p243
(dp244
g6
(dp245
g8
S'src_rockstor_storageadmin_views_rockon_custom_config.html'
p246
sg10
S'src/rockstor/storageadmin/views/rockon_custom_config'
p247
sg12
g13
(g14
g15
NtRp248
(dp249
g18
I1
sg19
I0
sg20
I13
sg21
I0
sg22
I0
sg23
I6
sg24
I0
sbssg25
S'\x89e\x0f\xa0\xdb\x8b$\x9bzVpm8r\x06\t'
p250
ssS'src_rockstor_storageadmin_views_rockon_port'
p251
(dp252
g6
(dp253
g8
S'src_rockstor_storageadmin_views_rockon_port.html'
p254
sg10
S'src/rockstor/storageadmin/views/rockon_port'
p255
sg12
g13
(g14
g15
NtRp256
(dp257
g18
I1
sg19
I0
sg20
I14
sg21
I0
sg22
I0
sg23
I7
sg24
I0
sbssg25
S'\xc8\xe4\xd9fY\x7f?\xad\xa7\xbc\x1c\r\xf1\x11\xd5c'
p258
ssS'src_rockstor_storageadmin_views_login'
p259
(dp260
g6
(dp261
g8
S'src_rockstor_storageadmin_views_login.html'
p262
sg10
S'src/rockstor/storageadmin/views/login'
p263
sg12
g13
(g14
g15
NtRp264
(dp265
g18
I1
sg19
I0
sg20
I19
sg21
I0
sg22
I0
sg23
I10
sg24
I0
sbssg25
S'\xaa\x82\x89\x0f\x9c\xecAJX\x02\x7f\xd4H \xa7r'
p266
ssS'src_rockstor_storageadmin_views_appliances'
p267
(dp268
g6
(dp269
g8
S'src_rockstor_storageadmin_views_appliances.html'
p270
sg10
S'src/rockstor/storageadmin/views/appliances'
p271
sg12
g13
(g14
g15
NtRp272
(dp273
g18
I1
sg19
I0
sg20
I117
sg21
I0
sg22
I0
sg23
I91
sg24
I0
sbssg25
S'\x8e\x13&\x10\x1b\xca\xeaO)\x02\xed\xf0\xa7\x8c\xdb_'
p274
ssS'src_rockstor_storageadmin_views_share'
p275
(dp276
g6
(dp277
g8
S'src_rockstor_storageadmin_views_share.html'
p278
sg10
S'src/rockstor/storageadmin/views/share'
p279
sg12
g13
(g14
g15
NtRp280
(dp281
g18
I1
sg19
I0
sg20
I181
sg21
I0
sg22
I0
sg23
I147
sg24
I0
sbssg25
S'\xaf\xc9>*\xe3\xbf\r\xca\xd8\x1aoo\x10\x18\xbd\xec'
p282
ssS'src_rockstor_storageadmin_views_samba'
p283
(dp284
g6
(dp285
g8
S'src_rockstor_storageadmin_views_samba.html'
p286
sg10
S'src/rockstor/storageadmin/views/samba'
p287
sg12
g13
(g14
g15
NtRp288
(dp289
g18
I1
sg19
I0
sg20
I159
sg21
I0
sg22
I0
sg23
I130
sg24
I0
sbssg25
S'\xef\x9f\x99u\xc8\xe5z\x06x\xb9\xea\xc9\xa6\xb4\x0e\xb3'
p290
ssS'src_rockstor_storageadmin_views_config_backup'
p291
(dp292
g6
(dp293
g8
S'src_rockstor_storageadmin_views_config_backup.html'
p294
sg10
S'src/rockstor/storageadmin/views/config_backup'
p295
sg12
g13
(g14
g15
NtRp296
(dp297
g18
I1
sg19
I0
sg20
I206
sg21
I0
sg22
I0
sg23
I163
sg24
I0
sbssg25
S'\xfc\x1d`j#\x118\xb0\x02\xf8@\xff)\xfe\x17?'
p298
ssS'src_rockstor_storageadmin_views_group'
p299
(dp300
g6
(dp301
g8
S'src_rockstor_storageadmin_views_group.html'
p302
sg10
S'src/rockstor/storageadmin/views/group'
p303
sg12
g13
(g14
g15
NtRp304
(dp305
g18
I1
sg19
I0
sg20
I77
sg21
I0
sg22
I0
sg23
I55
sg24
I0
sbssg25
S'\x88@\xd6\x07\x0c]\x91\xb2\xb0z}\xc3\xbc=\xdbM'
p306
ssS'src_rockstor_storageadmin_views_rockon_environment'
p307
(dp308
g6
(dp309
g8
S'src_rockstor_storageadmin_views_rockon_environment.html'
p310
sg10
S'src/rockstor/storageadmin/views/rockon_environment'
p311
sg12
g13
(g14
g15
NtRp312
(dp313
g18
I1
sg19
I0
sg20
I14
sg21
I0
sg22
I0
sg23
I7
sg24
I0
sbssg25
S'\xca\xd7\x11i\xf0\xf6\xf8/Z\x14\x8e\xaa^\x9dB\x0f'
p314
ssS'src_rockstor_storageadmin_views_share_command'
p315
(dp316
g6
(dp317
g8
S'src_rockstor_storageadmin_views_share_command.html'
p318
sg10
S'src/rockstor/storageadmin/views/share_command'
p319
sg12
g13
(g14
g15
NtRp320
(dp321
g18
I1
sg19
I0
sg20
I49
sg21
I0
sg22
I0
sg23
I30
sg24
I0
sbssg25
S'\xfb{\xe8P\xc1w\xc5\x9b\xe2\xad\xf4\x0cdq\xf6q'
p322
ssS'src_rockstor_storageadmin_views_share_acl'
p323
(dp324
g6
(dp325
g8
S'src_rockstor_storageadmin_views_share_acl.html'
p326
sg10
S'src/rockstor/storageadmin/views/share_acl'
p327
sg12
g13
(g14
g15
NtRp328
(dp329
g18
I1
sg19
I0
sg20
I34
sg21
I0
sg22
I0
sg23
I22
sg24
I0
sbssg25
S'Ag\xdb\r\x7f\xe7\xa8rK,h8\xcb\xb8yQ'
p330
ssS'src_rockstor_storageadmin_views_dashboardconfig'
p331
(dp332
g6
(dp333
g8
S'src_rockstor_storageadmin_views_dashboardconfig.html'
p334
sg10
S'src/rockstor/storageadmin/views/dashboardconfig'
p335
sg12
g13
(g14
g15
NtRp336
(dp337
g18
I1
sg19
I0
sg20
I54
sg21
I0
sg22
I0
sg23
I35
sg24
I0
sbssg25
S'*\x0c\xc7l\x84t\xd59R\xb1\x0b\xe7Fsk\xd7'
p338
ssS'src_rockstor_storageadmin_views_rockon_discourse'
p339
(dp340
g6
(dp341
g8
S'src_rockstor_storageadmin_views_rockon_discourse.html'
p342
sg10
S'src/rockstor/storageadmin/views/rockon_discourse'
p343
sg12
g13
(g14
g15
NtRp344
(dp345
g18
I1
sg19
I0
sg20
I74
sg21
I0
sg22
I0
sg23
I57
sg24
I0
sbssg25
S"\xf7\xb5\xcer\xef\xdb'b[\n\xb0R\x97\x1c\x1e\xbb"
p346
ssS'src_rockstor_storageadmin_views_home'
p347
(dp348
g6
(dp349
g8
S'src_rockstor_storageadmin_views_home.html'
p350
sg10
S'src/rockstor/storageadmin/views/home'
p351
sg12
g13
(g14
g15
NtRp352
(dp353
g18
I1
sg19
I0
sg20
I36
sg21
I0
sg22
I0
sg23
I24
sg24
I0
sbssg25
S'\x0b\x8c\xa5KzED\xa8\xda\t@\x8a\xf7\xab\x01\xd5'
p354
sssS'version'
p355
S'3.7.1'
p356
sS'settings'
p357
S'9H\x0b\x05r=\xa7\xf2\x08\x88\xddD\xe6\x89)\xfd'
p358
sS'format'
p359
I1
s.