(dp1
S'files'
p2
(dp3
S'src_rockstor_storageadmin_views_rockon_id'
p4
(dp5
S'index'
p6
(dp7
S'html_filename'
p8
S'src_rockstor_storageadmin_views_rockon_id.html'
p9
sS'name'
p10
S'src/rockstor/storageadmin/views/rockon_id'
p11
sS'nums'
p12
ccopy_reg
_reconstructor
p13
(ccoverage.results
Numbers
p14
c__builtin__
object
p15
NtRp16
(dp17
S'n_files'
p18
I1
sS'n_branches'
p19
I0
sS'n_statements'
p20
I139
sS'n_excluded'
p21
I0
sS'n_partial_branches'
p22
I0
sS'n_missing'
p23
I122
sS'n_missing_branches'
p24
I0
sbssS'hash'
p25
S'\xb9\xd6\xd8V\xe1\x92\xc4\x8d\x87\xe5\xcc.\xb4[\x8a['
p26
ssS'src_rockstor_storageadmin_views___init__'
p27
(dp28
g6
(dp29
S'html_filename'
p30
S'src_rockstor_storageadmin_views___init__.html'
p31
sS'name'
p32
S'src/rockstor/storageadmin/views/__init__'
p33
sS'nums'
p34
g13
(g14
g15
NtRp35
(dp36
g18
I1
sg19
I0
sg20
I34
sg21
I0
sg22
I0
sg23
I0
sg24
I0
sbssg25
S'5\x14\xe8\xa86\xffo\x13S\xfdH\xcf\xe1\xf4\x85\xba'
p37
ssS'src_rockstor_storageadmin_views_ug_helpers'
p38
(dp39
g6
(dp40
g30
S'src_rockstor_storageadmin_views_ug_helpers.html'
p41
sg32
S'src/rockstor/storageadmin/views/ug_helpers'
p42
sg34
g13
(g14
g15
NtRp43
(dp44
g18
I1
sg19
I0
sg20
I61
sg21
I0
sg22
I0
sg23
I33
sg24
I0
sbssg25
S'E\x9f{\x89\x1f%\xe2\xd1_!vq\xec\xd7F='
p45
ssS'src_rockstor_storageadmin_views_adv_nfs_exports'
p46
(dp47
g6
(dp48
g30
S'src_rockstor_storageadmin_views_adv_nfs_exports.html'
p49
sg32
S'src/rockstor/storageadmin/views/adv_nfs_exports'
p50
sg34
g13
(g14
g15
NtRp51
(dp52
g18
I1
sg19
I0
sg20
I45
sg21
I0
sg22
I0
sg23
I32
sg24
I0
sbssg25
S'7\xe6\xbc\xce\xb4\xe1\xc6\xeb\r\xfe\x9f`\xfc\xbbe\x7f'
p53
ssS'src_rockstor_storageadmin_views_tls_certificate'
p54
(dp55
g6
(dp56
g30
S'src_rockstor_storageadmin_views_tls_certificate.html'
p57
sg32
S'src/rockstor/storageadmin/views/tls_certificate'
p58
sg34
g13
(g14
g15
NtRp59
(dp60
g18
I1
sg19
I0
sg20
I53
sg21
I0
sg22
I0
sg23
I35
sg24
I0
sbssg25
S'\xa8\x16s \x96\xe9\x9b\xb5\xbd\xa9_9X\xbc\xd3C'
p61
ssS'src_rockstor_storageadmin_views_oauth_app'
p62
(dp63
g6
(dp64
g30
S'src_rockstor_storageadmin_views_oauth_app.html'
p65
sg32
S'src/rockstor/storageadmin/views/oauth_app'
p66
sg34
g13
(g14
g15
NtRp67
(dp68
g18
I1
sg19
I0
sg20
I47
sg21
I0
sg22
I0
sg23
I34
sg24
I0
sbssg25
S'\te\xa1#\x04\xe9;\xf7\x05\xaf\xea\xcc\x13*7S'
p69
ssS'src_rockstor_storageadmin_views_share_command'
p70
(dp71
g6
(dp72
g30
S'src_rockstor_storageadmin_views_share_command.html'
p73
sg32
S'src/rockstor/storageadmin/views/share_command'
p74
sg34
g13
(g14
g15
NtRp75
(dp76
g18
I1
sg19
I0
sg20
I50
sg21
I0
sg22
I0
sg23
I0
sg24
I0
sbssg25
S'\x19;\xce\xa0x\xcc\xa6\x9cm\x8c\x0c\x0bh\x15\xed/'
p77
ssS'src_rockstor_storageadmin_views_disk'
p78
(dp79
g6
(dp80
g30
S'src_rockstor_storageadmin_views_disk.html'
p81
sg32
S'src/rockstor/storageadmin/views/disk'
p82
sg34
g13
(g14
g15
NtRp83
(dp84
g18
I1
sg19
I0
sg20
I161
sg21
I0
sg22
I0
sg23
I86
sg24
I0
sbssg25
S'\r\xaa\x93\xd5\xe3\xed\xa7\xdc\x94\x06E\x9d\x08\x8aAR'
p85
ssS'src_rockstor_storageadmin_views_nfs_exports'
p86
(dp87
g6
(dp88
g30
S'src_rockstor_storageadmin_views_nfs_exports.html'
p89
sg32
S'src/rockstor/storageadmin/views/nfs_exports'
p90
sg34
g13
(g14
g15
NtRp91
(dp92
g18
I1
sg19
I0
sg20
I108
sg21
I0
sg22
I0
sg23
I87
sg24
I0
sbssg25
S'\xa5\x04\x8e\x19\xc1\xd7\xfc\x18\x85\xcf\xae\xea\x15\xcc8}'
p93
ssS'src_rockstor_storageadmin_views_netatalk'
p94
(dp95
g6
(dp96
g30
S'src_rockstor_storageadmin_views_netatalk.html'
p97
sg32
S'src/rockstor/storageadmin/views/netatalk'
p98
sg34
g13
(g14
g15
NtRp99
(dp100
g18
I1
sg19
I0
sg20
I95
sg21
I0
sg22
I0
sg23
I70
sg24
I0
sbssg25
S'e\xd6\t\xa02J\xc2\xe6d\xd8\t%\xf1\xc5}\xe2'
p101
ssS'src_rockstor_storageadmin_views_snapshot'
p102
(dp103
g6
(dp104
g8
S'src_rockstor_storageadmin_views_snapshot.html'
p105
sg10
S'src/rockstor/storageadmin/views/snapshot'
p106
sg12
g13
(g14
g15
NtRp107
(dp108
g18
I1
sg19
I0
sg20
I184
sg21
I0
sg22
I0
sg23
I155
sg24
I0
sbssg25
S'\xcd!v\x11\x82\xe2q/\xfd5\xa9\x00@\xac\x16\xe0'
p109
ssS'src_rockstor_storageadmin_views_pool_import'
p110
(dp111
g6
(dp112
g30
S'src_rockstor_storageadmin_views_pool_import.html'
p113
sg32
S'src/rockstor/storageadmin/views/pool_import'
p114
sg34
g13
(g14
g15
NtRp115
(dp116
g18
I1
sg19
I0
sg20
I70
sg21
I0
sg22
I0
sg23
I70
sg24
I0
sbssg25
S'\x91\xaa\x7f2\xef\xcb\xf3M\xec\xacoM%C\x12\xda'
p117
ssS'src_rockstor_storageadmin_views_user'
p118
(dp119
g6
(dp120
g30
S'src_rockstor_storageadmin_views_user.html'
p121
sg32
S'src/rockstor/storageadmin/views/user'
p122
sg34
g13
(g14
g15
NtRp123
(dp124
g18
I1
sg19
I0
sg20
I214
sg21
I0
sg22
I0
sg23
I113
sg24
I0
sbssg25
S'\xd6\xa6\x92X9\x87&\xfaZ\xdb\xb5mI,\xfe\xbb'
p125
ssS'src_rockstor_storageadmin_views_views'
p126
(dp127
g6
(dp128
g30
S'src_rockstor_storageadmin_views_views.html'
p129
sg32
S'src/rockstor/storageadmin/views/views'
p130
sg34
g13
(g14
g15
NtRp131
(dp132
g18
I1
sg19
I0
sg20
I0
sg21
I0
sg22
I0
sg23
I0
sg24
I0
sbssg25
S'{\xd99q\x98)\xfekT\xb8H7M\x1c\x94\xba'
p133
ssS'src_rockstor_storageadmin_views_rockon_helpers'
p134
(dp135
g6
(dp136
g8
S'src_rockstor_storageadmin_views_rockon_helpers.html'
p137
sg10
S'src/rockstor/storageadmin/views/rockon_helpers'
p138
sg12
g13
(g14
g15
NtRp139
(dp140
g18
I1
sg19
I0
sg20
I194
sg21
I0
sg22
I0
sg23
I161
sg24
I0
sbssg25
S'.M\x83HL\xda4\xcd\xc5W\x07F.\x15t\xec'
p141
ssS'src_rockstor_storageadmin_views_clone_helpers'
p142
(dp143
g6
(dp144
g30
S'src_rockstor_storageadmin_views_clone_helpers.html'
p145
sg32
S'src/rockstor/storageadmin/views/clone_helpers'
p146
sg34
g13
(g14
g15
NtRp147
(dp148
g18
I1
sg19
I0
sg20
I32
sg21
I0
sg22
I0
sg23
I24
sg24
I0
sbssg25
S'\x80\x18|U\xe2\xa5\x999\xef\xb8G\xc2\xbf\xe2\x0c\x88'
p149
ssS'src_rockstor_storageadmin_views_serializers'
p150
(dp151
g6
(dp152
g30
S'src_rockstor_storageadmin_views_serializers.html'
p153
sg32
S'src/rockstor/storageadmin/views/serializers'
p154
sg34
g13
(g14
g15
NtRp155
(dp156
g18
I1
sg19
I0
sg20
I8
sg21
I0
sg22
I0
sg23
I8
sg24
I0
sbssg25
S'B\x91_\xf9\x1d\x8bsBs\xff\xce\xc0\x83[cn'
p157
ssS'src_rockstor_storageadmin_views_setup_user'
p158
(dp159
g6
(dp160
g30
S'src_rockstor_storageadmin_views_setup_user.html'
p161
sg32
S'src/rockstor/storageadmin/views/setup_user'
p162
sg34
g13
(g14
g15
NtRp163
(dp164
g18
I1
sg19
I0
sg20
I32
sg21
I0
sg22
I0
sg23
I20
sg24
I0
sbssg25
S'\xec\x94\x84\x1a\x9aM2\xb5p\xca\xa2\x96\x95\x1cq\n'
p165
ssS'src_rockstor_storageadmin_views_share_iscsi'
p166
(dp167
g6
(dp168
g30
S'src_rockstor_storageadmin_views_share_iscsi.html'
p169
sg32
S'src/rockstor/storageadmin/views/share_iscsi'
p170
sg34
g13
(g14
g15
NtRp171
(dp172
g18
I1
sg19
I0
sg20
I59
sg21
I0
sg22
I0
sg23
I43
sg24
I0
sbssg25
S'0\x04\xd3SN\x0c\xa6\x96\xadx^\xa1\xaa\xd8 \x0b'
p173
ssS'src_rockstor_storageadmin_views_pool_balance'
p174
(dp175
g6
(dp176
g30
S'src_rockstor_storageadmin_views_pool_balance.html'
p177
sg32
S'src/rockstor/storageadmin/views/pool_balance'
p178
sg34
g13
(g14
g15
NtRp179
(dp180
g18
I1
sg19
I0
sg20
I56
sg21
I0
sg22
I0
sg23
I39
sg24
I0
sbssg25
S'\x07\x17\x19.?\x9aP=[\xe8\xad\x88\x8a\xc7\xfeB'
p181
ssS'src_rockstor_storageadmin_views_pool'
p182
(dp183
g6
(dp184
g30
S'src_rockstor_storageadmin_views_pool.html'
p185
sg32
S'src/rockstor/storageadmin/views/pool'
p186
sg34
g13
(g14
g15
NtRp187
(dp188
g18
I1
sg19
I0
sg20
I291
sg21
I0
sg22
I0
sg23
I57
sg24
I0
sbssg25
S'1\xbeQ2\\{\x19Sd\xc8R_\x1e\xd0\x95,'
p189
ssS'src_rockstor_storageadmin_views_pool_scrub'
p190
(dp191
g6
(dp192
g30
S'src_rockstor_storageadmin_views_pool_scrub.html'
p193
sg32
S'src/rockstor/storageadmin/views/pool_scrub'
p194
sg34
g13
(g14
g15
NtRp195
(dp196
g18
I1
sg19
I0
sg20
I60
sg21
I0
sg22
I0
sg23
I43
sg24
I0
sbssg25
S'\xfe\xf2\x8c\xe6Q\x0f\x9b\xdd\x00dX|\x003\x87w'
p197
ssS'src_rockstor_storageadmin_views_rockon'
p198
(dp199
g6
(dp200
g8
S'src_rockstor_storageadmin_views_rockon.html'
p201
sg10
S'src/rockstor/storageadmin/views/rockon'
p202
sg12
g13
(g14
g15
NtRp203
(dp204
g18
I1
sg19
I0
sg20
I167
sg21
I0
sg22
I0
sg23
I146
sg24
I0
sbssg25
S'r\x10\x82\x00\xd4\xba\x0f\x91N\xe9\\\x05p\x7f\xe9\t'
p205
ssS'src_rockstor_storageadmin_views_sftp'
p206
(dp207
g6
(dp208
g30
S'src_rockstor_storageadmin_views_sftp.html'
p209
sg32
S'src/rockstor/storageadmin/views/sftp'
p210
sg34
g13
(g14
g15
NtRp211
(dp212
g18
I1
sg19
I0
sg20
I79
sg21
I0
sg22
I0
sg23
I58
sg24
I0
sbssg25
S'\xb9\xf7gA\x0f\x0b\xa9\xe0\xf5\x89\xa2\xf0V\xde\x82\xf6'
p213
ssS'src_rockstor_storageadmin_views_rockon_json'
p214
(dp215
S'index'
p216
(dp217
g8
S'src_rockstor_storageadmin_views_rockon_json.html'
p218
sg10
S'src/rockstor/storageadmin/views/rockon_json'
p219
sg12
g13
(g14
g15
NtRp220
(dp221
g18
I1
sg19
I0
sg20
I10
sg21
I0
sg22
I0
sg23
I10
sg24
I0
sbssS'hash'
p222
S'\x94e7;8\xa8\xd7\x97Sav@\x0e\x91-)'
p223
ssS'src_rockstor_storageadmin_views_rockon_volume'
p224
(dp225
g6
(dp226
g30
S'src_rockstor_storageadmin_views_rockon_volume.html'
p227
sg32
S'src/rockstor/storageadmin/views/rockon_volume'
p228
sg34
g13
(g14
g15
NtRp229
(dp230
g18
I1
sg19
I0
sg20
I14
sg21
I0
sg22
I0
sg23
I7
sg24
I0
sbssg25
S"b\x81\xfc:\xc84|\xeb1\x9bHb'R\xe8K"
p231
ssS'src_rockstor_storageadmin_views_network'
p232
(dp233
g6
(dp234
g30
S'src_rockstor_storageadmin_views_network.html'
p235
sg32
S'src/rockstor/storageadmin/views/network'
p236
sg34
g13
(g14
g15
NtRp237
(dp238
g18
I1
sg19
I0
sg20
I122
sg21
I0
sg22
I0
sg23
I94
sg24
I0
sbssg25
S'\x15Z\x11"O7Tn\xd4\x95c6\xd2\xac\xef\xd6'
p239
ssS'src_rockstor_storageadmin_views_command'
p240
(dp241
g6
(dp242
g30
S'src_rockstor_storageadmin_views_command.html'
p243
sg32
S'src/rockstor/storageadmin/views/command'
p244
sg34
g13
(g14
g15
NtRp245
(dp246
g18
I1
sg19
I0
sg20
I184
sg21
I0
sg22
I0
sg23
I159
sg24
I0
sbssg25
S'\xb6\xeb\xbe\x8ef%\x87\xd9B\x03\xe9b\\\xa8\x0c-'
p247
ssS'src_rockstor_storageadmin_views_support'
p248
(dp249
g6
(dp250
g30
S'src_rockstor_storageadmin_views_support.html'
p251
sg32
S'src/rockstor/storageadmin/views/support'
p252
sg34
g13
(g14
g15
NtRp253
(dp254
g18
I1
sg19
I0
sg20
I74
sg21
I0
sg22
I0
sg23
I49
sg24
I0
sbssg25
S'\xbdKJ\xfd\x10d\xf2\xd6&%\x7f!\x19w\x14\xe2'
p255
ssS'src_rockstor_storageadmin_views_disk_smart'
p256
(dp257
g6
(dp258
g30
S'src_rockstor_storageadmin_views_disk_smart.html'
p259
sg32
S'src/rockstor/storageadmin/views/disk_smart'
p260
sg34
g13
(g14
g15
NtRp261
(dp262
g18
I1
sg19
I0
sg20
I86
sg21
I0
sg22
I0
sg23
I64
sg24
I0
sbssg25
S'_\xbe\x00\xa6\xb4Z1\x1c:\x12J\xd8\x05\xa6\xf0&'
p263
ssS'src_rockstor_storageadmin_views_share_helpers'
p264
(dp265
g6
(dp266
g30
S'src_rockstor_storageadmin_views_share_helpers.html'
p267
sg32
S'src/rockstor/storageadmin/views/share_helpers'
p268
sg34
g13
(g14
g15
NtRp269
(dp270
g18
I1
sg19
I0
sg20
I35
sg21
I0
sg22
I0
sg23
I25
sg24
I0
sbssg25
S'I\x81\xcfL\xfa\x9a\xf3\x03\xd4/\x0e\xa0/J\xa1{'
p271
ssS'src_rockstor_storageadmin_views_rockon_custom_config'
p272
(dp273
g6
(dp274
g30
S'src_rockstor_storageadmin_views_rockon_custom_config.html'
p275
sg32
S'src/rockstor/storageadmin/views/rockon_custom_config'
p276
sg34
g13
(g14
g15
NtRp277
(dp278
g18
I1
sg19
I0
sg20
I13
sg21
I0
sg22
I0
sg23
I6
sg24
I0
sbssg25
S'r\xd7n\x99\x11GR\xa3\x19v\xd9\x16\xcf\xb1V\xe6'
p279
ssS'src_rockstor_storageadmin_views_share_nfs'
p280
(dp281
g6
(dp282
g30
S'src_rockstor_storageadmin_views_share_nfs.html'
p283
sg32
S'src/rockstor/storageadmin/views/share_nfs'
p284
sg34
g13
(g14
g15
NtRp285
(dp286
g18
I1
sg19
I0
sg20
I81
sg21
I0
sg22
I0
sg23
I61
sg24
I0
sbssg25
S'\x00|\x02fu\x1a\xcbr\xf3\xaco}\xfa\xe5\xc0\xb5'
p287
ssS'src_rockstor_storageadmin_views_rockon_port'
p288
(dp289
g6
(dp290
g30
S'src_rockstor_storageadmin_views_rockon_port.html'
p291
sg32
S'src/rockstor/storageadmin/views/rockon_port'
p292
sg34
g13
(g14
g15
NtRp293
(dp294
g18
I1
sg19
I0
sg20
I14
sg21
I0
sg22
I0
sg23
I7
sg24
I0
sbssg25
S'\xda\xe3\x0f@\xd0sN\x8au\xb5\x9a\x15=\xee(R'
p295
ssS'src_rockstor_storageadmin_views_login'
p296
(dp297
g6
(dp298
g30
S'src_rockstor_storageadmin_views_login.html'
p299
sg32
S'src/rockstor/storageadmin/views/login'
p300
sg34
g13
(g14
g15
NtRp301
(dp302
g18
I1
sg19
I0
sg20
I19
sg21
I0
sg22
I0
sg23
I10
sg24
I0
sbssg25
S'\xaa\x82\x89\x0f\x9c\xecAJX\x02\x7f\xd4H \xa7r'
p303
ssS'src_rockstor_storageadmin_views_appliances'
p304
(dp305
g6
(dp306
g30
S'src_rockstor_storageadmin_views_appliances.html'
p307
sg32
S'src/rockstor/storageadmin/views/appliances'
p308
sg34
g13
(g14
g15
NtRp309
(dp310
g18
I1
sg19
I0
sg20
I114
sg21
I0
sg22
I0
sg23
I90
sg24
I0
sbssg25
S'\t\xf6\x94\xad\x1dZ`v\x9a\x01m\x1e6\xacV\xbb'
p311
ssS'src_rockstor_storageadmin_views_nfs_helpers'
p312
(dp313
g6
(dp314
g30
S'src_rockstor_storageadmin_views_nfs_helpers.html'
p315
sg32
S'src/rockstor/storageadmin/views/nfs_helpers'
p316
sg34
g13
(g14
g15
NtRp317
(dp318
g18
I1
sg19
I0
sg20
I87
sg21
I0
sg22
I0
sg23
I73
sg24
I0
sbssg25
S'\x9c\xa3\x89Z\x91R\xb8u\xeb\x17\\\xce[\xbamR'
p319
ssS'src_rockstor_storageadmin_views_share'
p320
(dp321
g6
(dp322
g30
S'src_rockstor_storageadmin_views_share.html'
p323
sg32
S'src/rockstor/storageadmin/views/share'
p324
sg34
g13
(g14
g15
NtRp325
(dp326
g18
I1
sg19
I0
sg20
I215
sg21
I0
sg22
I0
sg23
I85
sg24
I0
sbssg25
S'\xf3\xe6\x1d\xae\x1d\xb7JZ\x8a\x0c\xfe\t\xd6\xab\x14\x14'
p327
ssS'src_rockstor_storageadmin_views_samba'
p328
(dp329
g6
(dp330
g30
S'src_rockstor_storageadmin_views_samba.html'
p331
sg32
S'src/rockstor/storageadmin/views/samba'
p332
sg34
g13
(g14
g15
NtRp333
(dp334
g18
I1
sg19
I0
sg20
I148
sg21
I0
sg22
I0
sg23
I0
sg24
I0
sbssg25
S'Bc\x92\x1fws7\xads\xfe\xaa>\xa4\x95\xacc'
p335
ssS'src_rockstor_storageadmin_views_group'
p336
(dp337
g6
(dp338
g30
S'src_rockstor_storageadmin_views_group.html'
p339
sg32
S'src/rockstor/storageadmin/views/group'
p340
sg34
g13
(g14
g15
NtRp341
(dp342
g18
I1
sg19
I0
sg20
I71
sg21
I0
sg22
I0
sg23
I24
sg24
I0
sbssg25
S'`\x98\n#\x8d\x0b_\xfd\x99]Egi\xb2\x83\xb3'
p343
ssS'src_rockstor_storageadmin_views_share_acl'
p344
(dp345
g6
(dp346
g30
S'src_rockstor_storageadmin_views_share_acl.html'
p347
sg32
S'src/rockstor/storageadmin/views/share_acl'
p348
sg34
g13
(g14
g15
NtRp349
(dp350
g18
I1
sg19
I0
sg20
I35
sg21
I0
sg22
I0
sg23
I23
sg24
I0
sbssg25
S'\xaa\xa4I\xa2\xfd!W\xc4\xc9\xdfc\x9cRX4\x89'
p351
ssS'src_rockstor_storageadmin_views_dashboardconfig'
p352
(dp353
g6
(dp354
g30
S'src_rockstor_storageadmin_views_dashboardconfig.html'
p355
sg32
S'src/rockstor/storageadmin/views/dashboardconfig'
p356
sg34
g13
(g14
g15
NtRp357
(dp358
g18
I1
sg19
I0
sg20
I54
sg21
I0
sg22
I0
sg23
I35
sg24
I0
sbssg25
S'*\x0c\xc7l\x84t\xd59R\xb1\x0b\xe7Fsk\xd7'
p359
ssS'src_rockstor_storageadmin_views_home'
p360
(dp361
g6
(dp362
g30
S'src_rockstor_storageadmin_views_home.html'
p363
sg32
S'src/rockstor/storageadmin/views/home'
p364
sg34
g13
(g14
g15
NtRp365
(dp366
g18
I1
sg19
I0
sg20
I36
sg21
I0
sg22
I0
sg23
I24
sg24
I0
sbssg25
S'\xff\xed\xfb\x960(\x82Q\x9dp\xcd\x1a{o\x8d\x0f'
p367
sssS'version'
p368
S'3.7.1'
p369
sS'settings'
p370
S"'z\x99]\x0b<UV>3/\xde\x16fF\xdf"
p371
sS'format'
p372
I1
s.