(dp1
S'files'
p2
(dp3
S'src_rockstor_storageadmin_views_rockon_id'
p4
(dp5
S'index'
p6
(dp7
S'html_filename'
p8
S'src_rockstor_storageadmin_views_rockon_id.html'
p9
sS'name'
p10
S'src/rockstor/storageadmin/views/rockon_id'
p11
sS'nums'
p12
ccopy_reg
_reconstructor
p13
(ccoverage.results
Numbers
p14
c__builtin__
object
p15
NtRp16
(dp17
S'n_files'
p18
I1
sS'n_branches'
p19
I0
sS'n_statements'
p20
I160
sS'n_excluded'
p21
I0
sS'n_partial_branches'
p22
I0
sS'n_missing'
p23
I160
sS'n_missing_branches'
p24
I0
sbssS'hash'
p25
S'~\x12\xfc\xc9\x99\x80+\x08C\x8d\x94H\x80>\xe1B'
p26
ssS'src_rockstor_storageadmin_views___init__'
p27
(dp28
g6
(dp29
g8
S'src_rockstor_storageadmin_views___init__.html'
p30
sg10
S'src/rockstor/storageadmin/views/__init__'
p31
sg12
g13
(g14
g15
NtRp32
(dp33
g18
I1
sg19
I0
sg20
I33
sg21
I0
sg22
I0
sg23
I33
sg24
I0
sbssg25
S'S\x86\xafz\xea\x87X\x04\xa9\xfa\x96\xbbN+"\xba'
p34
ssS'src_rockstor_storageadmin_views_ug_helpers'
p35
(dp36
g6
(dp37
g8
S'src_rockstor_storageadmin_views_ug_helpers.html'
p38
sg10
S'src/rockstor/storageadmin/views/ug_helpers'
p39
sg12
g13
(g14
g15
NtRp40
(dp41
g18
I1
sg19
I0
sg20
I63
sg21
I0
sg22
I0
sg23
I63
sg24
I0
sbssg25
S'"Z\xcb\x98\xd3\x89\xf9\xd5\x12%\xfd\xdfF\xa2\xb5\xcc'
p42
ssS'src_rockstor_storageadmin_views_email_client'
p43
(dp44
g6
(dp45
g8
S'src_rockstor_storageadmin_views_email_client.html'
p46
sg10
S'src/rockstor/storageadmin/views/email_client'
p47
sg12
g13
(g14
g15
NtRp48
(dp49
g18
I1
sg19
I0
sg20
I111
sg21
I0
sg22
I0
sg23
I111
sg24
I0
sbssg25
S'\x13\xb1\x8f\xcda=\xa1\xed\xf35zX\xc8\x05\x08*'
p50
ssS'src_rockstor_storageadmin_views_share'
p51
(dp52
g6
(dp53
S'html_filename'
p54
S'src_rockstor_storageadmin_views_share.html'
p55
sS'name'
p56
S'src/rockstor/storageadmin/views/share'
p57
sS'nums'
p58
g13
(g14
g15
NtRp59
(dp60
g18
I1
sg19
I0
sg20
I183
sg21
I0
sg22
I0
sg23
I183
sg24
I0
sbssg25
S'\x11\x0e\xfet\xa8~\x10\xba\xc3\xb3w\xd2Lg\xecs'
p61
ssS'src_rockstor_storageadmin_views_tls_certificate'
p62
(dp63
g6
(dp64
g8
S'src_rockstor_storageadmin_views_tls_certificate.html'
p65
sg10
S'src/rockstor/storageadmin/views/tls_certificate'
p66
sg12
g13
(g14
g15
NtRp67
(dp68
g18
I1
sg19
I0
sg20
I53
sg21
I0
sg22
I0
sg23
I53
sg24
I0
sbssg25
S'\x8c\xab\x01p*\xf6}0\x91\xd5\x0ez\xef6\xee\x10'
p69
ssS'src_rockstor_storageadmin_views_oauth_app'
p70
(dp71
g6
(dp72
g8
S'src_rockstor_storageadmin_views_oauth_app.html'
p73
sg10
S'src/rockstor/storageadmin/views/oauth_app'
p74
sg12
g13
(g14
g15
NtRp75
(dp76
g18
I1
sg19
I0
sg20
I51
sg21
I0
sg22
I0
sg23
I51
sg24
I0
sbssg25
S'zI-\x8c\x9a\x07F\x9cA\x8b\xed\xc6\x87\x81\xae\x10'
p77
ssS'src_rockstor_storageadmin_views_netatalk'
p78
(dp79
g6
(dp80
g8
S'src_rockstor_storageadmin_views_netatalk.html'
p81
sg10
S'src/rockstor/storageadmin/views/netatalk'
p82
sg12
g13
(g14
g15
NtRp83
(dp84
g18
I1
sg19
I0
sg20
I93
sg21
I0
sg22
I0
sg23
I93
sg24
I0
sbssg25
S'\xf0\x9f(6\xdc\xf0\xee\xc9\xb1\xff\xe6$b\xd10|'
p85
ssS'src_rockstor_storageadmin_views_clone_helpers'
p86
(dp87
g6
(dp88
g8
S'src_rockstor_storageadmin_views_clone_helpers.html'
p89
sg10
S'src/rockstor/storageadmin/views/clone_helpers'
p90
sg12
g13
(g14
g15
NtRp91
(dp92
g18
I1
sg19
I0
sg20
I31
sg21
I0
sg22
I0
sg23
I31
sg24
I0
sbssg25
S'H\xf6\x04\xa3\x1e4\xbd\xb7\xd5\xcb+U\xefj\xe4\x08'
p93
ssS'src_rockstor_storageadmin_views_rockon_json'
p94
(dp95
g6
(dp96
g8
S'src_rockstor_storageadmin_views_rockon_json.html'
p97
sg10
S'src/rockstor/storageadmin/views/rockon_json'
p98
sg12
g13
(g14
g15
NtRp99
(dp100
g18
I1
sg19
I0
sg20
I10
sg21
I0
sg22
I0
sg23
I10
sg24
I0
sbssg25
S'\xdb&\x14\xd7\x1cP\x82\xa2\x10\xd3TM\r\xa9TP'
p101
ssS'src_rockstor_storageadmin_views_snapshot'
p102
(dp103
g6
(dp104
g8
S'src_rockstor_storageadmin_views_snapshot.html'
p105
sg10
S'src/rockstor/storageadmin/views/snapshot'
p106
sg12
g13
(g14
g15
NtRp107
(dp108
g18
I1
sg19
I0
sg20
I155
sg21
I0
sg22
I0
sg23
I155
sg24
I0
sbssg25
S'6p\xd8\x84rG^ds"\xa2NS\xe1\x89H'
p109
ssS'src_rockstor_storageadmin_views_user'
p110
(dp111
g6
(dp112
g8
S'src_rockstor_storageadmin_views_user.html'
p113
sg10
S'src/rockstor/storageadmin/views/user'
p114
sg12
g13
(g14
g15
NtRp115
(dp116
g18
I1
sg19
I0
sg20
I214
sg21
I0
sg22
I0
sg23
I214
sg24
I0
sbssg25
S'\x16Cw\x1b\xad\xc6\xe3J\x19\xbb\xbfA\xd4\x8f\x92\xc7'
p117
ssS'src_rockstor_storageadmin_views_views'
p118
(dp119
g6
(dp120
g8
S'src_rockstor_storageadmin_views_views.html'
p121
sg10
S'src/rockstor/storageadmin/views/views'
p122
sg12
g13
(g14
g15
NtRp123
(dp124
g18
I1
sg19
I0
sg20
I0
sg21
I0
sg22
I0
sg23
I0
sg24
I0
sbssg25
S'{\xd99q\x98)\xfekT\xb8H7M\x1c\x94\xba'
p125
ssS'src_rockstor_storageadmin_views_rockon_helpers'
p126
(dp127
g6
(dp128
g8
S'src_rockstor_storageadmin_views_rockon_helpers.html'
p129
sg10
S'src/rockstor/storageadmin/views/rockon_helpers'
p130
sg12
g13
(g14
g15
NtRp131
(dp132
g18
I1
sg19
I0
sg20
I195
sg21
I0
sg22
I0
sg23
I195
sg24
I0
sbssg25
S'\xf68\xca\xd5`\xf7\x89\xe9\xc6\x80\x07\x02\xd6\xf5\xd2\xcc'
p133
ssS'src_rockstor_storageadmin_views_disk_smart'
p134
(dp135
g6
(dp136
g8
S'src_rockstor_storageadmin_views_disk_smart.html'
p137
sg10
S'src/rockstor/storageadmin/views/disk_smart'
p138
sg12
g13
(g14
g15
NtRp139
(dp140
g18
I1
sg19
I0
sg20
I86
sg21
I0
sg22
I0
sg23
I86
sg24
I0
sbssg25
S'\x1dR\xfe1\x96\xd4|\xaf?\xd8\xb8\x88]\x04\xdf\xb4'
p141
ssS'src_rockstor_storageadmin_views_setup_user'
p142
(dp143
g6
(dp144
g8
S'src_rockstor_storageadmin_views_setup_user.html'
p145
sg10
S'src/rockstor/storageadmin/views/setup_user'
p146
sg12
g13
(g14
g15
NtRp147
(dp148
g18
I1
sg19
I0
sg20
I32
sg21
I0
sg22
I0
sg23
I32
sg24
I0
sbssg25
S'P[/\x9dk2\x85o\xfe\xf1\xe5^Z\x89\xfe!'
p149
ssS'src_rockstor_storageadmin_views_update_subscription'
p150
(dp151
g6
(dp152
g8
S'src_rockstor_storageadmin_views_update_subscription.html'
p153
sg10
S'src/rockstor/storageadmin/views/update_subscription'
p154
sg12
g13
(g14
g15
NtRp155
(dp156
g18
I1
sg19
I0
sg20
I68
sg21
I0
sg22
I0
sg23
I68
sg24
I0
sbssg25
S'|\xaf\xed\xef\x85\xee\xb5\x11\xb7\x98\xc3\x0c\x80+P\xc9'
p157
ssS'src_rockstor_storageadmin_views_pool_balance'
p158
(dp159
g6
(dp160
g8
S'src_rockstor_storageadmin_views_pool_balance.html'
p161
sg10
S'src/rockstor/storageadmin/views/pool_balance'
p162
sg12
g13
(g14
g15
NtRp163
(dp164
g18
I1
sg19
I0
sg20
I67
sg21
I0
sg22
I0
sg23
I67
sg24
I0
sbssg25
S"s`)\xad\xb4\xe6\x1a\x93\x1f\xdf\xce\r\xc0'PC"
p165
ssS'src_rockstor_storageadmin_views_pool'
p166
(dp167
g6
(dp168
g8
S'src_rockstor_storageadmin_views_pool.html'
p169
sg10
S'src/rockstor/storageadmin/views/pool'
p170
sg12
g13
(g14
g15
NtRp171
(dp172
g18
I1
sg19
I0
sg20
I294
sg21
I0
sg22
I0
sg23
I294
sg24
I0
sbssg25
S'\xe7\x05?\xbc\x97\xb0\xc5nI\x07\x0cPWM+\x03'
p173
ssS'src_rockstor_storageadmin_views_pool_scrub'
p174
(dp175
g6
(dp176
g8
S'src_rockstor_storageadmin_views_pool_scrub.html'
p177
sg10
S'src/rockstor/storageadmin/views/pool_scrub'
p178
sg12
g13
(g14
g15
NtRp179
(dp180
g18
I1
sg19
I0
sg20
I58
sg21
I0
sg22
I0
sg23
I58
sg24
I0
sbssg25
S'@\xd0\xbc\xec\x9d\x9a\x9ev\xbe\xc0\xc7\xe3.\xbc\x94\xb5'
p181
ssS'src_rockstor_storageadmin_views_rockon'
p182
(dp183
g6
(dp184
g8
S'src_rockstor_storageadmin_views_rockon.html'
p185
sg10
S'src/rockstor/storageadmin/views/rockon'
p186
sg12
g13
(g14
g15
NtRp187
(dp188
g18
I1
sg19
I0
sg20
I265
sg21
I0
sg22
I0
sg23
I265
sg24
I0
sbssg25
S'5\x04\x8b#\x15\x80\xd5C\xf2\x1ec\xc6\x19(V\xb5'
p189
ssS'src_rockstor_storageadmin_views_sftp'
p190
(dp191
g6
(dp192
g8
S'src_rockstor_storageadmin_views_sftp.html'
p193
sg10
S'src/rockstor/storageadmin/views/sftp'
p194
sg12
g13
(g14
g15
NtRp195
(dp196
g18
I1
sg19
I0
sg20
I79
sg21
I0
sg22
I0
sg23
I79
sg24
I0
sbssg25
S'\xc4\xb3\x1f\x15K\xb6k\xe8; \xa7\xb9\xdeC\xda\xc1'
p197
ssS'src_rockstor_storageadmin_views_rockon_volume'
p198
(dp199
g6
(dp200
g8
S'src_rockstor_storageadmin_views_rockon_volume.html'
p201
sg10
S'src/rockstor/storageadmin/views/rockon_volume'
p202
sg12
g13
(g14
g15
NtRp203
(dp204
g18
I1
sg19
I0
sg20
I14
sg21
I0
sg22
I0
sg23
I14
sg24
I0
sbssg25
S'\xcfL\xb9\xf0]\x8e\x86\xb5\xd5o\xdaNs\xeb\xf2f'
p205
ssS'src_rockstor_storageadmin_views_network'
p206
(dp207
g6
(dp208
g8
S'src_rockstor_storageadmin_views_network.html'
p209
sg10
S'src/rockstor/storageadmin/views/network'
p210
sg12
g13
(g14
g15
NtRp211
(dp212
g18
I1
sg19
I0
sg20
I264
sg21
I0
sg22
I0
sg23
I264
sg24
I0
sbssg25
S"L\xa7\x9d^\x8d\xa7\xbb3\xfb'E(\xc9\xf3\xbd\t"
p213
ssS'src_rockstor_storageadmin_views_command'
p214
(dp215
g6
(dp216
g8
S'src_rockstor_storageadmin_views_command.html'
p217
sg10
S'src/rockstor/storageadmin/views/command'
p218
sg12
g13
(g14
g15
NtRp219
(dp220
g18
I1
sg19
I0
sg20
I190
sg21
I0
sg22
I0
sg23
I190
sg24
I0
sbssg25
S'\xa5`\xb8}\x81\xc9\\\x17\xda\xfd\xe7\x9f\xe4\x1c<}'
p221
ssS'src_rockstor_storageadmin_views_disk'
p222
(dp223
g6
(dp224
S'html_filename'
p225
S'src_rockstor_storageadmin_views_disk.html'
p226
sS'name'
p227
S'src/rockstor/storageadmin/views/disk'
p228
sS'nums'
p229
g13
(g14
g15
NtRp230
(dp231
g18
I1
sg19
I0
sg20
I214
sg21
I0
sg22
I0
sg23
I214
sg24
I0
sbssg25
S"'e\xb4\xbc\x85\xe0&\x03EV\xf1\xe6\x07\x9f\x98\xfe"
p232
ssS'src_rockstor_storageadmin_views_share_helpers'
p233
(dp234
g6
(dp235
g8
S'src_rockstor_storageadmin_views_share_helpers.html'
p236
sg10
S'src/rockstor/storageadmin/views/share_helpers'
p237
sg12
g13
(g14
g15
NtRp238
(dp239
g18
I1
sg19
I0
sg20
I106
sg21
I0
sg22
I0
sg23
I106
sg24
I0
sbssg25
S'_\x18\xb9\xac\xe4\xe7e\xb3CR\x92=\x00\xfd\x18G'
p240
ssS'src_rockstor_storageadmin_views_rockon_custom_config'
p241
(dp242
g6
(dp243
g8
S'src_rockstor_storageadmin_views_rockon_custom_config.html'
p244
sg10
S'src/rockstor/storageadmin/views/rockon_custom_config'
p245
sg12
g13
(g14
g15
NtRp246
(dp247
g18
I1
sg19
I0
sg20
I13
sg21
I0
sg22
I0
sg23
I13
sg24
I0
sbssg25
S'e\x11\xad\x0cp\x9du\xf64\x8f\x8a\xc0\xfe\x82\x19\x82'
p248
ssS'src_rockstor_storageadmin_views_rockon_port'
p249
(dp250
g6
(dp251
g8
S'src_rockstor_storageadmin_views_rockon_port.html'
p252
sg10
S'src/rockstor/storageadmin/views/rockon_port'
p253
sg12
g13
(g14
g15
NtRp254
(dp255
g18
I1
sg19
I0
sg20
I14
sg21
I0
sg22
I0
sg23
I14
sg24
I0
sbssg25
S"\xd9\x80\xab6\xc5\xf6\x840\xebBi\xff\x0f~\xe3'"
p256
ssS'src_rockstor_storageadmin_views_login'
p257
(dp258
g6
(dp259
g8
S'src_rockstor_storageadmin_views_login.html'
p260
sg10
S'src/rockstor/storageadmin/views/login'
p261
sg12
g13
(g14
g15
NtRp262
(dp263
g18
I1
sg19
I0
sg20
I19
sg21
I0
sg22
I0
sg23
I19
sg24
I0
sbssg25
S'\x98\x1d=q\xb7\x1cuMJ0\xfa\xb7P\xfa\x8c;'
p264
ssS'src_rockstor_storageadmin_views_appliances'
p265
(dp266
g6
(dp267
g8
S'src_rockstor_storageadmin_views_appliances.html'
p268
sg10
S'src/rockstor/storageadmin/views/appliances'
p269
sg12
g13
(g14
g15
NtRp270
(dp271
g18
I1
sg19
I0
sg20
I117
sg21
I0
sg22
I0
sg23
I117
sg24
I0
sbssg25
S'\xbc\xf8?\xe6\xc4\xb9\xc12\xe7-\x81\x8bW<{\xc2'
p272
ssS'src_rockstor_storageadmin_views_dashboardconfig'
p273
(dp274
g6
(dp275
g8
S'src_rockstor_storageadmin_views_dashboardconfig.html'
p276
sg10
S'src/rockstor/storageadmin/views/dashboardconfig'
p277
sg12
g13
(g14
g15
NtRp278
(dp279
g18
I1
sg19
I0
sg20
I54
sg21
I0
sg22
I0
sg23
I54
sg24
I0
sbssg25
S'\x9fu\t\xf5\x92\x7f9X\x06\xb6c\xc5;2:\xf0'
p280
ssS'src_rockstor_storageadmin_views_rockon_utils'
p281
(dp282
g6
(dp283
g8
S'src_rockstor_storageadmin_views_rockon_utils.html'
p284
sg10
S'src/rockstor/storageadmin/views/rockon_utils'
p285
sg12
g13
(g14
g15
NtRp286
(dp287
g18
I1
sg19
I0
sg20
I25
sg21
I0
sg22
I0
sg23
I25
sg24
I0
sbssg25
S'kHd\x96o\xb8\xe2#\xd9{\x9ft\xda\x80\xc5w'
p288
ssS'src_rockstor_storageadmin_views_samba'
p289
(dp290
g6
(dp291
g8
S'src_rockstor_storageadmin_views_samba.html'
p292
sg10
S'src/rockstor/storageadmin/views/samba'
p293
sg12
g13
(g14
g15
NtRp294
(dp295
g18
I1
sg19
I0
sg20
I159
sg21
I0
sg22
I0
sg23
I159
sg24
I0
sbssg25
S'2*;$&%Q\xc1\x05\x91\xaa\xd9\xdf\xbb1N'
p296
ssS'src_rockstor_storageadmin_views_config_backup'
p297
(dp298
g6
(dp299
g8
S'src_rockstor_storageadmin_views_config_backup.html'
p300
sg10
S'src/rockstor/storageadmin/views/config_backup'
p301
sg12
g13
(g14
g15
NtRp302
(dp303
g18
I1
sg19
I0
sg20
I206
sg21
I0
sg22
I0
sg23
I206
sg24
I0
sbssg25
S'\x98\xae\x1d\x13\x98\x03.!("*\xd2u\xccCm'
p304
ssS'src_rockstor_storageadmin_views_group'
p305
(dp306
g6
(dp307
g8
S'src_rockstor_storageadmin_views_group.html'
p308
sg10
S'src/rockstor/storageadmin/views/group'
p309
sg12
g13
(g14
g15
NtRp310
(dp311
g18
I1
sg19
I0
sg20
I77
sg21
I0
sg22
I0
sg23
I77
sg24
I0
sbssg25
S'\x9d9\xc2\x88\xde\xc0xQ\xf6U\xa4\xa4\x12|>S'
p312
ssS'src_rockstor_storageadmin_views_rockon_environment'
p313
(dp314
g6
(dp315
g8
S'src_rockstor_storageadmin_views_rockon_environment.html'
p316
sg10
S'src/rockstor/storageadmin/views/rockon_environment'
p317
sg12
g13
(g14
g15
NtRp318
(dp319
g18
I1
sg19
I0
sg20
I14
sg21
I0
sg22
I0
sg23
I14
sg24
I0
sbssg25
S'\xd1R\xff\x9a\xf4\x00\x93\x1b\x91\xe4K}\x03+\xe2\xc6'
p320
ssS'src_rockstor_storageadmin_views_share_command'
p321
(dp322
g6
(dp323
g8
S'src_rockstor_storageadmin_views_share_command.html'
p324
sg10
S'src/rockstor/storageadmin/views/share_command'
p325
sg12
g13
(g14
g15
NtRp326
(dp327
g18
I1
sg19
I0
sg20
I49
sg21
I0
sg22
I0
sg23
I49
sg24
I0
sbssg25
S'\x1dq?\xe6\xd1.AC\xb1\xa9\x0e\x0f\xfa\xc3\xedn'
p328
ssS'src_rockstor_storageadmin_views_share_acl'
p329
(dp330
g6
(dp331
g8
S'src_rockstor_storageadmin_views_share_acl.html'
p332
sg10
S'src/rockstor/storageadmin/views/share_acl'
p333
sg12
g13
(g14
g15
NtRp334
(dp335
g18
I1
sg19
I0
sg20
I34
sg21
I0
sg22
I0
sg23
I34
sg24
I0
sbssg25
S'\xae\xba(\x9b\x80jF\xf8dn\xb6 \xafl\x04\xcc'
p336
ssS'src_rockstor_storageadmin_views_nfs_exports'
p337
(dp338
g6
(dp339
g8
S'src_rockstor_storageadmin_views_nfs_exports.html'
p340
sg10
S'src/rockstor/storageadmin/views/nfs_exports'
p341
sg12
g13
(g14
g15
NtRp342
(dp343
g18
I1
sg19
I0
sg20
I216
sg21
I0
sg22
I0
sg23
I216
sg24
I0
sbssg25
S'\x94\x99I\x9f\xf1A^ \xb1\xdbF<\x88\xfd\xb3\x1e'
p344
ssS'src_rockstor_storageadmin_views_rockon_discourse'
p345
(dp346
g6
(dp347
g8
S'src_rockstor_storageadmin_views_rockon_discourse.html'
p348
sg10
S'src/rockstor/storageadmin/views/rockon_discourse'
p349
sg12
g13
(g14
g15
NtRp350
(dp351
g18
I1
sg19
I0
sg20
I74
sg21
I0
sg22
I0
sg23
I74
sg24
I0
sbssg25
S'\xa4\\nc\xdeB\xc3U}V\x8a@\xff-H\x19'
p352
ssS'src_rockstor_storageadmin_views_home'
p353
(dp354
g6
(dp355
g8
S'src_rockstor_storageadmin_views_home.html'
p356
sg10
S'src/rockstor/storageadmin/views/home'
p357
sg12
g13
(g14
g15
NtRp358
(dp359
g18
I1
sg19
I0
sg20
I36
sg21
I0
sg22
I0
sg23
I36
sg24
I0
sbssg25
S'\x9fr\xdc`\xc8Cr\xc5\xb1R{\xad\x08\x1c\xec)'
p360
sssS'version'
p361
S'3.7.1'
p362
sS'settings'
p363
S"\xec\x18|\x8c\x02\x91\xe4\x94\xe1':y\xbf\xdc\x94\xa2"
p364
sS'format'
p365
I1
s.