(dp1
S'files'
p2
(dp3
S'src_rockstor_storageadmin_views_rockon_id'
p4
(dp5
S'index'
p6
(dp7
S'html_filename'
p8
S'src_rockstor_storageadmin_views_rockon_id.html'
p9
sS'name'
p10
S'src/rockstor/storageadmin/views/rockon_id'
p11
sS'nums'
p12
ccopy_reg
_reconstructor
p13
(ccoverage.results
Numbers
p14
c__builtin__
object
p15
NtRp16
(dp17
S'n_files'
p18
I1
sS'n_branches'
p19
I0
sS'n_statements'
p20
I150
sS'n_excluded'
p21
I0
sS'n_partial_branches'
p22
I0
sS'n_missing'
p23
I133
sS'n_missing_branches'
p24
I0
sbssS'hash'
p25
S'\x8f;HH\xcf\xae\xb5\xb6\xbd\xa9Z\x99oH\xd2\x94'
p26
ssS'src_rockstor_storageadmin_views___init__'
p27
(dp28
g6
(dp29
g8
S'src_rockstor_storageadmin_views___init__.html'
p30
sg10
S'src/rockstor/storageadmin/views/__init__'
p31
sg12
g13
(g14
g15
NtRp32
(dp33
g18
I1
sg19
I0
sg20
I34
sg21
I0
sg22
I0
sg23
I0
sg24
I0
sbssg25
S'\xcc\xee\x90\xb4\xbc\xd0h\xe8"\x04\x97\xb7\xb8\xf0\xf9#'
p34
ssS'src_rockstor_storageadmin_views_ug_helpers'
p35
(dp36
g6
(dp37
g8
S'src_rockstor_storageadmin_views_ug_helpers.html'
p38
sg10
S'src/rockstor/storageadmin/views/ug_helpers'
p39
sg12
g13
(g14
g15
NtRp40
(dp41
g18
I1
sg19
I0
sg20
I63
sg21
I0
sg22
I0
sg23
I31
sg24
I0
sbssg25
S'\x19B~k\xfb\xa4\xefXr!\x99\xae\\\xfd\x9bu'
p42
ssS'src_rockstor_storageadmin_views_command'
p43
(dp44
g6
(dp45
g8
S'src_rockstor_storageadmin_views_command.html'
p46
sg10
S'src/rockstor/storageadmin/views/command'
p47
sg12
g13
(g14
g15
NtRp48
(dp49
g18
I1
sg19
I0
sg20
I190
sg21
I0
sg22
I0
sg23
I79
sg24
I0
sbssg25
S'\xff\x0b\x9e\x1e\xea$k\xd7\xb8\xe6\x8dgB\xa0\xf8\xdd'
p50
ssS'src_rockstor_storageadmin_views_rockon_utils'
p51
(dp52
g6
(dp53
g8
S'src_rockstor_storageadmin_views_rockon_utils.html'
p54
sg10
S'src/rockstor/storageadmin/views/rockon_utils'
p55
sg12
g13
(g14
g15
NtRp56
(dp57
g18
I1
sg19
I0
sg20
I25
sg21
I0
sg22
I0
sg23
I20
sg24
I0
sbssg25
S"\xbd\x9b\xf2\xa2\x13\xaa\xec')\xd0&\xb4\xe3\x8d\xaa="
p58
ssS'src_rockstor_storageadmin_views_tls_certificate'
p59
(dp60
g6
(dp61
g8
S'src_rockstor_storageadmin_views_tls_certificate.html'
p62
sg10
S'src/rockstor/storageadmin/views/tls_certificate'
p63
sg12
g13
(g14
g15
NtRp64
(dp65
g18
I1
sg19
I0
sg20
I53
sg21
I0
sg22
I0
sg23
I16
sg24
I0
sbssg25
S'\xf5\x9f\x80&\xaa\xba\xe5=\x8b\xdb\xab\x1b\x99\x84\xa9\xbe'
p66
ssS'src_rockstor_storageadmin_views_oauth_app'
p67
(dp68
g6
(dp69
g8
S'src_rockstor_storageadmin_views_oauth_app.html'
p70
sg10
S'src/rockstor/storageadmin/views/oauth_app'
p71
sg12
g13
(g14
g15
NtRp72
(dp73
g18
I1
sg19
I0
sg20
I51
sg21
I0
sg22
I0
sg23
I20
sg24
I0
sbssg25
S'I\xe7_9*\x8d\xbdI\xfd\xf1E\xfd\x98\xa7G\xa0'
p74
ssS'src_rockstor_storageadmin_views_netatalk'
p75
(dp76
g6
(dp77
g8
S'src_rockstor_storageadmin_views_netatalk.html'
p78
sg10
S'src/rockstor/storageadmin/views/netatalk'
p79
sg12
g13
(g14
g15
NtRp80
(dp81
g18
I1
sg19
I0
sg20
I93
sg21
I0
sg22
I0
sg23
I13
sg24
I0
sbssg25
S'vH\xe2\xee\xf2$\x02`\xc5N\x84\xfa\x8f\x81\x84k'
p82
ssS'src_rockstor_storageadmin_views_nfs_exports'
p83
(dp84
g6
(dp85
g8
S'src_rockstor_storageadmin_views_nfs_exports.html'
p86
sg10
S'src/rockstor/storageadmin/views/nfs_exports'
p87
sg12
g13
(g14
g15
NtRp88
(dp89
g18
I1
sg19
I0
sg20
I216
sg21
I0
sg22
I0
sg23
I5
sg24
I0
sbssg25
S'\xa9\xb0:\xd6\xfb\xc4r\x84\xd5\xb1\xba\xde\xccx\xdd\x9f'
p90
ssS'src_rockstor_storageadmin_views_rockon_json'
p91
(dp92
g6
(dp93
g8
S'src_rockstor_storageadmin_views_rockon_json.html'
p94
sg10
S'src/rockstor/storageadmin/views/rockon_json'
p95
sg12
g13
(g14
g15
NtRp96
(dp97
g18
I1
sg19
I0
sg20
I10
sg21
I0
sg22
I0
sg23
I10
sg24
I0
sbssg25
S'\xdb&\x14\xd7\x1cP\x82\xa2\x10\xd3TM\r\xa9TP'
p98
ssS'src_rockstor_storageadmin_views_snapshot'
p99
(dp100
g6
(dp101
g8
S'src_rockstor_storageadmin_views_snapshot.html'
p102
sg10
S'src/rockstor/storageadmin/views/snapshot'
p103
sg12
g13
(g14
g15
NtRp104
(dp105
g18
I1
sg19
I0
sg20
I155
sg21
I0
sg22
I0
sg23
I37
sg24
I0
sbssg25
S'O\xf5m;\xd0.\xaa\x15\x9d\xf0pI]\xb2CY'
p106
ssS'src_rockstor_storageadmin_views_user'
p107
(dp108
g6
(dp109
g8
S'src_rockstor_storageadmin_views_user.html'
p110
sg10
S'src/rockstor/storageadmin/views/user'
p111
sg12
g13
(g14
g15
NtRp112
(dp113
g18
I1
sg19
I0
sg20
I214
sg21
I0
sg22
I0
sg23
I15
sg24
I0
sbssg25
S'\x7f\x87\xcf\xf6\x84\xd2\xdf\xfb\xb8\xcf~\xb8z[\xf0\xdb'
p114
ssS'src_rockstor_storageadmin_views_views'
p115
(dp116
g6
(dp117
g8
S'src_rockstor_storageadmin_views_views.html'
p118
sg10
S'src/rockstor/storageadmin/views/views'
p119
sg12
g13
(g14
g15
NtRp120
(dp121
g18
I1
sg19
I0
sg20
I0
sg21
I0
sg22
I0
sg23
I0
sg24
I0
sbssg25
S'{\xd99q\x98)\xfekT\xb8H7M\x1c\x94\xba'
p122
ssS'src_rockstor_storageadmin_views_rockon_helpers'
p123
(dp124
g6
(dp125
g8
S'src_rockstor_storageadmin_views_rockon_helpers.html'
p126
sg10
S'src/rockstor/storageadmin/views/rockon_helpers'
p127
sg12
g13
(g14
g15
NtRp128
(dp129
g18
I1
sg19
I0
sg20
I194
sg21
I0
sg22
I0
sg23
I151
sg24
I0
sbssg25
S'\x16\x90\xe8\xa8Kz\x06\xdfs~\xe8\x9c\xb2T\xa3\xae'
p130
ssS'src_rockstor_storageadmin_views_clone_helpers'
p131
(dp132
g6
(dp133
g8
S'src_rockstor_storageadmin_views_clone_helpers.html'
p134
sg10
S'src/rockstor/storageadmin/views/clone_helpers'
p135
sg12
g13
(g14
g15
NtRp136
(dp137
g18
I1
sg19
I0
sg20
I31
sg21
I0
sg22
I0
sg23
I23
sg24
I0
sbssg25
S'\x07\x18\x1d\x01\x19s\xd9\x9f/\xe5\xe9\xb4P\x80\xd2m'
p138
ssS'src_rockstor_storageadmin_views_disk'
p139
(dp140
g6
(dp141
g8
S'src_rockstor_storageadmin_views_disk.html'
p142
sg10
S'src/rockstor/storageadmin/views/disk'
p143
sg12
g13
(g14
g15
NtRp144
(dp145
g18
I1
sg19
I0
sg20
I190
sg21
I0
sg22
I0
sg23
I87
sg24
I0
sbssg25
S'_\xb5~&\xb8]\xc3":\x14\xcf\xe9\xb5.\xc0`'
p146
ssS'src_rockstor_storageadmin_views_setup_user'
p147
(dp148
g6
(dp149
g8
S'src_rockstor_storageadmin_views_setup_user.html'
p150
sg10
S'src/rockstor/storageadmin/views/setup_user'
p151
sg12
g13
(g14
g15
NtRp152
(dp153
g18
I1
sg19
I0
sg20
I32
sg21
I0
sg22
I0
sg23
I20
sg24
I0
sbssg25
S'\xec\x94\x84\x1a\x9aM2\xb5p\xca\xa2\x96\x95\x1cq\n'
p154
ssS'src_rockstor_storageadmin_views_update_subscription'
p155
(dp156
g6
(dp157
g8
S'src_rockstor_storageadmin_views_update_subscription.html'
p158
sg10
S'src/rockstor/storageadmin/views/update_subscription'
p159
sg12
g13
(g14
g15
NtRp160
(dp161
g18
I1
sg19
I0
sg20
I68
sg21
I0
sg22
I0
sg23
I37
sg24
I0
sbssg25
S'E\x1f\x9dD=\xc92i^f\xcc\xf4\xeet\x05\xfb'
p162
ssS'src_rockstor_storageadmin_views_pool_balance'
p163
(dp164
g6
(dp165
g8
S'src_rockstor_storageadmin_views_pool_balance.html'
p166
sg10
S'src/rockstor/storageadmin/views/pool_balance'
p167
sg12
g13
(g14
g15
NtRp168
(dp169
g18
I1
sg19
I0
sg20
I67
sg21
I0
sg22
I0
sg23
I23
sg24
I0
sbssg25
S'\x91\x9a\xb2\xb5!\x1f\x05\x8f\xd9\x11w3\x1c\x11$\xb2'
p170
ssS'src_rockstor_storageadmin_views_pool'
p171
(dp172
g6
(dp173
g8
S'src_rockstor_storageadmin_views_pool.html'
p174
sg10
S'src/rockstor/storageadmin/views/pool'
p175
sg12
g13
(g14
g15
NtRp176
(dp177
g18
I1
sg19
I0
sg20
I294
sg21
I0
sg22
I0
sg23
I36
sg24
I0
sbssg25
S'|\xf6S\xe1\x8c\xaf=\xa0\xe0\x07\x0f4!\x93(\x16'
p178
ssS'src_rockstor_storageadmin_views_pool_scrub'
p179
(dp180
g6
(dp181
g8
S'src_rockstor_storageadmin_views_pool_scrub.html'
p182
sg10
S'src/rockstor/storageadmin/views/pool_scrub'
p183
sg12
g13
(g14
g15
NtRp184
(dp185
g18
I1
sg19
I0
sg20
I58
sg21
I0
sg22
I0
sg23
I6
sg24
I0
sbssg25
S'\xc3\xb6Af\x03\x0e\xbf\xf8R\x0b\xa9\xab\xc3\x1aw\xd2'
p186
ssS'src_rockstor_storageadmin_views_rockon'
p187
(dp188
g6
(dp189
g8
S'src_rockstor_storageadmin_views_rockon.html'
p190
sg10
S'src/rockstor/storageadmin/views/rockon'
p191
sg12
g13
(g14
g15
NtRp192
(dp193
g18
I1
sg19
I0
sg20
I265
sg21
I0
sg22
I0
sg23
I235
sg24
I0
sbssg25
S'\xd5\x94\tr\xcd\xee\xe4\x1f\xba~\xe7H\xe2\xce\xbfR'
p194
ssS'src_rockstor_storageadmin_views_sftp'
p195
(dp196
g6
(dp197
g8
S'src_rockstor_storageadmin_views_sftp.html'
p198
sg10
S'src/rockstor/storageadmin/views/sftp'
p199
sg12
g13
(g14
g15
NtRp200
(dp201
g18
I1
sg19
I0
sg20
I79
sg21
I0
sg22
I0
sg23
I13
sg24
I0
sbssg25
S'u\xbf\xb7\xcf\xa9\xff\x88m\xfd\xa5\xf2>\xd4\xf4\x19\xb4'
p202
ssS'src_rockstor_storageadmin_views_rockon_volume'
p203
(dp204
g6
(dp205
g8
S'src_rockstor_storageadmin_views_rockon_volume.html'
p206
sg10
S'src/rockstor/storageadmin/views/rockon_volume'
p207
sg12
g13
(g14
g15
NtRp208
(dp209
g18
I1
sg19
I0
sg20
I14
sg21
I0
sg22
I0
sg23
I7
sg24
I0
sbssg25
S'\x83:\x8e\x86\xe0\x89\x8e-#\xaa}Hs\xf3N\x04'
p210
ssS'src_rockstor_storageadmin_views_network'
p211
(dp212
g6
(dp213
g8
S'src_rockstor_storageadmin_views_network.html'
p214
sg10
S'src/rockstor/storageadmin/views/network'
p215
sg12
g13
(g14
g15
NtRp216
(dp217
g18
I1
sg19
I0
sg20
I148
sg21
I0
sg22
I0
sg23
I29
sg24
I0
sbssg25
S'\x1b6@\xed\x82\x9f5\xcc\xc5\xc3\xeeHNl\\y'
p218
ssS'src_rockstor_storageadmin_views_email_client'
p219
(dp220
g6
(dp221
S'html_filename'
p222
S'src_rockstor_storageadmin_views_email_client.html'
p223
sS'name'
p224
S'src/rockstor/storageadmin/views/email_client'
p225
sS'nums'
p226
g13
(g14
g15
NtRp227
(dp228
g18
I1
sg19
I0
sg20
I110
sg21
I0
sg22
I0
sg23
I44
sg24
I0
sbssg25
S';\x93\x00\x9d"\x10J\xa3\x8f\x9e\xb5\xfe\x8b\xcf\x18\xea'
p229
ssS'src_rockstor_storageadmin_views_disk_smart'
p230
(dp231
g6
(dp232
g8
S'src_rockstor_storageadmin_views_disk_smart.html'
p233
sg10
S'src/rockstor/storageadmin/views/disk_smart'
p234
sg12
g13
(g14
g15
NtRp235
(dp236
g18
I1
sg19
I0
sg20
I86
sg21
I0
sg22
I0
sg23
I46
sg24
I0
sbssg25
S'Z\xbd\xacu\x9eG|\x95\x017\xaa\r\xd1\xabL\xb1'
p237
ssS'src_rockstor_storageadmin_views_share_helpers'
p238
(dp239
g6
(dp240
g8
S'src_rockstor_storageadmin_views_share_helpers.html'
p241
sg10
S'src/rockstor/storageadmin/views/share_helpers'
p242
sg12
g13
(g14
g15
NtRp243
(dp244
g18
I1
sg19
I0
sg20
I106
sg21
I0
sg22
I0
sg23
I86
sg24
I0
sbssg25
S'qc\xdaM\x02\x06\xea:\xe2\xb46\xa9\x0f\xb6\x0c\xdc'
p245
ssS'src_rockstor_storageadmin_views_rockon_custom_config'
p246
(dp247
g6
(dp248
g8
S'src_rockstor_storageadmin_views_rockon_custom_config.html'
p249
sg10
S'src/rockstor/storageadmin/views/rockon_custom_config'
p250
sg12
g13
(g14
g15
NtRp251
(dp252
g18
I1
sg19
I0
sg20
I13
sg21
I0
sg22
I0
sg23
I6
sg24
I0
sbssg25
S'\x89e\x0f\xa0\xdb\x8b$\x9bzVpm8r\x06\t'
p253
ssS'src_rockstor_storageadmin_views_rockon_port'
p254
(dp255
g6
(dp256
g8
S'src_rockstor_storageadmin_views_rockon_port.html'
p257
sg10
S'src/rockstor/storageadmin/views/rockon_port'
p258
sg12
g13
(g14
g15
NtRp259
(dp260
g18
I1
sg19
I0
sg20
I14
sg21
I0
sg22
I0
sg23
I7
sg24
I0
sbssg25
S'\xc8\xe4\xd9fY\x7f?\xad\xa7\xbc\x1c\r\xf1\x11\xd5c'
p261
ssS'src_rockstor_storageadmin_views_login'
p262
(dp263
g6
(dp264
g8
S'src_rockstor_storageadmin_views_login.html'
p265
sg10
S'src/rockstor/storageadmin/views/login'
p266
sg12
g13
(g14
g15
NtRp267
(dp268
g18
I1
sg19
I0
sg20
I19
sg21
I0
sg22
I0
sg23
I2
sg24
I0
sbssg25
S'w\xe0UfT\x8d\x89\xe8XlG\xed\xa4\xb9\x97,'
p269
ssS'src_rockstor_storageadmin_views_appliances'
p270
(dp271
g6
(dp272
g8
S'src_rockstor_storageadmin_views_appliances.html'
p273
sg10
S'src/rockstor/storageadmin/views/appliances'
p274
sg12
g13
(g14
g15
NtRp275
(dp276
g18
I1
sg19
I0
sg20
I117
sg21
I0
sg22
I0
sg23
I44
sg24
I0
sbssg25
S'\x18x\xd6"\xf7\xda[\xf1\xe8\x1bu\x1b\x8a\x08\xa7\x1d'
p277
ssS'src_rockstor_storageadmin_views_share'
p278
(dp279
g6
(dp280
g8
S'src_rockstor_storageadmin_views_share.html'
p281
sg10
S'src/rockstor/storageadmin/views/share'
p282
sg12
g13
(g14
g15
NtRp283
(dp284
g18
I1
sg19
I0
sg20
I181
sg21
I0
sg22
I0
sg23
I22
sg24
I0
sbssg25
S'\x1e\x1c\xb3\xda\xd1\xa6S\x85\x1dE\xd2D\xb3\x99\xacX'
p285
ssS'src_rockstor_storageadmin_views_samba'
p286
(dp287
g6
(dp288
g8
S'src_rockstor_storageadmin_views_samba.html'
p289
sg10
S'src/rockstor/storageadmin/views/samba'
p290
sg12
g13
(g14
g15
NtRp291
(dp292
g18
I1
sg19
I0
sg20
I153
sg21
I0
sg22
I0
sg23
I5
sg24
I0
sbssg25
S'E\x913NM\xfb\x01\xfd\x1a\xa8i\xbc\x03\x89\x0e3'
p293
ssS'src_rockstor_storageadmin_views_config_backup'
p294
(dp295
g6
(dp296
g8
S'src_rockstor_storageadmin_views_config_backup.html'
p297
sg10
S'src/rockstor/storageadmin/views/config_backup'
p298
sg12
g13
(g14
g15
NtRp299
(dp300
g18
I1
sg19
I0
sg20
I206
sg21
I0
sg22
I0
sg23
I121
sg24
I0
sbssg25
S'\xef$@\x01\xc0\xcc\xe8]\xaa\x80?$\xc5\xc3\x0f5'
p301
ssS'src_rockstor_storageadmin_views_group'
p302
(dp303
g6
(dp304
g8
S'src_rockstor_storageadmin_views_group.html'
p305
sg10
S'src/rockstor/storageadmin/views/group'
p306
sg12
g13
(g14
g15
NtRp307
(dp308
g18
I1
sg19
I0
sg20
I77
sg21
I0
sg22
I0
sg23
I7
sg24
I0
sbssg25
S'\x9f^\x90\x10Cc%s\xb9\xe8\xaezxA\x95m'
p309
ssS'src_rockstor_storageadmin_views_rockon_environment'
p310
(dp311
g6
(dp312
g8
S'src_rockstor_storageadmin_views_rockon_environment.html'
p313
sg10
S'src/rockstor/storageadmin/views/rockon_environment'
p314
sg12
g13
(g14
g15
NtRp315
(dp316
g18
I1
sg19
I0
sg20
I14
sg21
I0
sg22
I0
sg23
I7
sg24
I0
sbssg25
S'\xca\xd7\x11i\xf0\xf6\xf8/Z\x14\x8e\xaa^\x9dB\x0f'
p317
ssS'src_rockstor_storageadmin_views_share_command'
p318
(dp319
g6
(dp320
g8
S'src_rockstor_storageadmin_views_share_command.html'
p321
sg10
S'src/rockstor/storageadmin/views/share_command'
p322
sg12
g13
(g14
g15
NtRp323
(dp324
g18
I1
sg19
I0
sg20
I49
sg21
I0
sg22
I0
sg23
I0
sg24
I0
sbssg25
S'\xb2)\x13\xb7*q\x1e\xc5EN\x86\xc9D\xa8~v'
p325
ssS'src_rockstor_storageadmin_views_share_acl'
p326
(dp327
g6
(dp328
g8
S'src_rockstor_storageadmin_views_share_acl.html'
p329
sg10
S'src/rockstor/storageadmin/views/share_acl'
p330
sg12
g13
(g14
g15
NtRp331
(dp332
g18
I1
sg19
I0
sg20
I34
sg21
I0
sg22
I0
sg23
I4
sg24
I0
sbssg25
S'\xc4>\x1a\xbeq\x00Id\xf8\x17\x04V\xe5e\xed:'
p333
ssS'src_rockstor_storageadmin_views_dashboardconfig'
p334
(dp335
g6
(dp336
g8
S'src_rockstor_storageadmin_views_dashboardconfig.html'
p337
sg10
S'src/rockstor/storageadmin/views/dashboardconfig'
p338
sg12
g13
(g14
g15
NtRp339
(dp340
g18
I1
sg19
I0
sg20
I54
sg21
I0
sg22
I0
sg23
I12
sg24
I0
sbssg25
S"\xeb\xca%\xbfhE\xdc\xef\x18<\x7fP\xd7]'\xa9"
p341
ssS'src_rockstor_storageadmin_views_rockon_discourse'
p342
(dp343
g6
(dp344
g8
S'src_rockstor_storageadmin_views_rockon_discourse.html'
p345
sg10
S'src/rockstor/storageadmin/views/rockon_discourse'
p346
sg12
g13
(g14
g15
NtRp347
(dp348
g18
I1
sg19
I0
sg20
I74
sg21
I0
sg22
I0
sg23
I57
sg24
I0
sbssg25
S"\xf7\xb5\xcer\xef\xdb'b[\n\xb0R\x97\x1c\x1e\xbb"
p349
ssS'src_rockstor_storageadmin_views_home'
p350
(dp351
g6
(dp352
g8
S'src_rockstor_storageadmin_views_home.html'
p353
sg10
S'src/rockstor/storageadmin/views/home'
p354
sg12
g13
(g14
g15
NtRp355
(dp356
g18
I1
sg19
I0
sg20
I36
sg21
I0
sg22
I0
sg23
I24
sg24
I0
sbssg25
S'\x0b\x8c\xa5KzED\xa8\xda\t@\x8a\xf7\xab\x01\xd5'
p357
sssS'version'
p358
S'3.7.1'
p359
sS'settings'
p360
S'\x93O\xa2\xc9\xa0\xb48\xaf\xd9rq\t\xc6\xdb\x92\x04'
p361
sS'format'
p362
I1
s.